
HIFI3_BUILD_ELF:     file format elf32-xtensa-le


Disassembly of section .ResetHandler.text:

06f00000 <_ResetHandler-0x38>:
 6f00000:	00000000 06f00400 00004000 00002000     .........@... ..
 6f00010:	0000c000 00051044 42222224 e0000000     ....D...$""B....
 6f00020:	06f000e4 00000000 06f4d4b4              ............

06f0002c <_ResetHandler-0xc>:
	...

06f00038 <_ResetHandler>:
 6f00038:	000c                	movi.n	a0, 0
 6f0003a:	13e400               	wsr.intenable	a0
 6f0003d:	fff021               	l32r	a2, 6f00000 <_ResetHandler_text_start>
 6f00040:	03eb30               	rsr.prid	a3
 6f00043:	743030               	extui	a3, a3, 0, 8
 6f00046:	328c                	beqz.n	a2, 6f0004d <_ResetHandler+0x15>
 6f00048:	13cc                	bnez.n	a3, 6f0004d <_ResetHandler+0x15>
 6f0004a:	006202               	s32i	a0, a2, 0

06f0004d <_ResetHandler+0x15>:
 6f0004d:	ffed21               	l32r	a2, 6f00004 <_ResetHandler_text_start+0x4>
 6f00050:	13e720               	wsr.vecbase	a2
 6f00053:	531c                	movi.n	a3, 21
 6f00055:	136330               	wsr.atomctl	a3
 6f00058:	006120               	rsil	a2, 1
 6f0005b:	ffeb21               	l32r	a2, 6f00008 <_ResetHandler_text_start+0x8>
 6f0005e:	00a032               	movi	a3, 0
 6f00061:	0373d2               	iiu	a3, 0
 6f00064:	8373d2               	iiu	a3, 128
 6f00067:	01d332               	addmi	a3, a3, 0x100
 6f0006a:	f33327               	bltu	a3, a2, 6f00061 <_ResetHandler+0x29>
 6f0006d:	002000               	isync
 6f00070:	ffe721               	l32r	a2, 6f0000c <_ResetHandler_text_start+0xc>
 6f00073:	030c                	movi.n	a3, 0
 6f00075:	0073f2               	iii	a3, 0
 6f00078:	2073f2               	iii	a3, 128
 6f0007b:	4073f2               	iii	a3, 0x100
 6f0007e:	6073f2               	iii	a3, 0x180
 6f00081:	02d332               	addmi	a3, a3, 0x200
 6f00084:	ed3327               	bltu	a3, a2, 6f00075 <_ResetHandler+0x3d>
 6f00087:	002000               	isync
 6f0008a:	ffe121               	l32r	a2, 6f00010 <_ResetHandler_text_start+0x10>
 6f0008d:	00a032               	movi	a3, 0
 6f00090:	037382               	diu	a3, 0
 6f00093:	837382               	diu	a3, 128
 6f00096:	01d332               	addmi	a3, a3, 0x100
 6f00099:	f33327               	bltu	a3, a2, 6f00090 <_ResetHandler+0x58>
 6f0009c:	ffdb21               	l32r	a2, 6f00008 <_ResetHandler_text_start+0x8>
 6f0009f:	030c                	movi.n	a3, 0
 6f000a1:	007372               	dii	a3, 0
 6f000a4:	207372               	dii	a3, 128
 6f000a7:	407372               	dii	a3, 0x100
 6f000aa:	607372               	dii	a3, 0x180
 6f000ad:	02d332               	addmi	a3, a3, 0x200
 6f000b0:	ed3327               	bltu	a3, a2, 6f000a1 <_ResetHandler+0x69>
 6f000b3:	ffd821               	l32r	a2, 6f00014 <_ResetHandler_text_start+0x14>
 6f000b6:	132820               	wsr.prefctl	a2
 6f000b9:	ffd721               	l32r	a2, 6f00018 <_ResetHandler_text_start+0x18>
 6f000bc:	ffd851               	l32r	a5, 6f0001c <_ResetHandler_text_start+0x1c>
 6f000bf:	ffd861               	l32r	a6, 6f00020 <_ResetHandler_text_start+0x20>
 6f000c2:	030c                	movi.n	a3, 0
 6f000c4:	027d                	mov.n	a7, a2
 6f000c6:	106650               	and	a6, a6, a5
 6f000c9:	0005c6               	j	6f000e4 <_ResetHandler+0xac>

06f000cc <_ResetHandler+0x94>:
 6f000cc:	00000000                                ....

06f000d0 <_ResetHandler+0x98>:
 6f000d0:	506340               	witlb	a4, a3
 6f000d3:	002000               	isync
 6f000d6:	f03d                	nop.n

06f000d8 <_ResetHandler+0xa0>:
 6f000d8:	0020f0               	nop
 6f000db:	c03350               	sub	a3, a3, a5
 6f000de:	1fb3b6               	bltui	a3, 16, 6f00101 <_ResetHandler+0xc9>

06f000e1 <_ResetHandler+0xa9>:
 6f000e1:	417470               	srli	a7, a7, 4
 6f000e4:	507380               	ritlb1	a8, a3
 6f000e7:	344070               	extui	a4, a7, 0, 4
 6f000ea:	418480               	srli	a8, a8, 4
 6f000ed:	1188c0               	slli	a8, a8, 4
 6f000f0:	448a                	add.n	a4, a4, a8
 6f000f2:	da1367               	beq	a3, a6, 6f000d0 <_ResetHandler+0x98>
 6f000f5:	506340               	witlb	a4, a3
 6f000f8:	c03350               	sub	a3, a3, a5
 6f000fb:	e2b3f6               	bgeui	a3, 16, 6f000e1 <_ResetHandler+0xa9>
 6f000fe:	002000               	isync
 6f00101:	ffc651               	l32r	a5, 6f0001c <_ResetHandler_text_start+0x1c>
 6f00104:	00a032               	movi	a3, 0
 6f00107:	207220               	or	a7, a2, a2

06f0010a <_ResetHandler+0xd2>:
 6f0010a:	50f380               	rdtlb1	a8, a3
 6f0010d:	344070               	extui	a4, a7, 0, 4
 6f00110:	418480               	srli	a8, a8, 4
 6f00113:	1188c0               	slli	a8, a8, 4
 6f00116:	804480               	add	a4, a4, a8
 6f00119:	50e340               	wdtlb	a4, a3
 6f0011c:	c03350               	sub	a3, a3, a5
 6f0011f:	417470               	srli	a7, a7, 4
 6f00122:	e4b3f6               	bgeui	a3, 16, 6f0010a <_ResetHandler+0xd2>
 6f00125:	002030               	dsync
 6f00128:	01a032               	movi	a3, 1
 6f0012b:	036120               	rsr.memctl	a2
 6f0012e:	202230               	or	a2, a2, a3
 6f00131:	136120               	wsr.memctl	a2

06f00134 <unpackdone>:
 6f00134:	01a012               	movi	a1, 1
 6f00137:	134910               	wsr.windowstart	a1
 6f0013a:	134800               	wsr.windowbase	a0
 6f0013d:	002010               	rsync
 6f00140:	000c                	movi.n	a0, 0
 6f00142:	ffb841               	l32r	a4, 6f00024 <_ResetHandler_text_start+0x24>
 6f00145:	13d240               	wsr.excsave2	a4
 6f00148:	ffb851               	l32r	a5, 6f00028 <_ResetHandler_text_start+0x28>
 6f0014b:	0549                	s32i.n	a4, a5, 0
 6f0014d:	247b05               	call0	6f24900 <_start>

Disassembly of section .WindowVectors.text:

06f00400 <_WindowOverflow4>:
 6f00400:	49c500               	s32e	a0, a5, -16
 6f00403:	49d510               	s32e	a1, a5, -12
 6f00406:	49e520               	s32e	a2, a5, -8
 6f00409:	49f530               	s32e	a3, a5, -4
 6f0040c:	003400               	rfwo

06f0040f <_WindowOverflow4+0xf>:
	...

06f00440 <_WindowUnderflow4>:
 6f00440:	09c500               	l32e	a0, a5, -16
 6f00443:	09d510               	l32e	a1, a5, -12
 6f00446:	09e520               	l32e	a2, a5, -8
 6f00449:	09f530               	l32e	a3, a5, -4
 6f0044c:	003500               	rfwu

06f0044f <_WindowUnderflow4+0xf>:
	...

06f00450 <osAllocaExc>:
 6f00450:	034820               	rsr.windowbase	a2
 6f00453:	4080f0               	rotw	-1
 6f00456:	03e620               	rsr.ps	a2
 6f00459:	343820               	extui	a3, a2, 8, 4
 6f0045c:	303360               	xor	a3, a3, a6
 6f0045f:	096560               	l32e	a6, a5, -40
 6f00462:	113380               	slli	a3, a3, 8
 6f00465:	302230               	xor	a2, a2, a3
 6f00468:	13e620               	wsr.ps	a2
 6f0046b:	002010               	rsync
 6f0046e:	ce74f7               	bbci	a4, 31, 6f00440 <_WindowUnderflow4>
 6f00471:	4080f0               	rotw	-1
 6f00474:	4878e7               	bbci	a8, 30, 6f004c0 <_WindowUnderflow8>
 6f00477:	4080f0               	rotw	-1
 6f0047a:	003086               	j	6f00540 <_WindowUnderflow12>

06f0047d <osAllocaExc+0x2d>:
 6f0047d:	000000                                        ...

06f00480 <_WindowOverflow8>:
 6f00480:	49c900               	s32e	a0, a9, -16
 6f00483:	09d100               	l32e	a0, a1, -12
 6f00486:	49d910               	s32e	a1, a9, -12
 6f00489:	49e920               	s32e	a2, a9, -8
 6f0048c:	49f930               	s32e	a3, a9, -4
 6f0048f:	498040               	s32e	a4, a0, -32
 6f00492:	499050               	s32e	a5, a0, -28
 6f00495:	49a060               	s32e	a6, a0, -24
 6f00498:	49b070               	s32e	a7, a0, -20
 6f0049b:	003400               	rfwo

06f0049e <_WindowOverflow8+0x1e>:
	...

06f004c0 <_WindowUnderflow8>:
 6f004c0:	09c900               	l32e	a0, a9, -16
 6f004c3:	09d910               	l32e	a1, a9, -12
 6f004c6:	09e920               	l32e	a2, a9, -8
 6f004c9:	09d170               	l32e	a7, a1, -12
 6f004cc:	09f930               	l32e	a3, a9, -4
 6f004cf:	098740               	l32e	a4, a7, -32
 6f004d2:	099750               	l32e	a5, a7, -28
 6f004d5:	09a760               	l32e	a6, a7, -24
 6f004d8:	09b770               	l32e	a7, a7, -20
 6f004db:	003500               	rfwu

06f004de <_WindowUnderflow8+0x1e>:
	...

06f00500 <_WindowOverflow12>:
 6f00500:	49cd00               	s32e	a0, a13, -16
 6f00503:	09d100               	l32e	a0, a1, -12
 6f00506:	49dd10               	s32e	a1, a13, -12
 6f00509:	49ed20               	s32e	a2, a13, -8
 6f0050c:	49fd30               	s32e	a3, a13, -4
 6f0050f:	494040               	s32e	a4, a0, -48
 6f00512:	495050               	s32e	a5, a0, -44
 6f00515:	496060               	s32e	a6, a0, -40
 6f00518:	497070               	s32e	a7, a0, -36
 6f0051b:	498080               	s32e	a8, a0, -32
 6f0051e:	499090               	s32e	a9, a0, -28
 6f00521:	49a0a0               	s32e	a10, a0, -24
 6f00524:	49b0b0               	s32e	a11, a0, -20
 6f00527:	003400               	rfwo

06f0052a <_WindowOverflow12+0x2a>:
	...

06f00540 <_WindowUnderflow12>:
 6f00540:	09cd00               	l32e	a0, a13, -16
 6f00543:	09dd10               	l32e	a1, a13, -12
 6f00546:	09ed20               	l32e	a2, a13, -8
 6f00549:	09d1b0               	l32e	a11, a1, -12
 6f0054c:	09fd30               	l32e	a3, a13, -4
 6f0054f:	094b40               	l32e	a4, a11, -48
 6f00552:	095b50               	l32e	a5, a11, -44
 6f00555:	096b60               	l32e	a6, a11, -40
 6f00558:	097b70               	l32e	a7, a11, -36
 6f0055b:	098b80               	l32e	a8, a11, -32
 6f0055e:	099b90               	l32e	a9, a11, -28
 6f00561:	09aba0               	l32e	a10, a11, -24
 6f00564:	09bbb0               	l32e	a11, a11, -20
 6f00567:	003500               	rfwu

Disassembly of section .Level2InterruptVector.literal:

06f00578 <_memmap_seg_sram2_end-0x8>:
 6f00578:	06f23b78                                x;..

Disassembly of section .Level2InterruptVector.text:

06f0057c <_Level2Vector>:
 6f0057c:	90c112               	addi	a1, a1, -112
 6f0057f:	126122               	s32i	a2, a1, 72
 6f00582:	fffd21               	l32r	a2, 6f00578 <_Level2InterruptVector_literal_start>
 6f00585:	0002a0               	jx	a2

Disassembly of section .DebugExceptionVector.text:

06f0059c <_DebugExceptionVector>:
 6f0059c:	003000               	rfe

Disassembly of section .NMIExceptionVector.text:

06f005bc <_NMIExceptionVector>:
 6f005bc:	ffff06               	j	6f005bc <_NMIExceptionVector>

06f005bf <_NMIExceptionVector+0x3>:
 6f005bf:	003000               	rfe

Disassembly of section .KernelExceptionVector.literal:

06f005d8 <_memmap_seg_sram8_end-0x8>:
 6f005d8:	06f23bd4                                .;..

Disassembly of section .KernelExceptionVector.text:

06f005dc <_KernelExceptionVector>:
 6f005dc:	13d120               	wsr.excsave1	a2
 6f005df:	fffe21               	l32r	a2, 6f005d8 <_KernelExceptionVector_literal_start>
 6f005e2:	0002a0               	jx	a2

Disassembly of section .UserExceptionVector.literal:

06f005f8 <_memmap_seg_sram10_end-0x8>:
 6f005f8:	06f23b40                                @;..

Disassembly of section .UserExceptionVector.text:

06f005fc <_UserExceptionVector>:
 6f005fc:	13d120               	wsr.excsave1	a2
 6f005ff:	fffe21               	l32r	a2, 6f005f8 <_UserExceptionVector_literal_start>
 6f00602:	0002a0               	jx	a2

Disassembly of section .DoubleExceptionVector.text:

06f0061c <_DoubleExceptionVector>:
 6f0061c:	ffff06               	j	6f0061c <_DoubleExceptionVector>

06f0061f <_DoubleExceptionVector+0x3>:
 6f0061f:	003000               	rfe

06f00622 <_osDoubleVectorExt>:
 6f00622:	013d                	mov.n	a3, a1
 6f00624:	61d430               	xsr.excsave4	a3
 6f00627:	9139                	s32i.n	a3, a1, 36
 6f00629:	020c                	movi.n	a2, 0
 6f0062b:	13d120               	wsr.excsave1	a2
 6f0062e:	0004a0               	jx	a4

Disassembly of section .sram.text:

06f23aa4 <osKernelVectorExt-0x70>:
 6f23aa4:	00050004 06f23be8 06f23b14 06f23f0c     .....;...;...?..
 6f23ab4:	06f00450 06f23f10 07f00000 06f50664     P....?......d...
 6f23ac4:	06f23d4c 07efffd0 070a0ab0 06f4c410     L=..............
 6f23ad4:	070a0aa0 070a0bc0 070a0a88 070a0a8c     ................
 6f23ae4:	06f50678 06f4dad8 06f4c428 06f4c42c     x.......(...,...
 6f23af4:	c0000000 06f23ebb 06f4c440 00000f00     .....>..@.......
 6f23b04:	00030000 00050030 06f33484 06f4c4a0     ....0....4......

06f23b14 <osKernelVectorExt>:
 6f23b14:	90c112               	addi	a1, a1, -112
 6f23b17:	03d120               	rsr.excsave1	a2
 6f23b1a:	126122               	s32i	a2, a1, 72
 6f23b1d:	03b120               	rsr.epc1	a2
 6f23b20:	0129                	s32i.n	a2, a1, 0
 6f23b22:	ffe021               	l32r	a2, 6f23aa4 <_bss_table_end>
 6f23b25:	61e620               	xsr.ps	a2
 6f23b28:	002010               	rsync
 6f23b2b:	1129                	s32i.n	a2, a1, 4
 6f23b2d:	122122               	l32i	a2, a1, 72
 6f23b30:	8149                	s32i.n	a4, a1, 32
 6f23b32:	9159                	s32i.n	a5, a1, 36
 6f23b34:	a169                	s32i.n	a6, a1, 40
 6f23b36:	b179                	s32i.n	a7, a1, 44
 6f23b38:	170c                	movi.n	a7, 1
 6f23b3a:	70c112               	addi	a1, a1, 112
 6f23b3d:	002615               	call4	6f23da0 <osKernelHwiHandler>

06f23b40 <osUserExceptionVectorExt>:
 6f23b40:	03e820               	rsr.exccause	a2
 6f23b43:	054226               	beqi	a2, 4, 6f23b4c <_UserInterruptHandler>
 6f23b46:	ffd821               	l32r	a2, 6f23aa8 <_bss_table_end+0x4>
 6f23b49:	0002a0               	jx	a2

06f23b4c <_UserInterruptHandler>:
 6f23b4c:	90c112               	addi	a1, a1, -112
 6f23b4f:	03d120               	rsr.excsave1	a2
 6f23b52:	126122               	s32i	a2, a1, 72
 6f23b55:	03b120               	rsr.epc1	a2
 6f23b58:	0129                	s32i.n	a2, a1, 0
 6f23b5a:	ffd221               	l32r	a2, 6f23aa4 <_bss_table_end>
 6f23b5d:	61e620               	xsr.ps	a2
 6f23b60:	002010               	rsync
 6f23b63:	1129                	s32i.n	a2, a1, 4
 6f23b65:	122122               	l32i	a2, a1, 72
 6f23b68:	8149                	s32i.n	a4, a1, 32
 6f23b6a:	9159                	s32i.n	a5, a1, 36
 6f23b6c:	a169                	s32i.n	a6, a1, 40
 6f23b6e:	b179                	s32i.n	a7, a1, 44
 6f23b70:	170c                	movi.n	a7, 1
 6f23b72:	70c112               	addi	a1, a1, 112
 6f23b75:	000e55               	call4	6f23c5c <osUserHwiHandler>

06f23b78 <osLevel2VectorExt>:
 6f23b78:	ffcb21               	l32r	a2, 6f23aa4 <_bss_table_end>
 6f23b7b:	13e620               	wsr.ps	a2
 6f23b7e:	002010               	rsync
 6f23b81:	122122               	l32i	a2, a1, 72
 6f23b84:	086142               	s32i	a4, a1, 32
 6f23b87:	096152               	s32i	a5, a1, 36
 6f23b8a:	0a6162               	s32i	a6, a1, 40
 6f23b8d:	b179                	s32i.n	a7, a1, 44
 6f23b8f:	03b240               	rsr.epc2	a4
 6f23b92:	0149                	s32i.n	a4, a1, 0
 6f23b94:	03c240               	rsr.eps2	a4
 6f23b97:	1149                	s32i.n	a4, a1, 4
 6f23b99:	270c                	movi.n	a7, 2
 6f23b9b:	70c112               	addi	a1, a1, 112
 6f23b9e:	026457               	bbci	a4, 5, 6f23ba4 <osLevel2VectorExt+0x2c>
 6f23ba1:	000b95               	call4	6f23c5c <osUserHwiHandler>

06f23ba4 <osLevel2VectorExt+0x2c>:
 6f23ba4:	201110               	or	a1, a1, a1
 6f23ba7:	001f95               	call4	6f23da0 <osKernelHwiHandler>

06f23baa <osLevel2VectorExt+0x32>:
	...

06f23bac <osLevel3VectorExt>:
 6f23bac:	122122               	l32i	a2, a1, 72
 6f23baf:	8149                	s32i.n	a4, a1, 32
 6f23bb1:	9159                	s32i.n	a5, a1, 36
 6f23bb3:	a169                	s32i.n	a6, a1, 40
 6f23bb5:	b179                	s32i.n	a7, a1, 44
 6f23bb7:	03b340               	rsr.epc3	a4
 6f23bba:	0149                	s32i.n	a4, a1, 0
 6f23bbc:	03c340               	rsr.eps3	a4
 6f23bbf:	1149                	s32i.n	a4, a1, 4
 6f23bc1:	370c                	movi.n	a7, 3
 6f23bc3:	70c112               	addi	a1, a1, 112
 6f23bc6:	026457               	bbci	a4, 5, 6f23bcc <osLevel3VectorExt+0x20>
 6f23bc9:	000915               	call4	6f23c5c <osUserHwiHandler>

06f23bcc <osLevel3VectorExt+0x20>:
 6f23bcc:	201110               	or	a1, a1, a1
 6f23bcf:	001d15               	call4	6f23da0 <osKernelHwiHandler>

06f23bd2 <osLevel3VectorExt+0x26>:
	...

06f23bd4 <osKernelExceptionVectorExt>:
 6f23bd4:	03e820               	rsr.exccause	a2
 6f23bd7:	054226               	beqi	a2, 4, 6f23be0 <osKernelExceptionVectorExt+0xc>
 6f23bda:	ffb321               	l32r	a2, 6f23aa8 <_bss_table_end+0x4>
 6f23bdd:	0002a0               	jx	a2

06f23be0 <osKernelExceptionVectorExt+0xc>:
 6f23be0:	ffb321               	l32r	a2, 6f23aac <_bss_table_end+0x8>
 6f23be3:	0002a0               	jx	a2

06f23be6 <osKernelExceptionVectorExt+0x12>:
	...

06f23be8 <osExceptionHandler>:
 6f23be8:	03e820               	rsr.exccause	a2
 6f23beb:	dfc222               	addi	a2, a2, -33
 6f23bee:	62cc                	bnez.n	a2, 6f23bf8 <osExceptionHandler+0x10>
 6f23bf0:	ffb021               	l32r	a2, 6f23ab0 <_bss_table_end+0xc>
 6f23bf3:	0002a0               	jx	a2

06f23bf6 <osExceptionHandler+0xe>:
	...

06f23bf8 <osExceptionHandler+0x10>:
 6f23bf8:	03e820               	rsr.exccause	a2
 6f23bfb:	115266               	bnei	a2, 5, 6f23c10 <osExceptionHandler+0x28>
 6f23bfe:	90c112               	addi	a1, a1, -112
 6f23c01:	03d120               	rsr.excsave1	a2
 6f23c04:	126122               	s32i	a2, a1, 72
 6f23c07:	70c112               	addi	a1, a1, 112
 6f23c0a:	ffaa21               	l32r	a2, 6f23ab4 <_bss_table_end+0x10>
 6f23c0d:	0002a0               	jx	a2

06f23c10 <osExceptionHandler+0x28>:
 6f23c10:	ffaa21               	l32r	a2, 6f23ab8 <_bss_table_end+0x14>
 6f23c13:	0002a0               	jx	a2

06f23c16 <osExceptionHandler+0x2e>:
	...

06f23c18 <osStartToRun>:
 6f23c18:	006136               	entry	a1, 48
 6f23c1b:	308880               	xor	a8, a8, a8
 6f23c1e:	408020               	rotw	2
 6f23c21:	008d                	mov.n	a8, a0
 6f23c23:	408020               	rotw	2
 6f23c26:	008d                	mov.n	a8, a0
 6f23c28:	408020               	rotw	2
 6f23c2b:	408020               	rotw	2
 6f23c2e:	ffa3f1               	l32r	a15, 6f23abc <_bss_table_end+0x18>
 6f23c31:	f0cfe2               	addi	a14, a15, -16
 6f23c34:	0e89                	s32i.n	a8, a14, 0
 6f23c36:	1ef9                	s32i.n	a15, a14, 4
 6f23c38:	c0cfe2               	addi	a14, a15, -64
 6f23c3b:	0e89                	s32i.n	a8, a14, 0
 6f23c3d:	1ef9                	s32i.n	a15, a14, 4
 6f23c3f:	042c                	movi.n	a4, 32
 6f23c41:	03e630               	rsr.ps	a3
 6f23c44:	203340               	or	a3, a3, a4
 6f23c47:	13e630               	wsr.ps	a3
 6f23c4a:	002010               	rsync
 6f23c4d:	ff9ca1               	l32r	a10, 6f23ac0 <_bss_table_end+0x1c>
 6f23c50:	1a68                	l32i.n	a6, a10, 4
 6f23c52:	0a69                	s32i.n	a6, a10, 0
 6f23c54:	ff9c41               	l32r	a4, 6f23ac4 <_bss_table_end+0x20>
 6f23c57:	0004a0               	jx	a4

06f23c5a <osStartToRun+0x42>:
	...

06f23c5c <osUserHwiHandler>:
 6f23c5c:	00e136               	entry	a1, 112
 6f23c5f:	c149                	s32i.n	a4, a1, 48
 6f23c61:	d159                	s32i.n	a5, a1, 52
 6f23c63:	e169                	s32i.n	a6, a1, 56
 6f23c65:	f179                	s32i.n	a7, a1, 60
 6f23c67:	106182               	s32i	a8, a1, 64
 6f23c6a:	116192               	s32i	a9, a1, 68
 6f23c6d:	1261a2               	s32i	a10, a1, 72
 6f23c70:	1361b2               	s32i	a11, a1, 76
 6f23c73:	0303f0               	rsr.sar	a15
 6f23c76:	71f9                	s32i.n	a15, a1, 28
 6f23c78:	0304f0               	rsr.br	a15
 6f23c7b:	31f9                	s32i.n	a15, a1, 12
 6f23c7d:	0302f0               	rsr.lcount	a15
 6f23c80:	61f9                	s32i.n	a15, a1, 24
 6f23c82:	0300f0               	rsr.lbeg	a15
 6f23c85:	41f9                	s32i.n	a15, a1, 16
 6f23c87:	0301f0               	rsr.lend	a15
 6f23c8a:	51f9                	s32i.n	a15, a1, 20
 6f23c8c:	420c                	movi.n	a2, 4
 6f23c8e:	2129                	s32i.n	a2, a1, 8
 6f23c90:	0c0c                	movi.n	a12, 0
 6f23c92:	408030               	rotw	3
 6f23c95:	00cd                	mov.n	a12, a0
 6f23c97:	408030               	rotw	3
 6f23c9a:	077d                	mov.n	a7, a7
 6f23c9c:	408020               	rotw	2
 6f23c9f:	ff88e1               	l32r	a14, 6f23ac0 <_bss_table_end+0x1c>
 6f23ca2:	0ed8                	l32i.n	a13, a14, 0
 6f23ca4:	0d19                	s32i.n	a1, a13, 0
 6f23ca6:	ff8811               	l32r	a1, 6f23ac8 <_bss_table_end+0x24>

06f23ca9 <osHwiDispatcher>:
 6f23ca9:	ff8851               	l32r	a5, 6f23acc <_bss_table_end+0x28>
 6f23cac:	ff8941               	l32r	a4, 6f23ad0 <_bss_table_end+0x2c>
 6f23caf:	ff8971               	l32r	a7, 6f23ad4 <_bss_table_end+0x30>
 6f23cb2:	0768                	l32i.n	a6, a7, 0
 6f23cb4:	f61b                	addi.n	a15, a6, 1
 6f23cb6:	07f9                	s32i.n	a15, a7, 0

06f23cb8 <osIntHandlerBegin>:
 6f23cb8:	a04340               	addx4	a4, a3, a4
 6f23cbb:	0448                	l32i.n	a4, a4, 0
 6f23cbd:	03e2f0               	rsr.interrupt	a15
 6f23cc0:	03e4e0               	rsr.intenable	a14
 6f23cc3:	10ff40               	and	a15, a15, a4
 6f23cc6:	10ffe0               	and	a15, a15, a14
 6f23cc9:	03e680               	rsr.ps	a8
 6f23ccc:	ff8391               	l32r	a9, 6f23ad8 <_bss_table_end+0x34>
 6f23ccf:	fcc882               	addi	a8, a8, -4
 6f23cd2:	383a                	add.n	a3, a8, a3

06f23cd4 <_osIntScanLoop>:
 6f23cd4:	6080f0               	neg	a8, a15
 6f23cd7:	1088f0               	and	a8, a8, a15
 6f23cda:	13e380               	wsr.intclear	a8
 6f23cdd:	40f880               	nsau	a8, a8
 6f23ce0:	f71c                	movi.n	a7, 31
 6f23ce2:	c07780               	sub	a7, a7, a8
 6f23ce5:	a09790               	addx4	a9, a7, a9
 6f23ce8:	0978                	l32i.n	a7, a9, 0
 6f23cea:	771b                	addi.n	a7, a7, 1
 6f23cec:	0979                	s32i.n	a7, a9, 0
 6f23cee:	b0c850               	addx8	a12, a8, a5
 6f23cf1:	002c92               	l32i	a9, a12, 0
 6f23cf4:	012ca2               	l32i	a10, a12, 4
 6f23cf7:	13e630               	wsr.ps	a3
 6f23cfa:	002010               	rsync
 6f23cfd:	0009e0               	callx8	a9
 6f23d00:	006480               	rsil	a8, 4
 6f23d03:	03e2f0               	rsr.interrupt	a15
 6f23d06:	03e4e0               	rsr.intenable	a14
 6f23d09:	10ff40               	and	a15, a15, a4
 6f23d0c:	10ffe0               	and	a15, a15, a14
 6f23d0f:	fc1f56               	bnez	a15, 6f23cd4 <_osIntScanLoop>

06f23d12 <osIntHandlerEnd>:
 6f23d12:	ff7071               	l32r	a7, 6f23ad4 <_bss_table_end+0x30>
 6f23d15:	0769                	s32i.n	a6, a7, 0
 6f23d17:	ff7171               	l32r	a7, 6f23adc <_bss_table_end+0x38>

06f23d1a <osTickHandlerstart>:
 6f23d1a:	0768                	l32i.n	a6, a7, 0
 6f23d1c:	c6ac                	beqz.n	a6, 6f23d4c <osTaskContextSwitch>
 6f23d1e:	ff6d71               	l32r	a7, 6f23ad4 <_bss_table_end+0x30>
 6f23d21:	0768                	l32i.n	a6, a7, 0
 6f23d23:	01c6f2               	addi	a15, a6, 1
 6f23d26:	0067f2               	s32i	a15, a7, 0
 6f23d29:	ff6da1               	l32r	a10, 6f23ae0 <_bss_table_end+0x3c>
 6f23d2c:	0aa8                	l32i.n	a10, a10, 0
 6f23d2e:	0060b0               	rsil	a11, 0
 6f23d31:	000ae0               	callx8	a10
 6f23d34:	0064b0               	rsil	a11, 4
 6f23d37:	ff6971               	l32r	a7, 6f23adc <_bss_table_end+0x38>
 6f23d3a:	0768                	l32i.n	a6, a7, 0
 6f23d3c:	660b                	addi.n	a6, a6, -1
 6f23d3e:	0769                	s32i.n	a6, a7, 0
 6f23d40:	fe5656               	bnez	a6, 6f23d29 <osTickHandlerstart+0xf>
 6f23d43:	ff6481               	l32r	a8, 6f23ad4 <_bss_table_end+0x30>
 6f23d46:	08a8                	l32i.n	a10, a8, 0
 6f23d48:	aa0b                	addi.n	a10, a10, -1
 6f23d4a:	08a9                	s32i.n	a10, a8, 0

06f23d4c <osTaskContextSwitch>:
 6f23d4c:	ff5da1               	l32r	a10, 6f23ac0 <_bss_table_end+0x1c>
 6f23d4f:	0a68                	l32i.n	a6, a10, 0
 6f23d51:	ff6451               	l32r	a5, 6f23ae4 <_bss_table_end+0x40>
 6f23d54:	0025b2               	l32i	a11, a5, 0
 6f23d57:	9bec                	bnez.n	a11, 6f23d84 <osSwitchModeCheck>
 6f23d59:	ff6371               	l32r	a7, 6f23ae8 <_bss_table_end+0x44>
 6f23d5c:	002772               	l32i	a7, a7, 0
 6f23d5f:	0007e0               	callx8	a7
 6f23d62:	067d                	mov.n	a7, a6

06f23d64 <osSwitchToNewTask>:
 6f23d64:	ff5721               	l32r	a2, 6f23ac0 <_bss_table_end+0x1c>
 6f23d67:	224b                	addi.n	a2, a2, 4
 6f23d69:	0b1c                	movi.n	a11, 16
 6f23d6b:	021732               	l16ui	a3, a7, 4
 6f23d6e:	3033b0               	xor	a3, a3, a11
 6f23d71:	025732               	s16i	a3, a7, 4
 6f23d74:	0268                	l32i.n	a6, a2, 0
 6f23d76:	021642               	l16ui	a4, a6, 4
 6f23d79:	ff51a1               	l32r	a10, 6f23ac0 <_bss_table_end+0x1c>
 6f23d7c:	0a69                	s32i.n	a6, a10, 0
 6f23d7e:	2044b0               	or	a4, a4, a11
 6f23d81:	025642               	s16i	a4, a6, 4

06f23d84 <osSwitchModeCheck>:
 6f23d84:	ff5a41               	l32r	a4, 6f23aec <_bss_table_end+0x48>
 6f23d87:	0618                	l32i.n	a1, a6, 0
 6f23d89:	0458                	l32i.n	a5, a4, 0
 6f23d8b:	020c                	movi.n	a2, 0
 6f23d8d:	230c                	movi.n	a3, 2
 6f23d8f:	2178                	l32i.n	a7, a1, 8
 6f23d91:	c05560               	sub	a5, a5, a6
 6f23d94:	c0c772               	addi	a7, a7, -64
 6f23d97:	832350               	moveqz	a2, a3, a5
 6f23d9a:	157716               	beqz	a7, 6f23ef5 <osFastContextLoad>
 6f23d9d:	0037c6               	j	6f23e80 <osThrdContextLoad>

06f23da0 <osKernelHwiHandler>:
 6f23da0:	00e136               	entry	a1, 112
 6f23da3:	c149                	s32i.n	a4, a1, 48
 6f23da5:	d159                	s32i.n	a5, a1, 52
 6f23da7:	e169                	s32i.n	a6, a1, 56
 6f23da9:	f179                	s32i.n	a7, a1, 60
 6f23dab:	106182               	s32i	a8, a1, 64
 6f23dae:	116192               	s32i	a9, a1, 68
 6f23db1:	1261a2               	s32i	a10, a1, 72
 6f23db4:	1361b2               	s32i	a11, a1, 76
 6f23db7:	0303f0               	rsr.sar	a15
 6f23dba:	71f9                	s32i.n	a15, a1, 28
 6f23dbc:	0304f0               	rsr.br	a15
 6f23dbf:	31f9                	s32i.n	a15, a1, 12
 6f23dc1:	0302f0               	rsr.lcount	a15
 6f23dc4:	61f9                	s32i.n	a15, a1, 24
 6f23dc6:	0300f0               	rsr.lbeg	a15
 6f23dc9:	41f9                	s32i.n	a15, a1, 16
 6f23dcb:	0301f0               	rsr.lend	a15
 6f23dce:	51f9                	s32i.n	a15, a1, 20
 6f23dd0:	420c                	movi.n	a2, 4
 6f23dd2:	2129                	s32i.n	a2, a1, 8

06f23dd4 <osKnlHwiDispatcher>:
 6f23dd4:	ff3e51               	l32r	a5, 6f23acc <_bss_table_end+0x28>
 6f23dd7:	ff3f71               	l32r	a7, 6f23ad4 <_bss_table_end+0x30>
 6f23dda:	0768                	l32i.n	a6, a7, 0
 6f23ddc:	f61b                	addi.n	a15, a6, 1
 6f23dde:	07f9                	s32i.n	a15, a7, 0

06f23de0 <osKnlIntHandlerBegin>:
 6f23de0:	ff3c41               	l32r	a4, 6f23ad0 <_bss_table_end+0x2c>
 6f23de3:	a04340               	addx4	a4, a3, a4
 6f23de6:	0448                	l32i.n	a4, a4, 0
 6f23de8:	03e2f0               	rsr.interrupt	a15
 6f23deb:	03e4e0               	rsr.intenable	a14
 6f23dee:	10ff40               	and	a15, a15, a4
 6f23df1:	10ffe0               	and	a15, a15, a14
 6f23df4:	ff3fa1               	l32r	a10, 6f23af0 <_bss_table_end+0x4c>
 6f23df7:	03e680               	rsr.ps	a8
 6f23dfa:	fcc882               	addi	a8, a8, -4
 6f23dfd:	383a                	add.n	a3, a8, a3
 6f23dff:	0a6a                	add.n	a0, a10, a6

06f23e01 <_osKnlIntScanLoop>:
 6f23e01:	6080f0               	neg	a8, a15
 6f23e04:	1088f0               	and	a8, a8, a15
 6f23e07:	13e380               	wsr.intclear	a8
 6f23e0a:	40f880               	nsau	a8, a8
 6f23e0d:	004082               	s8i	a8, a0, 0
 6f23e10:	b0c850               	addx8	a12, a8, a5
 6f23e13:	0c98                	l32i.n	a9, a12, 0
 6f23e15:	1ca8                	l32i.n	a10, a12, 4
 6f23e17:	13e630               	wsr.ps	a3
 6f23e1a:	002010               	rsync
 6f23e1d:	0009e0               	callx8	a9
 6f23e20:	006480               	rsil	a8, 4
 6f23e23:	03e2f0               	rsr.interrupt	a15
 6f23e26:	03e4e0               	rsr.intenable	a14
 6f23e29:	10ff40               	and	a15, a15, a4
 6f23e2c:	10ffe0               	and	a15, a15, a14
 6f23e2f:	fcef56               	bnez	a15, 6f23e01 <_osKnlIntScanLoop>

06f23e32 <osKnlIntHandlerEnd>:
 6f23e32:	ff2871               	l32r	a7, 6f23ad4 <_bss_table_end+0x30>
 6f23e35:	0769                	s32i.n	a6, a7, 0
 6f23e37:	045656               	bnez	a6, 6f23e80 <osThrdContextLoad>
 6f23e3a:	ff2871               	l32r	a7, 6f23adc <_bss_table_end+0x38>

06f23e3d <osKnlTickHandler>:
 6f23e3d:	0768                	l32i.n	a6, a7, 0
 6f23e3f:	e6ac                	beqz.n	a6, 6f23e71 <osKnlCpOwnerCheck>
 6f23e41:	ff2471               	l32r	a7, 6f23ad4 <_bss_table_end+0x30>
 6f23e44:	002762               	l32i	a6, a7, 0
 6f23e47:	01c6f2               	addi	a15, a6, 1
 6f23e4a:	0067f2               	s32i	a15, a7, 0
 6f23e4d:	ff24a1               	l32r	a10, 6f23ae0 <_bss_table_end+0x3c>
 6f23e50:	0aa8                	l32i.n	a10, a10, 0
 6f23e52:	0060b0               	rsil	a11, 0
 6f23e55:	000ae0               	callx8	a10
 6f23e58:	0064b0               	rsil	a11, 4
 6f23e5b:	ff2071               	l32r	a7, 6f23adc <_bss_table_end+0x38>
 6f23e5e:	0768                	l32i.n	a6, a7, 0
 6f23e60:	660b                	addi.n	a6, a6, -1
 6f23e62:	0769                	s32i.n	a6, a7, 0
 6f23e64:	fe5656               	bnez	a6, 6f23e4d <osKnlTickHandler+0x10>
 6f23e67:	ff1b81               	l32r	a8, 6f23ad4 <_bss_table_end+0x30>
 6f23e6a:	08a8                	l32i.n	a10, a8, 0
 6f23e6c:	aa0b                	addi.n	a10, a10, -1
 6f23e6e:	0068a2               	s32i	a10, a8, 0

06f23e71 <osKnlCpOwnerCheck>:
 6f23e71:	ff1e41               	l32r	a4, 6f23aec <_bss_table_end+0x48>
 6f23e74:	0458                	l32i.n	a5, a4, 0
 6f23e76:	060c                	movi.n	a6, 0
 6f23e78:	270c                	movi.n	a7, 2
 6f23e7a:	c05530               	sub	a5, a5, a3
 6f23e7d:	836750               	moveqz	a6, a7, a5

06f23e80 <osThrdContextLoad>:
 6f23e80:	c148                	l32i.n	a4, a1, 48
 6f23e82:	d158                	l32i.n	a5, a1, 52
 6f23e84:	e168                	l32i.n	a6, a1, 56
 6f23e86:	f178                	l32i.n	a7, a1, 60
 6f23e88:	102182               	l32i	a8, a1, 64
 6f23e8b:	112192               	l32i	a9, a1, 68
 6f23e8e:	1221a2               	l32i	a10, a1, 72
 6f23e91:	1321b2               	l32i	a11, a1, 76
 6f23e94:	31f8                	l32i.n	a15, a1, 12
 6f23e96:	ff17e1               	l32r	a14, 6f23af4 <_bss_table_end+0x50>
 6f23e99:	ff1701               	l32r	a0, 6f23af8 <_bss_table_end+0x54>
 6f23e9c:	1304f0               	wsr.br	a15
 6f23e9f:	71c8                	l32i.n	a12, a1, 28
 6f23ea1:	61d8                	l32i.n	a13, a1, 24
 6f23ea3:	51f8                	l32i.n	a15, a1, 20
 6f23ea5:	200e00               	or	a0, a14, a0
 6f23ea8:	900e00               	addx2	a0, a14, a0
 6f23eab:	41e8                	l32i.n	a14, a1, 16
 6f23ead:	1303c0               	wsr.sar	a12
 6f23eb0:	1302d0               	wsr.lcount	a13
 6f23eb3:	1300e0               	wsr.lbeg	a14
 6f23eb6:	1301f0               	wsr.lend	a15
 6f23eb9:	f01d                	retw.n

06f23ebb <osReturnFromExc>:
 6f23ebb:	0548                	l32i.n	a4, a5, 0
 6f23ebd:	1578                	l32i.n	a7, a5, 4
 6f23ebf:	061c                	movi.n	a6, 16
 6f23ec1:	13b140               	wsr.epc1	a4
 6f23ec4:	207760               	or	a7, a7, a6
 6f23ec7:	13e670               	wsr.ps	a7
 6f23eca:	002010               	rsync
 6f23ecd:	8548                	l32i.n	a4, a5, 32
 6f23ecf:	a568                	l32i.n	a6, a5, 40
 6f23ed1:	b578                	l32i.n	a7, a5, 44
 6f23ed3:	9558                	l32i.n	a5, a5, 36
 6f23ed5:	003000               	rfe

06f23ed8 <osFastTaskSwitch>:
 6f23ed8:	e0c112               	addi	a1, a1, -32
 6f23edb:	030430               	rsr.br	a3
 6f23ede:	0109                	s32i.n	a0, a1, 0
 6f23ee0:	11e9                	s32i.n	a14, a1, 4
 6f23ee2:	fef7a1               	l32r	a10, 6f23ac0 <_bss_table_end+0x1c>
 6f23ee5:	3139                	s32i.n	a3, a1, 12
 6f23ee7:	034c                	movi.n	a3, 64
 6f23ee9:	0a78                	l32i.n	a7, a10, 0
 6f23eeb:	2139                	s32i.n	a3, a1, 8
 6f23eed:	0719                	s32i.n	a1, a7, 0
 6f23eef:	fef611               	l32r	a1, 6f23ac8 <_bss_table_end+0x24>
 6f23ef2:	ff9b86               	j	6f23d64 <osSwitchToNewTask>

06f23ef5 <osFastContextLoad>:
 6f23ef5:	3128                	l32i.n	a2, a1, 12
 6f23ef7:	0108                	l32i.n	a0, a1, 0
 6f23ef9:	130420               	wsr.br	a2
 6f23efc:	1138                	l32i.n	a3, a1, 4
 6f23efe:	020c                	movi.n	a2, 0
 6f23f00:	20c112               	addi	a1, a1, 32
 6f23f03:	13e630               	wsr.ps	a3
 6f23f06:	002010               	rsync
 6f23f09:	f01d                	retw.n

06f23f0b <osFastContextLoad+0x16>:
	...

06f23f0c <osCpExcHandler>:
 6f23f0c:	003000               	rfe

06f23f0f <osCpExcHandler+0x3>:
	...

06f23f10 <osExceptionContextSave>:
 6f23f10:	fefb21               	l32r	a2, 6f23afc <_bss_table_end+0x58>
 6f23f13:	0209                	s32i.n	a0, a2, 0
 6f23f15:	1219                	s32i.n	a1, a2, 4
 6f23f17:	03d110               	rsr.excsave1	a1
 6f23f1a:	2219                	s32i.n	a1, a2, 8
 6f23f1c:	3239                	s32i.n	a3, a2, 12
 6f23f1e:	4249                	s32i.n	a4, a2, 16
 6f23f20:	5259                	s32i.n	a5, a2, 20
 6f23f22:	6269                	s32i.n	a6, a2, 24
 6f23f24:	7279                	s32i.n	a7, a2, 28
 6f23f26:	8289                	s32i.n	a8, a2, 32
 6f23f28:	9299                	s32i.n	a9, a2, 36
 6f23f2a:	a2a9                	s32i.n	a10, a2, 40
 6f23f2c:	b2b9                	s32i.n	a11, a2, 44
 6f23f2e:	c2c9                	s32i.n	a12, a2, 48
 6f23f30:	d2d9                	s32i.n	a13, a2, 52
 6f23f32:	e2e9                	s32i.n	a14, a2, 56
 6f23f34:	f2f9                	s32i.n	a15, a2, 60
 6f23f36:	03e630               	rsr.ps	a3
 6f23f39:	106232               	s32i	a3, a2, 64
 6f23f3c:	03e830               	rsr.exccause	a3
 6f23f3f:	126232               	s32i	a3, a2, 72
 6f23f42:	03b130               	rsr.epc1	a3
 6f23f45:	116232               	s32i	a3, a2, 68
 6f23f48:	030030               	rsr.lbeg	a3
 6f23f4b:	146232               	s32i	a3, a2, 80
 6f23f4e:	030130               	rsr.lend	a3
 6f23f51:	156232               	s32i	a3, a2, 84
 6f23f54:	030230               	rsr.lcount	a3
 6f23f57:	166232               	s32i	a3, a2, 88
 6f23f5a:	034820               	rsr.windowbase	a2
 6f23f5d:	03e630               	rsr.ps	a3
 6f23f60:	fee841               	l32r	a4, 6f23b00 <_bss_table_end+0x5c>
 6f23f63:	103340               	and	a3, a3, a4
 6f23f66:	413830               	srli	a3, a3, 8
 6f23f69:	131237               	beq	a2, a3, 6f23f80 <osExceptionContextSave+0x70>
 6f23f6c:	00cd                	mov.n	a12, a0
 6f23f6e:	408030               	rotw	3
 6f23f71:	00cd                	mov.n	a12, a0
 6f23f73:	408030               	rotw	3
 6f23f76:	007d                	mov.n	a7, a0
 6f23f78:	408020               	rotw	2
 6f23f7b:	000a46               	j	6f23fa8 <rotw0+0xd>

06f23f7e <osExceptionContextSave+0x6e>:
	...

06f23f80 <osExceptionContextSave+0x70>:
 6f23f80:	03e620               	rsr.ps	a2
 6f23f83:	fee031               	l32r	a3, 6f23b04 <_bss_table_end+0x60>
 6f23f86:	102230               	and	a2, a2, a3
 6f23f89:	f52020               	extui	a2, a2, 16, 16
 6f23f8c:	052266               	bnei	a2, 2, 6f23f95 <rotw1>
 6f23f8f:	4080e0               	rotw	-2
 6f23f92:	000146               	j	6f23f9b <rotw0>

06f23f95 <rotw1>:
 6f23f95:	021266               	bnei	a2, 1, 6f23f9b <rotw0>
 6f23f98:	4080f0               	rotw	-1

06f23f9b <rotw0>:
 6f23f9b:	fed821               	l32r	a2, 6f23afc <_bss_table_end+0x58>
 6f23f9e:	1228                	l32i.n	a2, a2, 4
 6f23fa0:	f0c222               	addi	a2, a2, -16
 6f23fa3:	0209                	s32i.n	a0, a2, 0
 6f23fa5:	016212               	s32i	a1, a2, 4

06f23fa8 <rotw0+0xd>:
 6f23fa8:	fed821               	l32r	a2, 6f23b08 <_bss_table_end+0x64>
 6f23fab:	13e620               	wsr.ps	a2
 6f23fae:	020c                	movi.n	a2, 0
 6f23fb0:	134820               	wsr.windowbase	a2
 6f23fb3:	120c                	movi.n	a2, 1
 6f23fb5:	134920               	wsr.windowstart	a2
 6f23fb8:	fed511               	l32r	a1, 6f23b0c <_bss_table_end+0x68>
 6f23fbb:	13b110               	wsr.epc1	a1
 6f23fbe:	fed451               	l32r	a5, 6f23b10 <_bss_table_end+0x6c>
 6f23fc1:	10d552               	addmi	a5, a5, 0x1000
 6f23fc4:	027c                	movi.n	a2, -16
 6f23fc6:	105520               	and	a5, a5, a2
 6f23fc9:	e0c552               	addi	a5, a5, -32
 6f23fcc:	051d                	mov.n	a1, a5
 6f23fce:	fecb61               	l32r	a6, 6f23afc <_bss_table_end+0x58>
 6f23fd1:	003000               	rfe

Disassembly of section .text:

06f23fe0 <_stext>:
 6f23fe0:	06f249bc 06f3bab0 07f00000 00040020     .I.......... ...
 6f23ff0:	00000000 06f23a9c 06f23aa4 06f4d4a8     .....:...:......
 6f24000:	06f4d4a0 06f4d4a4 06f248e4 06f3c3c8     .........H......
 6f24010:	06f4e440 06f4d4b0 00000000 06f23a50     @...........P:..
 6f24020:	00000000 06f4e444 06f4e424 00000000     ....D...$.......
 6f24030:	002625a0 06f4e45c f8cdf010 f9868f00     .%&.\...........
 6f24040:	06f22d10 06f22d78 3fffffff 06f22d94     .-..x-.....?.-..
 6f24050:	06f22d24 06f22d28 06f22d2c 06f22d30     $-..(-..,-..0-..
 6f24060:	06f22d34 06f22d38 06f22d3c 06f22d40     4-..8-..<-..@-..
 6f24070:	06f22d44 06f22d48 06f22d4c 06f22d50     D-..H-..L-..P-..
 6f24080:	06f22d54 06f22da0 06f4d4b8 06f22d60     T-...-......`-..
 6f24090:	06f22db4 06f22dc4 0002ee00 06f4d4c0     .-...-..........
 6f240a0:	06f4d500 00007fff 06f4e464 06f256c8     ........d....V..
 6f240b0:	06f22dd4 06f22df8 06f00444 ffff0000     .-...-..D.......
 6f240c0:	ffffb000 06f4d34c 007fffff 06f4d344     ....L.......D...
 6f240d0:	7fffffff 80000000 00013c68 06f4d540     ........h<..@...
 6f240e0:	3c6ef35f 06f4e4a0 06f00758 ffefffff     _.n<....X.......
 6f240f0:	00100000 000fffff 0007ffff 06f00740     ............@...
 6f24100:	01ffffff 00ffffff 06f01440 00000cbc     ........@.......
 6f24110:	06f00780 06f01a50 00000a08 06f4e4e0     ....P...........
 6f24120:	06f287d0 06f4e520 06f02458 00046500     .... ...X$...e..
 6f24130:	0000bb80 0001ffff 00000f9f 06f0246c     ............l$..
 6f24140:	06f02474 00001800 00007d00 00017700     t$.......}...w..
 6f24150:	00006000 00003e80 00005dc0 00002b11     .`...>...]...+..
 6f24160:	00002ee0 00001f40 00015888 0000ac44     ....@....X..D...
 6f24170:	00005622 0002b110 1fffffff 001fffff     "V..............
 6f24180:	ff01ffff fc00ffff 03ff0000 00007900     .............y..
 6f24190:	ffffc7ff ffff80ff 00002800 06f4e560     .........(..`...
 6f241a0:	06f02484 06f2a1d8 06f4e590 f9868000     .$..............
 6f241b0:	00000b00 0000f000 a5a5a5a5 06f4e59c     ................
 6f241c0:	ffff0fff 00000800 00004800 06f4d6d0     .........H......
 6f241d0:	06f4e5b4 f9868b00 ff0fffff 00480000     ..............H.
 6f241e0:	00080000 06f4e5c4 fdffffff 6b49d5e7     ..............Ik
 6f241f0:	80008000 80001003 feffffff 01000000     ................
 6f24200:	00002710 0fffffff 06f024b0 fbffffff     .'.......$......
 6f24210:	04000000 e000ffff f7ffffff 08000000     ................
 6f24220:	0003ffff 06f4d710 00004100 80000001     .........A......
 6f24230:	80000003 80000002 80000005 80000008     ................
 6f24240:	80000006 06f50688 06f22e1c 06f50648     ............H...
 6f24250:	06f50664 070a0aa0 06f506c8 02000701     d...............
 6f24260:	06f506b0 02001d07 02001d04 02001d05     ................
 6f24270:	02001d01 06f506b4 02000611 02000609     ................
 6f24280:	02000607 02000616 0200060e 02000618     ................
 6f24290:	0200061d 02000619 0200061a 0200061b     ................
 6f242a0:	02001c01 02001c06 02001c02 02001c05     ................
 6f242b0:	02001c03 06f4e62c 06f4e5f4 06f4dad0     ....,...........
 6f242c0:	06f22e2c 06f22e48 06f22e64 06f22e30     ,...H...d...0...
 6f242d0:	06f4e600 02000707 02001d09 02000613     ................
 6f242e0:	02000704 02000706 02000211 02000603     ................
 6f242f0:	02001d02 02000203 02000207 02000709     ................
 6f24300:	02000703 02000201 02000708 02000220     ............ ...
 6f24310:	02001d06 02001d03 02000705 03000200     ................
 6f24320:	0000fff7 0000ffbf 06f50678 0000fffb     ........x.......
 6f24330:	02000309 06f22e74 06f506cc 06f4e618     ....t...........
 6f24340:	06f4e620 06f2e7f0 06f22eb0 06f50680      ...............
 6f24350:	00008000 02000307 06f4e630 0000200c     ........0.... ..
 6f24360:	0200030a 06f4e624 0200030b 0200030c     ....$...........
 6f24370:	0000f7ff 02000302 02000304 02000301     ................
 6f24380:	02000300 02000303 0000fbff 02000305     ................
 6f24390:	0200030e 02000306 0200030d 02000310     ................
 6f243a0:	06f4e418 00001388 02000010 408f4000     .............@.@
 6f243b0:	412e8480 06f5063c f8000000 07ffffff     ...A<...........
 6f243c0:	0000dfff 0000ffdf 06f5065c 06f2ee98     ........\.......
 6f243d0:	06f22ebc 06f5066c 00002008 0000fffd     ....l.... ......
 6f243e0:	06f50700 cccccccc 06f22ec8 06f22ed0     ................
 6f243f0:	06f22ef8 06f22f1c 06f2f310 06f22f50     ...../......P/..
 6f24400:	00150000 06f506d0 02000206 02000205     ................
 6f24410:	02000204 0200020a 02000209 0000242a     ............*$..
 6f24420:	02000214 02000221 02000208 03000215     ....!...........
 6f24430:	0300020b 06f50654 0300020d 0200020e     ....T...........
 6f24440:	0000ffff 02000210 cacacaca 06f506a0     ................
 6f24450:	02001c04 02001c00 00005000 06f506a8     .........P......
 6f24460:	02001d00 06f22f70 a1b2c3f8 06f22ec8     ....p/..........
 6f24470:	06f22f84 0000b000 02000601 06f506b8     ./..............
 6f24480:	0200060d 02000602 02000604 0200060c     ................
 6f24490:	0200061f 0200060f 02000610 0200061c     ................
 6f244a0:	02000606 00002000 02000615 02000612     ..... ..........
 6f244b0:	02000614 0200060a 02000608 0200060b     ................
 6f244c0:	02000605 02000617 00004000 06f506c0     .........@......
 6f244d0:	02000700 0000fffe 06f22f70 02000702     ........p/......
 6f244e0:	06f22ec8 06f22fa8 06f22fcc 06f4e420     ...../.../.. ...
 6f244f0:	06f4dad4 06f22ec8 06f22ff0 06f20a50     ........./..P...
 6f24500:	06f20a80 06f20a90 06f23060 06f23128     ........`0..(1..
 6f24510:	06f50644 06f231a4 06f230c4 06f23178     D....1...0..x1..
 6f24520:	06f23154 06f22ff8 06f231e8 06f23258     T1.../...1..X2..
 6f24530:	06f20a60 80000010 40000000 bfffffff     `..........@....
 6f24540:	06f232d0 06f23294 0014fff0 0014fe00     .2...2..........
 6f24550:	06f20ab0 06f23300 06f23418 06f20ad0     .....3...4......
 6f24560:	06f2343c 06f23460 06f234ac 06f234c0     <4..`4...4...4..
 6f24570:	06f234c8 06f234dc 06f234e4 06f234f8     .4...4...4...4..
 6f24580:	06f506e0 06f506f8 02001e00 06f4e41c     ................
 6f24590:	02001e02 02001e05 02001e04 02001e03     ................
 6f245a0:	02001e01 06f32ac0 070a0a80 06f22ec8     .....*..........
 6f245b0:	06f23544 070a0a40 06f23560 06f5067c     D5..@...`5..|...
 6f245c0:	06f2357c 06f23590 06f50740 06f3c400     |5...5..@.......
 6f245d0:	06f235a4 06f235c8 06f235e8 06f2360c     .5...5...5...6..
 6f245e0:	06f2361c 06f22d54 06f23630 06f2363c     .6..T-..06..<6..
 6f245f0:	06f32cbc 06f23660 06f24a28 06f2366c     .,..`6..(J..l6..
 6f24600:	06f2367c 20000000 60000000 a0000000     |6..... ...`....
 6f24610:	c0000000 e0000000 06f23698 049fffff     .........6......
 6f24620:	009fffff 04a00000 06f236b4 06f236e0     .........6...6..
 6f24630:	06f236c4 06f236ec 06f23704 06f236d4     .6...6...7...6..
 6f24640:	070a0740 06f4c400 1dcd6500 06f23720     @........e.. 7..
 6f24650:	06f23730 070a0bc0 06f23748 070a0a84     07......H7......
 6f24660:	02000400 06f50698 06f5069c 06f2fcc0     ................
 6f24670:	06f32ed0 06f23754 00070004 06f23ed8     ....T7.......>..
 6f24680:	06f4dae0 06f2f3c0 00050030 06f22f70     ........0...p/..
 6f24690:	02000908 02000900 070a0ab0 06f331ac     .............1..
 6f246a0:	02000904 02000901 06f23768 06f23774     ........h7..t7..
 6f246b0:	f9867fff f8cdefff f9877fff 06efffff     ................
 6f246c0:	06f23784 f97defff 07efffff 06f23798     .7....}......7..
 6f246d0:	06f237e0 06f23828 06f23858 06f23868     .7..(8..X8..h8..
 6f246e0:	06f23890 06f238b8 06f238e0 06f2390c     .8...8...8...9..
 6f246f0:	06f23920 06f23990 06f23964 06f23980      9...9..d9...9..
 6f24700:	06f23948 06f239a8 06f239d0 f8b00000     H9...9...9......
 6f24710:	00001b98 00001b97 53524349 00001280     ........ICRS....
 6f24720:	00001370 06f20af4 000012f8 06f20bc8     p...............
 6f24730:	3c81b7f4 00001b7c 00001b74 00001b84     ...<|...t.......
 6f24740:	00001b8a 09300080 000eb334 06f22740     ......0.4...@'..
 6f24750:	06f20da0 0000324c 00001184 00001b78     ....L2......x...
 6f24760:	00001b70 00001b80 00001b88 7ff00000     p...............
 6f24770:	070a0c48 06f4db30 06f22880 06f4df60     H...0....(..`...
 6f24780:	06f4df80 06f4df70 070a0c50 fffff000     ....p...P.......
 6f24790:	80808080 fefefeff 0000ff00 00ff0000     ................
 6f247a0:	ff000000 06f22890 ffffdfff 06f228a0     .....(.......(..
 6f247b0:	06f228c0 06f23a00 06f23a1c 06f23a30     .(...:...:..0:..
 6f247c0:	06f23a14 06f239f8 06f239fc 06f239f0     .:...9...9...9..
 6f247d0:	06f239f4 06f34464 0000270f 06f23a40     .9..dD...'..@:..
 6f247e0:	06f23a30 3ff00000 bff80000 3fd287a7     0:.....?.......?
 6f247f0:	636f4361 3fd34413 509f79fb 3fc68a28     aCoc.D.?.y.P(..?
 6f24800:	8b60c8b3 06f22a30 06f23a34 40240000     ..`.0*..4:....$@
 6f24810:	06f22b30 401c0000 fcc00000 3fe00000     0+.....@.......?
 6f24820:	06f22830 fe100000 40140000 c0140000     0(.........@....
 6f24830:	fffff7ff 06f37c54 06f3a2c4 06f37d70     ....T|......p}..
 6f24840:	06f38ea0 06f38e68 06f38e2c 06f38df0     ....h...,.......
 6f24850:	06f37e88 06f37e90 06f4df74 00001000     .~...~..t.......
 6f24860:	070a0c54 06f23a44 06f239ec 06f23864     T...D:...9..d8..
 6f24870:	06f4e3d0 06f4e390 06f4e3f0 070a0c84     ................
 6f24880:	06f4e394 06f22960 03400000 7fefffff     ....`)....@.....
 6f24890:	800fffff fff00000 ffffefff 000000ff     ................
 6f248a0:	40404040 06f22b70 06f22b90 06f23a00     @@@@p+...+...:..
 6f248b0:	06f23a1c 06f23a14 0000fb7f 06f4e410     .:...:..........
 6f248c0:	070a0c94 06f4e414 070a0db0 070a0ca0     ................
 6f248d0:	06f22d00 06f3aed4 06f23890 06f23a8c     .-.......8...:..
 6f248e0:	06f24980                                .I..

06f248e4 <_init>:
 6f248e4:	008136               	entry	a1, 64
 6f248e7:	fdbe81               	l32r	a8, 6f23fe0 <_stext>
 6f248ea:	f03d                	nop.n
 6f248ec:	0008e0               	callx8	a8
 6f248ef:	fdbd81               	l32r	a8, 6f23fe4 <_stext+0x4>
 6f248f2:	f03d                	nop.n
 6f248f4:	0008e0               	callx8	a8
 6f248f7:	f01d                	retw.n

06f248f9 <_init+0x15>:
 6f248f9:	00000000 02000000                                .......

06f24900 <_start>:
 6f24900:	00a002               	movi	a0, 0
 6f24903:	fdb911               	l32r	a1, 6f23fe8 <_stext+0x8>
 6f24906:	fdb931               	l32r	a3, 6f23fec <_stext+0xc>
 6f24909:	f03d                	nop.n
 6f2490b:	13e630               	wsr.ps	a3
 6f2490e:	002010               	rsync
 6f24911:	fdb741               	l32r	a4, 6f23ff0 <_stext+0x10>
 6f24914:	002416               	beqz	a4, 6f2491a <_start+0x1a>
 6f24917:	0004d0               	callx4	a4

06f2491a <_start+0x1a>:
 6f2491a:	fdb661               	l32r	a6, 6f23ff4 <_stext+0x14>
 6f2491d:	fdb671               	l32r	a7, 6f23ff8 <_stext+0x18>
 6f24920:	2cb677               	bgeu	a6, a7, 6f24950 <_start+0x50>
 6f24923:	0688                	l32i.n	a8, a6, 0
 6f24925:	1698                	l32i.n	a9, a6, 4
 6f24927:	668b                	addi.n	a6, a6, 8
 6f24929:	c0a980               	sub	a10, a9, a8
 6f2492c:	036a27               	bbci	a10, 2, 6f24933 <_start+0x33>
 6f2492f:	0809                	s32i.n	a0, a8, 0
 6f24931:	884b                	addi.n	a8, a8, 4
 6f24933:	056a37               	bbci	a10, 3, 6f2493c <_start+0x3c>
 6f24936:	0809                	s32i.n	a0, a8, 0
 6f24938:	1809                	s32i.n	a0, a8, 4
 6f2493a:	888b                	addi.n	a8, a8, 8
 6f2493c:	41a4a0               	srli	a10, a10, 4
 6f2493f:	0a9a76               	loopnez	a10, 6f2494d <_start+0x4d>
 6f24942:	0809                	s32i.n	a0, a8, 0
 6f24944:	1809                	s32i.n	a0, a8, 4
 6f24946:	2809                	s32i.n	a0, a8, 8
 6f24948:	3809                	s32i.n	a0, a8, 12
 6f2494a:	10c882               	addi	a8, a8, 16

06f2494d <_start+0x4d>:
 6f2494d:	d23677               	bltu	a6, a7, 6f24923 <_start+0x23>

06f24950 <_start+0x50>:
 6f24950:	179a55               	call4	6f3c2f8 <board_init>
 6f24953:	fdaa61               	l32r	a6, 6f23ffc <_stext+0x1c>
 6f24956:	fdaa71               	l32r	a7, 6f24000 <_stext+0x20>
 6f24959:	fdaa81               	l32r	a8, 6f24004 <_stext+0x24>
 6f2495c:	fdab91               	l32r	a9, 6f24008 <_stext+0x28>
 6f2495f:	fdaba1               	l32r	a10, 6f2400c <_stext+0x2c>
 6f24962:	002662               	l32i	a6, a6, 0
 6f24965:	0faa15               	call4	6f34408 <__clibrary_init>
 6f24968:	fda561               	l32r	a6, 6f23ffc <_stext+0x1c>
 6f2496b:	fda571               	l32r	a7, 6f24000 <_stext+0x20>
 6f2496e:	fda581               	l32r	a8, 6f24004 <_stext+0x24>
 6f24971:	0668                	l32i.n	a6, a6, 0
 6f24973:	0e2795               	call4	6f32bec <main>
 6f24976:	0fab95               	call4	6f34430 <exit>

06f24979 <_start+0x79>:
 6f24979:	00000000 36000000                                .......

06f24980 <__do_global_dtors_aux>:
 6f24980:	004136               	entry	a1, 32
 6f24983:	fda331               	l32r	a3, 6f24010 <_stext+0x30>
 6f24986:	000382               	l8ui	a8, a3, 0
 6f24989:	d8ec                	bnez.n	a8, 6f249ba <__do_global_dtors_aux+0x3a>
 6f2498b:	fda221               	l32r	a2, 6f24014 <_stext+0x34>
 6f2498e:	02b8                	l32i.n	a11, a2, 0
 6f24990:	0ba8                	l32i.n	a10, a11, 0
 6f24992:	ca8c                	beqz.n	a10, 6f249a2 <__do_global_dtors_aux+0x22>

06f24994 <__do_global_dtors_aux+0x14>:
 6f24994:	9b4b                	addi.n	a9, a11, 4
 6f24996:	0299                	s32i.n	a9, a2, 0
 6f24998:	000ae0               	callx8	a10
 6f2499b:	02b8                	l32i.n	a11, a2, 0
 6f2499d:	0ba8                	l32i.n	a10, a11, 0
 6f2499f:	ff1a56               	bnez	a10, 6f24994 <__do_global_dtors_aux+0x14>
 6f249a2:	fd9da1               	l32r	a10, 6f24018 <_stext+0x38>
 6f249a5:	0b0c                	movi.n	a11, 0
 6f249a7:	081ab7               	beq	a10, a11, 6f249b3 <__do_global_dtors_aux+0x33>
 6f249aa:	fd9ca1               	l32r	a10, 6f2401c <_stext+0x3c>
 6f249ad:	fd9a81               	l32r	a8, 6f24018 <_stext+0x38>
 6f249b0:	0008e0               	callx8	a8
 6f249b3:	1c0c                	movi.n	a12, 1
 6f249b5:	0043c2               	s8i	a12, a3, 0
 6f249b8:	f01d                	retw.n

06f249ba <__do_global_dtors_aux+0x3a>:
 6f249ba:	f01d                	retw.n

06f249bc <frame_dummy>:
 6f249bc:	004136               	entry	a1, 32
 6f249bf:	fd9881               	l32r	a8, 6f24020 <_stext+0x40>
 6f249c2:	090c                	movi.n	a9, 0
 6f249c4:	0b1897               	beq	a8, a9, 6f249d3 <frame_dummy+0x17>
 6f249c7:	fd95a1               	l32r	a10, 6f2401c <_stext+0x3c>
 6f249ca:	fd96b1               	l32r	a11, 6f24024 <_stext+0x44>
 6f249cd:	fd9481               	l32r	a8, 6f24020 <_stext+0x40>
 6f249d0:	0008e0               	callx8	a8

06f249d3 <frame_dummy+0x17>:
 6f249d3:	fd95a1               	l32r	a10, 6f24028 <_stext+0x48>
 6f249d6:	0ab8                	l32i.n	a11, a10, 0
 6f249d8:	6b8c                	beqz.n	a11, 6f249e2 <frame_dummy+0x26>
 6f249da:	fd94b1               	l32r	a11, 6f2402c <_stext+0x4c>
 6f249dd:	1b8c                	beqz.n	a11, 6f249e2 <frame_dummy+0x26>
 6f249df:	000be0               	callx8	a11
 6f249e2:	f01d                	retw.n

06f249e4 <frame_dummy+0x28>:
 6f249e4:	00000000                                ....

06f249e8 <ADSP_TimerInit>:
 6f249e8:	004136               	entry	a1, 32
 6f249eb:	1a0c                	movi.n	a10, 1
 6f249ed:	fd90b1               	l32r	a11, 6f24030 <_stext+0x50>
 6f249f0:	00d465               	call8	6f25738 <TIMER_Init>
 6f249f3:	f01d                	retw.n

06f249f5 <ADSP_TimerInit+0xd>:
 6f249f5:	000000                                        ...

06f249f8 <dsp_init>:
 6f249f8:	004136               	entry	a1, 32
 6f249fb:	fd8e91               	l32r	a9, 6f24034 <_stext+0x54>
 6f249fe:	fd8eb1               	l32r	a11, 6f24038 <_stext+0x58>
 6f24a01:	0169b2               	s32i	a11, a9, 4
 6f24a04:	feafd2               	movi	a13, -2
 6f24a07:	01a0c2               	movi	a12, 1
 6f24a0a:	0020c0               	memw
 6f24a0d:	0ba8                	l32i.n	a10, a11, 0
 6f24a0f:	10aad0               	and	a10, a10, a13
 6f24a12:	20aac0               	or	a10, a10, a12
 6f24a15:	0020c0               	memw
 6f24a18:	0ba9                	s32i.n	a10, a11, 0
 6f24a1a:	fd8881               	l32r	a8, 6f2403c <_stext+0x5c>
 6f24a1d:	fd88a1               	l32r	a10, 6f24040 <_stext+0x60>
 6f24a20:	0989                	s32i.n	a8, a9, 0
 6f24a22:	171f65               	call8	6f3bc18 <Osal_Print>
 6f24a25:	f01d                	retw.n

06f24a27 <dsp_init+0x2f>:
	...

06f24a28 <dsp_run>:
 6f24a28:	00a136               	entry	a1, 80
 6f24a2b:	fd86a1               	l32r	a10, 6f24044 <_stext+0x64>
 6f24a2e:	171ea5               	call8	6f3bc18 <Osal_Print>
 6f24a31:	fd8021               	l32r	a2, 6f24034 <_stext+0x54>
 6f24a34:	fd8531               	l32r	a3, 6f24048 <_stext+0x68>
 6f24a37:	1298                	l32i.n	a9, a2, 4
 6f24a39:	000bc6               	j	6f24a6c <dsp_run+0x44>

06f24a3c <dsp_run+0x14>:
 6f24a3c:	000000                                        ...

06f24a3f <dsp_run+0x17>:
 6f24a3f:	000000                                        ...

06f24a42 <dsp_run+0x1a>:
 6f24a42:	01a0a2               	movi	a10, 1
 6f24a45:	0d7025               	call8	6f32148 <LOS_Msleep>
 6f24a48:	012292               	l32i	a9, a2, 4
 6f24a4b:	0020c0               	memw
 6f24a4e:	0029a2               	l32i	a10, a9, 0
 6f24a51:	41a2a0               	srli	a10, a10, 2
 6f24a54:	aa1b                	addi.n	a10, a10, 1
 6f24a56:	10aa30               	and	a10, a10, a3
 6f24a59:	11aae0               	slli	a10, a10, 2
 6f24a5c:	0020c0               	memw
 6f24a5f:	0988                	l32i.n	a8, a9, 0
 6f24a61:	148080               	extui	a8, a8, 0, 2
 6f24a64:	2088a0               	or	a8, a8, a10
 6f24a67:	0020c0               	memw
 6f24a6a:	0989                	s32i.n	a8, a9, 0
 6f24a6c:	0020c0               	memw
 6f24a6f:	0029b2               	l32i	a11, a9, 0
 6f24a72:	cc6b17               	bbci	a11, 1, 6f24a42 <dsp_run+0x1a>
 6f24a75:	fd75a1               	l32r	a10, 6f2404c <_stext+0x6c>
 6f24a78:	1719e5               	call8	6f3bc18 <Osal_Print>
 6f24a7b:	fd7c41               	l32r	a4, 6f2406c <_stext+0x8c>
 6f24a7e:	fd7a51               	l32r	a5, 6f24068 <_stext+0x88>
 6f24a81:	fd7861               	l32r	a6, 6f24064 <_stext+0x84>
 6f24a84:	fd7ec1               	l32r	a12, 6f2407c <_stext+0x9c>
 6f24a87:	fd7cd1               	l32r	a13, 6f24078 <_stext+0x98>
 6f24a8a:	fd7ae1               	l32r	a14, 6f24074 <_stext+0x94>
 6f24a8d:	fd78f1               	l32r	a15, 6f24070 <_stext+0x90>
 6f24a90:	fd7471               	l32r	a7, 6f24060 <_stext+0x80>
 6f24a93:	fd7281               	l32r	a8, 6f2405c <_stext+0x7c>
 6f24a96:	fd7091               	l32r	a9, 6f24058 <_stext+0x78>
 6f24a99:	fd6ea1               	l32r	a10, 6f24054 <_stext+0x74>
 6f24a9c:	fd6db1               	l32r	a11, 6f24050 <_stext+0x70>
 6f24a9f:	0061b2               	s32i	a11, a1, 0
 6f24aa2:	0161a2               	s32i	a10, a1, 4
 6f24aa5:	2199                	s32i.n	a9, a1, 8
 6f24aa7:	3189                	s32i.n	a8, a1, 12
 6f24aa9:	4179                	s32i.n	a7, a1, 16
 6f24aab:	81f9                	s32i.n	a15, a1, 32
 6f24aad:	91e9                	s32i.n	a14, a1, 36
 6f24aaf:	a1d9                	s32i.n	a13, a1, 40
 6f24ab1:	b1c9                	s32i.n	a12, a1, 44
 6f24ab3:	5169                	s32i.n	a6, a1, 20
 6f24ab5:	6159                	s32i.n	a5, a1, 24
 6f24ab7:	7149                	s32i.n	a4, a1, 28
 6f24ab9:	00a052               	movi	a5, 0
 6f24abc:	014d                	mov.n	a4, a1
 6f24abe:	30c162               	addi	a6, a1, 48
 6f24ac1:	fd6fa1               	l32r	a10, 6f24080 <_stext+0xa0>
 6f24ac4:	0024b2               	l32i	a11, a4, 0
 6f24ac7:	03a0c2               	movi	a12, 3
 6f24aca:	0fefe5               	call8	6f349c8 <strncmp>
 6f24acd:	147a16               	beqz	a10, 6f24c18 <dsp_run+0x1f0>
 6f24ad0:	551b                	addi.n	a5, a5, 1
 6f24ad2:	04c442               	addi	a4, a4, 4
 6f24ad5:	e89467               	bne	a4, a6, 6f24ac1 <dsp_run+0x99>
 6f24ad8:	019ab6               	bltui	a10, 10, 6f24add <dsp_run+0xb5>
 6f24adb:	aa6b                	addi.n	a10, a10, 6
 6f24add:	18a3d2               	movi	a13, 0x318
 6f24ae0:	0022e2               	l32i	a14, a2, 0
 6f24ae3:	0020c0               	memw
 6f24ae6:	164ed2               	s8i	a13, a14, 22
 6f24ae9:	0022c2               	l32i	a12, a2, 0
 6f24aec:	0020c0               	memw
 6f24aef:	154ca2               	s8i	a10, a12, 21
 6f24af2:	21a3a2               	movi	a10, 0x321
 6f24af5:	0022b2               	l32i	a11, a2, 0
 6f24af8:	0020c0               	memw
 6f24afb:	144ba2               	s8i	a10, a11, 20
 6f24afe:	20a382               	movi	a8, 0x320
 6f24b01:	0298                	l32i.n	a9, a2, 0
 6f24b03:	0020c0               	memw
 6f24b06:	1a4982               	s8i	a8, a9, 26
 6f24b09:	50a3e2               	movi	a14, 0x350
 6f24b0c:	02f8                	l32i.n	a15, a2, 0
 6f24b0e:	0020c0               	memw
 6f24b11:	194fe2               	s8i	a14, a15, 25
 6f24b14:	51a3c2               	movi	a12, 0x351
 6f24b17:	02d8                	l32i.n	a13, a2, 0
 6f24b19:	0020c0               	memw
 6f24b1c:	184dc2               	s8i	a12, a13, 24
 6f24b1f:	fd59a1               	l32r	a10, 6f24084 <_stext+0xa4>
 6f24b22:	170f65               	call8	6f3bc18 <Osal_Print>
 6f24b25:	060c                	movi.n	a6, 0
 6f24b27:	0faf72               	movi	a7, -241
 6f24b2a:	fd5741               	l32r	a4, 6f24088 <_stext+0xa8>
 6f24b2d:	000b06               	j	6f24b5d <dsp_run+0x135>

06f24b30 <dsp_run+0x108>:
 6f24b30:	000000                                        ...

06f24b33 <dsp_run+0x10b>:
 6f24b33:	012292               	l32i	a9, a2, 4
 6f24b36:	0020c0               	memw
 6f24b39:	0029a2               	l32i	a10, a9, 0
 6f24b3c:	41a2a0               	srli	a10, a10, 2
 6f24b3f:	01caa2               	addi	a10, a10, 1
 6f24b42:	10aa30               	and	a10, a10, a3
 6f24b45:	11aae0               	slli	a10, a10, 2
 6f24b48:	0020c0               	memw
 6f24b4b:	0988                	l32i.n	a8, a9, 0
 6f24b4d:	148080               	extui	a8, a8, 0, 2
 6f24b50:	2088a0               	or	a8, a8, a10
 6f24b53:	0020c0               	memw
 6f24b56:	5a0c                	movi.n	a10, 5
 6f24b58:	0989                	s32i.n	a8, a9, 0
 6f24b5a:	0d5ee5               	call8	6f32148 <LOS_Msleep>
 6f24b5d:	0298                	l32i.n	a9, a2, 0
 6f24b5f:	0020c0               	memw
 6f24b62:	29b8                	l32i.n	a11, a9, 8
 6f24b64:	3feb37               	bbsi	a11, 3, 6f24ba7 <dsp_run+0x17f>
 6f24b67:	0020c0               	memw
 6f24b6a:	2958                	l32i.n	a5, a9, 8
 6f24b6c:	145050               	extui	a5, a5, 0, 2
 6f24b6f:	158c                	beqz.n	a5, 6f24b74 <dsp_run+0x14c>
 6f24b71:	0c1566               	bnei	a5, 1, 6f24b81 <dsp_run+0x159>
 6f24b74:	fd46a1               	l32r	a10, 6f2408c <_stext+0xac>
 6f24b77:	170a25               	call8	6f3bc18 <Osal_Print>
 6f24b7a:	0020c0               	memw
 6f24b7d:	0298                	l32i.n	a9, a2, 0
 6f24b7f:	0459                	s32i.n	a5, a4, 0
 6f24b81:	0020c0               	memw
 6f24b84:	29c8                	l32i.n	a12, a9, 8
 6f24b86:	10cc70               	and	a12, a12, a7
 6f24b89:	20cc60               	or	a12, a12, a6
 6f24b8c:	0020c0               	memw
 6f24b8f:	29c9                	s32i.n	a12, a9, 8
 6f24b91:	02a8                	l32i.n	a10, a2, 0
 6f24b93:	0020c0               	memw
 6f24b96:	2a88                	l32i.n	a8, a10, 8
 6f24b98:	7b7c                	movi.n	a11, -9
 6f24b9a:	1088b0               	and	a8, a8, a11
 6f24b9d:	8b0c                	movi.n	a11, 8
 6f24b9f:	2088b0               	or	a8, a8, a11
 6f24ba2:	0020c0               	memw
 6f24ba5:	2a89                	s32i.n	a8, a10, 8
 6f24ba7:	0020c0               	memw
 6f24baa:	04d8                	l32i.n	a13, a4, 0
 6f24bac:	5d9c                	beqz.n	a13, 6f24bc5 <dsp_run+0x19d>
 6f24bae:	0020c0               	memw
 6f24bb1:	04e8                	l32i.n	a14, a4, 0
 6f24bb3:	0d7ff741c0b01ece 	{ bnei.w18	a14, 1, 6f24b33 <dsp_run+0x10b>; nop }
 6f24bbb:	000906               	j	6f24be3 <dsp_run+0x1bb>

06f24bbe <dsp_run+0x196>:
 6f24bbe:	000000                                        ...

06f24bc1 <dsp_run+0x199>:
 6f24bc1:	00000000                                ....

06f24bc5 <dsp_run+0x19d>:
 6f24bc5:	061c65               	call8	6f2ad8c <AOE_ProcThread>
 6f24bc8:	062665               	call8	6f2ae30 <AOE_GetThreadStatus>
 6f24bcb:	8e1a26               	beqi	a10, 1, 6f24b5d <dsp_run+0x135>
 6f24bce:	0649e5               	call8	6f2b06c <AFLT_ProcThread>
 6f24bd1:	064c65               	call8	6f2b098 <AFLT_GetThreadStatus>
 6f24bd4:	0d7ff84150b01a0e 	{ beqi.w18	a10, 1, 6f24b5d <dsp_run+0x135>; nop }
 6f24bdc:	ffd4c6               	j	6f24b33 <dsp_run+0x10b>

06f24bdf <dsp_run+0x1b7>:
 6f24bdf:	00000000                                ....

06f24be3 <dsp_run+0x1bb>:
 6f24be3:	fd2ba1               	l32r	a10, 6f24090 <_stext+0xb0>
 6f24be6:	170325               	call8	6f3bc18 <Osal_Print>
 6f24be9:	01a0a2               	movi	a10, 1
 6f24bec:	00b325               	call8	6f25720 <TIMER_SetDisable>
 6f24bef:	012282               	l32i	a8, a2, 4
 6f24bf2:	0020c0               	memw
 6f24bf5:	0028f2               	l32i	a15, a8, 0
 6f24bf8:	feaf52               	movi	a5, -2
 6f24bfb:	10ff50               	and	a15, a15, a5
 6f24bfe:	20ff60               	or	a15, a15, a6
 6f24c01:	0020c0               	memw
 6f24c04:	6a0c                	movi.n	a10, 6
 6f24c06:	08f9                	s32i.n	a15, a8, 0
 6f24c08:	0e6265               	call8	6f33230 <LOS_HwiDelete>
 6f24c0b:	fd22a1               	l32r	a10, 6f24094 <_stext+0xb4>
 6f24c0e:	1700a5               	call8	6f3bc18 <Osal_Print>
 6f24c11:	007000               	waiti	0
 6f24c14:	ffc6c6               	j	6f24b33 <dsp_run+0x10b>

06f24c17 <dsp_run+0x1ef>:
	...

06f24c18 <dsp_run+0x1f0>:
 6f24c18:	a51b                	addi.n	a10, a5, 1
 6f24c1a:	ffae86               	j	6f24ad8 <dsp_run+0xb0>

06f24c1d <dsp_run+0x1f5>:
 6f24c1d:	000000                                        ...

06f24c20 <LSRC_Create>:
 6f24c20:	006136               	entry	a1, 48
 6f24c23:	00a072               	movi	a7, 0
 6f24c26:	006272               	s32i	a7, a2, 0
 6f24c29:	0d400a4110b0136e 	{ blti.w18	a3, 1, 6f24cce <LSRC_Create+0xae>; nop }
 6f24c31:	fd1981               	l32r	a8, 6f24098 <_stext+0xb8>
 6f24c34:	0d00094160b0983e 	{ blt.w18	a8, a3, 6f24cce <LSRC_Create+0xae>; nop }
 6f24c3c:	0d400841e0b0146e 	{ blti.w18	a4, 1, 6f24cce <LSRC_Create+0xae>; nop }
 6f24c44:	0d00084160b0984e 	{ blt.w18	a8, a4, 6f24cce <LSRC_Create+0xae>; nop }
 6f24c4c:	20a440               	or	a10, a4, a4
 6f24c4f:	20b330               	or	a11, a3, a3
 6f24c52:	1704e5               	call8	6f3bca0 <__divsi3>
 6f24c55:	0d40074150b07a4e 	{ bgei.w18	a10, 7, 6f24cce <LSRC_Create+0xae>; nop }
 6f24c5d:	10a0a2               	movi	a10, 16
 6f24c60:	cb4c                	movi.n	a11, 76
 6f24c62:	00b465               	call8	6f257a8 <HI_ADSP_MALLOC>
 6f24c65:	01a9                	s32i.n	a10, a1, 0
 6f24c67:	063a16               	beqz	a10, 6f24cce <LSRC_Create+0xae>
 6f24c6a:	0b0c                	movi.n	a11, 0
 6f24c6c:	cc4c                	movi.n	a12, 76
 6f24c6e:	175865               	call8	6f3c1f4 <memset>
 6f24c71:	fd0a81               	l32r	a8, 6f2409c <_stext+0xbc>
 6f24c74:	090c                	movi.n	a9, 0
 6f24c76:	cc0c                	movi.n	a12, 12
 6f24c78:	da0c                	movi.n	a10, 13
 6f24c7a:	08aa76               	loopgtz	a10, 6f24c86 <LSRC_Create+0x66>
 6f24c7d:	08b8                	l32i.n	a11, a8, 0
 6f24c7f:	884b                	addi.n	a8, a8, 4
 6f24c81:	011b47               	beq	a11, a4, 6f24c86 <LSRC_Create+0x66>
 6f24c84:	991b                	addi.n	a9, a9, 1

06f24c86 <LSRC_Create+0x66>:
 6f24c86:	01f8                	l32i.n	a15, a1, 0
 6f24c88:	0c3c97               	bltu	a12, a9, 6f24c98 <LSRC_Create+0x78>
 6f24c8b:	fd05d1               	l32r	a13, 6f240a0 <_stext+0xc0>
 6f24c8e:	01e8                	l32i.n	a14, a1, 0
 6f24c90:	a0d9d0               	addx4	a13, a9, a13
 6f24c93:	0dd8                	l32i.n	a13, a13, 0
 6f24c95:	086ed2               	s32i	a13, a14, 32

06f24c98 <LSRC_Create+0x78>:
 6f24c98:	46ac                	beqz.n	a6, 6f24cc0 <LSRC_Create+0xa0>
 6f24c9a:	0188                	l32i.n	a8, a1, 0
 6f24c9c:	21a360               	srai	a10, a6, 3
 6f24c9f:	24e060               	extui	a14, a6, 0, 3
 6f24ca2:	03ae76               	loopgtz	a14, 6f24ca9 <LSRC_Create+0x89>
 6f24ca5:	9879                	s32i.n	a7, a8, 36
 6f24ca7:	884b                	addi.n	a8, a8, 4
 6f24ca9:	13aa76               	loopgtz	a10, 6f24cc0 <LSRC_Create+0xa0>
 6f24cac:	9879                	s32i.n	a7, a8, 36
 6f24cae:	a879                	s32i.n	a7, a8, 40
 6f24cb0:	b879                	s32i.n	a7, a8, 44
 6f24cb2:	c879                	s32i.n	a7, a8, 48
 6f24cb4:	d879                	s32i.n	a7, a8, 52
 6f24cb6:	e879                	s32i.n	a7, a8, 56
 6f24cb8:	f879                	s32i.n	a7, a8, 60
 6f24cba:	106872               	s32i	a7, a8, 64
 6f24cbd:	20c882               	addi	a8, a8, 32
 6f24cc0:	0f59                	s32i.n	a5, a15, 0
 6f24cc2:	1f69                	s32i.n	a6, a15, 4
 6f24cc4:	2f39                	s32i.n	a3, a15, 8
 6f24cc6:	3f39                	s32i.n	a3, a15, 12
 6f24cc8:	4f49                	s32i.n	a4, a15, 16
 6f24cca:	02f9                	s32i.n	a15, a2, 0
 6f24ccc:	f01d                	retw.n

06f24cce <LSRC_Create+0xae>:
 6f24cce:	f01d                	retw.n

06f24cd0 <LSRC_Destroy>:
 6f24cd0:	004136               	entry	a1, 32
 6f24cd3:	628c                	beqz.n	a2, 6f24cdd <LSRC_Destroy+0xd>
 6f24cd5:	02bd                	mov.n	a11, a2
 6f24cd7:	10a0a2               	movi	a10, 16
 6f24cda:	00ade5               	call8	6f257b8 <HI_ADSP_FREE>

06f24cdd <LSRC_Destroy+0xd>:
 6f24cdd:	f01d                	retw.n

06f24cdf <LSRC_Destroy+0xf>:
 6f24cdf:	000000                                        ...

06f24ce2 <LSRC_Destroy+0x12>:
	...

06f24ce4 <LSRC_GetMaxOutputNum>:
 6f24ce4:	004136               	entry	a1, 32
 6f24ce7:	32cc                	bnez.n	a2, 6f24cee <LSRC_GetMaxOutputNum+0xa>
 6f24ce9:	f27c                	movi.n	a2, -1
 6f24ceb:	f01d                	retw.n

06f24ced <LSRC_GetMaxOutputNum+0x9>:
	...

06f24cee <LSRC_GetMaxOutputNum+0xa>:
 6f24cee:	20b330               	or	a11, a3, a3
 6f24cf1:	0422a2               	l32i	a10, a2, 16
 6f24cf4:	16f2a5               	call8	6f3bc20 <__mulsi3>
 6f24cf7:	0222b2               	l32i	a11, a2, 8
 6f24cfa:	16fa65               	call8	6f3bca0 <__divsi3>
 6f24cfd:	2a1b                	addi.n	a2, a10, 1
 6f24cff:	f01d                	retw.n

06f24d01 <LSRC_GetMaxOutputNum+0x1d>:
 6f24d01:	000000                                        ...

06f24d04 <LSRC_GetMinInputNum>:
 6f24d04:	004136               	entry	a1, 32
 6f24d07:	32cc                	bnez.n	a2, 6f24d0e <LSRC_GetMinInputNum+0xa>
 6f24d09:	f27c                	movi.n	a2, -1
 6f24d0b:	f01d                	retw.n

06f24d0d <LSRC_GetMinInputNum+0x9>:
	...

06f24d0e <LSRC_GetMinInputNum+0xa>:
 6f24d0e:	20a330               	or	a10, a3, a3
 6f24d11:	22b8                	l32i.n	a11, a2, 8
 6f24d13:	4248                	l32i.n	a4, a2, 16
 6f24d15:	16f0a5               	call8	6f3bc20 <__mulsi3>
 6f24d18:	0a3d                	mov.n	a3, a10
 6f24d1a:	04bd                	mov.n	a11, a4
 6f24d1c:	16f825               	call8	6f3bca0 <__divsi3>
 6f24d1f:	0a2d                	mov.n	a2, a10
 6f24d21:	04bd                	mov.n	a11, a4
 6f24d23:	03ad                	mov.n	a10, a3
 6f24d25:	16fe25               	call8	6f3bd08 <__modsi3>
 6f24d28:	821b                	addi.n	a8, a2, 1
 6f24d2a:	9328a0               	movnez	a2, a8, a10
 6f24d2d:	f01d                	retw.n

06f24d2f <LSRC_GetMinInputNum+0x2b>:
	...

06f24d30 <LSRC_CheckUpdate>:
 6f24d30:	004136               	entry	a1, 32
 6f24d33:	1d0c                	movi.n	a13, 1
 6f24d35:	1298                	l32i.n	a9, a2, 4
 6f24d37:	0278                	l32i.n	a7, a2, 0
 6f24d39:	3288                	l32i.n	a8, a2, 12
 6f24d3b:	42a8                	l32i.n	a10, a2, 16
 6f24d3d:	c08830               	sub	a8, a8, a3
 6f24d40:	c0aa40               	sub	a10, a10, a4
 6f24d43:	c07750               	sub	a7, a7, a5
 6f24d46:	c09960               	sub	a9, a9, a6
 6f24d49:	939d90               	movnez	a9, a13, a9
 6f24d4c:	937d70               	movnez	a7, a13, a7
 6f24d4f:	93ada0               	movnez	a10, a13, a10
 6f24d52:	938d80               	movnez	a8, a13, a8
 6f24d55:	88aa                	add.n	a8, a8, a10
 6f24d57:	779a                	add.n	a7, a7, a9
 6f24d59:	778a                	add.n	a7, a7, a8
 6f24d5b:	278c                	beqz.n	a7, 6f24d61 <LSRC_CheckUpdate+0x31>
 6f24d5d:	0d2d                	mov.n	a2, a13
 6f24d5f:	f01d                	retw.n

06f24d61 <LSRC_CheckUpdate+0x31>:
 6f24d61:	020c                	movi.n	a2, 0
 6f24d63:	f01d                	retw.n

06f24d65 <LSRC_CheckUpdate+0x35>:
 6f24d65:	000000                                        ...

06f24d68 <LSRC_UpdateChange>:
 6f24d68:	004136               	entry	a1, 32
 6f24d6b:	1b0c                	movi.n	a11, 1
 6f24d6d:	1298                	l32i.n	a9, a2, 4
 6f24d6f:	0278                	l32i.n	a7, a2, 0
 6f24d71:	3288                	l32i.n	a8, a2, 12
 6f24d73:	42a8                	l32i.n	a10, a2, 16
 6f24d75:	c08830               	sub	a8, a8, a3
 6f24d78:	c0aa40               	sub	a10, a10, a4
 6f24d7b:	c07750               	sub	a7, a7, a5
 6f24d7e:	c09960               	sub	a9, a9, a6
 6f24d81:	939b90               	movnez	a9, a11, a9
 6f24d84:	937b70               	movnez	a7, a11, a7
 6f24d87:	93aba0               	movnez	a10, a11, a10
 6f24d8a:	938b80               	movnez	a8, a11, a8
 6f24d8d:	88aa                	add.n	a8, a8, a10
 6f24d8f:	779a                	add.n	a7, a7, a9
 6f24d91:	778a                	add.n	a7, a7, a8
 6f24d93:	059716               	beqz	a7, 6f24df0 <LSRC_UpdateChange+0x88>
 6f24d96:	cc0c                	movi.n	a12, 12
 6f24d98:	1269                	s32i.n	a6, a2, 4
 6f24d9a:	4249                	s32i.n	a4, a2, 16
 6f24d9c:	da0c                	movi.n	a10, 13
 6f24d9e:	2239                	s32i.n	a3, a2, 8
 6f24da0:	0259                	s32i.n	a5, a2, 0
 6f24da2:	3239                	s32i.n	a3, a2, 12
 6f24da4:	fcbe51               	l32r	a5, 6f2409c <_stext+0xbc>
 6f24da7:	030c                	movi.n	a3, 0
 6f24da9:	5239                	s32i.n	a3, a2, 20
 6f24dab:	6239                	s32i.n	a3, a2, 24
 6f24dad:	7239                	s32i.n	a3, a2, 28
 6f24daf:	039d                	mov.n	a9, a3
 6f24db1:	08aa76               	loopgtz	a10, 6f24dbd <LSRC_UpdateChange+0x55>
 6f24db4:	05b8                	l32i.n	a11, a5, 0
 6f24db6:	554b                	addi.n	a5, a5, 4
 6f24db8:	011b47               	beq	a11, a4, 6f24dbd <LSRC_UpdateChange+0x55>
 6f24dbb:	991b                	addi.n	a9, a9, 1

06f24dbd <LSRC_UpdateChange+0x55>:
 6f24dbd:	093c97               	bltu	a12, a9, 6f24dca <LSRC_UpdateChange+0x62>
 6f24dc0:	fcb8d1               	l32r	a13, 6f240a0 <_stext+0xc0>
 6f24dc3:	a0d9d0               	addx4	a13, a9, a13
 6f24dc6:	0dd8                	l32i.n	a13, a13, 0
 6f24dc8:	82d9                	s32i.n	a13, a2, 32

06f24dca <LSRC_UpdateChange+0x62>:
 6f24dca:	26ac                	beqz.n	a6, 6f24df0 <LSRC_UpdateChange+0x88>
 6f24dcc:	214360               	srai	a4, a6, 3
 6f24dcf:	24e060               	extui	a14, a6, 0, 3
 6f24dd2:	03ae76               	loopgtz	a14, 6f24dd9 <LSRC_UpdateChange+0x71>
 6f24dd5:	9239                	s32i.n	a3, a2, 36
 6f24dd7:	224b                	addi.n	a2, a2, 4
 6f24dd9:	13a476               	loopgtz	a4, 6f24df0 <LSRC_UpdateChange+0x88>
 6f24ddc:	9239                	s32i.n	a3, a2, 36
 6f24dde:	a239                	s32i.n	a3, a2, 40
 6f24de0:	b239                	s32i.n	a3, a2, 44
 6f24de2:	c239                	s32i.n	a3, a2, 48
 6f24de4:	d239                	s32i.n	a3, a2, 52
 6f24de6:	e239                	s32i.n	a3, a2, 56
 6f24de8:	f239                	s32i.n	a3, a2, 60
 6f24dea:	106232               	s32i	a3, a2, 64
 6f24ded:	20c222               	addi	a2, a2, 32
 6f24df0:	f01d                	retw.n

06f24df2 <LSRC_UpdateChange+0x8a>:
	...

06f24df4 <LSRC_Flush>:
 6f24df4:	004136               	entry	a1, 32
 6f24df7:	4278                	l32i.n	a7, a2, 16
 6f24df9:	fca861               	l32r	a6, 6f2409c <_stext+0xbc>
 6f24dfc:	d30c                	movi.n	a3, 13
 6f24dfe:	080c                	movi.n	a8, 0
 6f24e00:	5289                	s32i.n	a8, a2, 20
 6f24e02:	6289                	s32i.n	a8, a2, 24
 6f24e04:	085d                	mov.n	a5, a8
 6f24e06:	08a376               	loopgtz	a3, 6f24e12 <LSRC_Flush+0x1e>
 6f24e09:	0648                	l32i.n	a4, a6, 0
 6f24e0b:	664b                	addi.n	a6, a6, 4
 6f24e0d:	011477               	beq	a4, a7, 6f24e12 <LSRC_Flush+0x1e>
 6f24e10:	551b                	addi.n	a5, a5, 1

06f24e12 <LSRC_Flush+0x1e>:
 6f24e12:	c90c                	movi.n	a9, 12
 6f24e14:	093957               	bltu	a9, a5, 6f24e21 <LSRC_Flush+0x2d>
 6f24e17:	fca2a1               	l32r	a10, 6f240a0 <_stext+0xc0>
 6f24e1a:	a0a5a0               	addx4	a10, a5, a10
 6f24e1d:	0aa8                	l32i.n	a10, a10, 0
 6f24e1f:	82a9                	s32i.n	a10, a2, 32

06f24e21 <LSRC_Flush+0x2d>:
 6f24e21:	12b8                	l32i.n	a11, a2, 4
 6f24e23:	3b9c                	beqz.n	a11, 6f24e3a <LSRC_Flush+0x46>
 6f24e25:	026d                	mov.n	a6, a2
 6f24e27:	050c                	movi.n	a5, 0
 6f24e29:	0a8076               	loop	a0, 6f24e37 <LSRC_Flush+0x43>
 6f24e2c:	551b                	addi.n	a5, a5, 1
 6f24e2e:	9689                	s32i.n	a8, a6, 36
 6f24e30:	12c8                	l32i.n	a12, a2, 4
 6f24e32:	664b                	addi.n	a6, a6, 4
 6f24e34:	02b5c7               	bgeu	a5, a12, 6f24e3a <LSRC_Flush+0x46>

06f24e37 <LSRC_Flush+0x43>:
 6f24e37:	fffb86               	j	6f24e29 <LSRC_Flush+0x35>

06f24e3a <LSRC_Flush+0x46>:
 6f24e3a:	f01d                	retw.n

06f24e3c <LSRC_CheckDoSRC>:
 6f24e3c:	004136               	entry	a1, 32
 6f24e3f:	4248                	l32i.n	a4, a2, 16
 6f24e41:	2238                	l32i.n	a3, a2, 8
 6f24e43:	6288                	l32i.n	a8, a2, 24
 6f24e45:	019347               	bne	a3, a4, 6f24e4a <LSRC_CheckDoSRC+0xe>
 6f24e48:	288c                	beqz.n	a8, 6f24e4e <LSRC_CheckDoSRC+0x12>
 6f24e4a:	120c                	movi.n	a2, 1
 6f24e4c:	f01d                	retw.n

06f24e4e <LSRC_CheckDoSRC+0x12>:
 6f24e4e:	020c                	movi.n	a2, 0
 6f24e50:	f01d                	retw.n

06f24e52 <LSRC_CheckDoSRC+0x16>:
	...

06f24e54 <LSRC_SetSpeedAdjust>:
 6f24e54:	004136               	entry	a1, 32
 6f24e57:	72a8                	l32i.n	a10, a2, 28
 6f24e59:	64a082               	movi	a8, 100
 6f24e5c:	301a37               	beq	a10, a3, 6f24e90 <LSRC_SetSpeedAdjust+0x3c>
 6f24e5f:	2d2837               	blt	a8, a3, 6f24e90 <LSRC_SetSpeedAdjust+0x3c>
 6f24e62:	9caf92               	movi	a9, -100
 6f24e65:	272397               	blt	a3, a9, 6f24e90 <LSRC_SetSpeedAdjust+0x3c>
 6f24e68:	190c                	movi.n	a9, 1
 6f24e6a:	aaac                	beqz.n	a10, 6f24e98 <LSRC_SetSpeedAdjust+0x44>

06f24e6c <LSRC_SetSpeedAdjust+0x18>:
 6f24e6c:	23ac                	beqz.n	a3, 6f24e92 <LSRC_SetSpeedAdjust+0x3e>
 6f24e6e:	076232               	s32i	a3, a2, 28
 6f24e71:	0322a2               	l32i	a10, a2, 12
 6f24e74:	04d3b2               	addmi	a11, a3, 0x400
 6f24e77:	e8cbb2               	addi	a11, a11, -24
 6f24e7a:	16da65               	call8	6f3bc20 <__mulsi3>
 6f24e7d:	e8a3b2               	movi	a11, 0x3e8
 6f24e80:	16e1e5               	call8	6f3bca0 <__divsi3>
 6f24e83:	0262a2               	s32i	a10, a2, 8
 6f24e86:	00a0a2               	movi	a10, 0
 6f24e89:	0562a2               	s32i	a10, a2, 20
 6f24e8c:	000090               	retw

06f24e8f <LSRC_SetSpeedAdjust+0x3b>:
	...

06f24e90 <LSRC_SetSpeedAdjust+0x3c>:
 6f24e90:	f01d                	retw.n

06f24e92 <LSRC_SetSpeedAdjust+0x3e>:
 6f24e92:	6299                	s32i.n	a9, a2, 24
 6f24e94:	fff586               	j	6f24e6e <LSRC_SetSpeedAdjust+0x1a>

06f24e97 <LSRC_SetSpeedAdjust+0x43>:
	...

06f24e98 <LSRC_SetSpeedAdjust+0x44>:
 6f24e98:	038c                	beqz.n	a3, 6f24e9c <LSRC_SetSpeedAdjust+0x48>
 6f24e9a:	6299                	s32i.n	a9, a2, 24
 6f24e9c:	fcca56               	bnez	a10, 6f24e6c <LSRC_SetSpeedAdjust+0x18>
 6f24e9f:	fff2c6               	j	6f24e6e <LSRC_SetSpeedAdjust+0x1a>

06f24ea2 <LSRC_SetSpeedAdjust+0x4e>:
	...

06f24ea4 <LSRC_ProcessFrame>:
 6f24ea4:	012136               	entry	a1, 144
 6f24ea7:	166122               	s32i	a2, a1, 88
 6f24eaa:	8139                	s32i.n	a3, a1, 32
 6f24eac:	6288                	l32i.n	a8, a2, 24
 6f24eae:	b149                	s32i.n	a4, a1, 44
 6f24eb0:	1298                	l32i.n	a9, a2, 4
 6f24eb2:	106192               	s32i	a9, a1, 64
 6f24eb5:	0298                	l32i.n	a9, a2, 0
 6f24eb7:	040c                	movi.n	a4, 0
 6f24eb9:	0d403841d0b0b90e 	{ beqi.w18	a9, 16, 6f2524a <LSRC_ProcessFrame+0x3a6>; nop }
 6f24ec1:	d159                	s32i.n	a5, a1, 52
 6f24ec3:	5c3816               	beqz	a8, 6f2548a <LSRC_ProcessFrame+0x5e6>
 6f24ec6:	4278                	l32i.n	a7, a2, 16
 6f24ec8:	2288                	l32i.n	a8, a2, 8
 6f24eca:	0189                	s32i.n	a8, a1, 0
 6f24ecc:	0d401841a0b0156e 	{ blti.w18	a5, 1, 6f2505a <LSRC_ProcessFrame+0x1b6>; nop }
 6f24ed4:	0d00124100b0b87e 	{ bne.w18	a8, a7, 6f24ff8 <LSRC_ProcessFrame+0x154>; nop }
 6f24edc:	1021a2               	l32i	a10, a1, 64
 6f24edf:	4d1aa6               	blti	a10, 1, 6f24f30 <LSRC_ProcessFrame+0x8c>
 6f24ee2:	b1a8                	l32i.n	a10, a1, 44
 6f24ee4:	1021c2               	l32i	a12, a1, 64
 6f24ee7:	027d                	mov.n	a7, a2
 6f24ee9:	0cbd                	mov.n	a11, a12
 6f24eeb:	24c0c0               	extui	a12, a12, 0, 3
 6f24eee:	07ac76               	loopgtz	a12, 6f24ef9 <LSRC_ProcessFrame+0x55>
 6f24ef1:	97d8                	l32i.n	a13, a7, 36
 6f24ef3:	0ad9                	s32i.n	a13, a10, 0
 6f24ef5:	774b                	addi.n	a7, a7, 4
 6f24ef7:	aa4b                	addi.n	a10, a10, 4

06f24ef9 <LSRC_ProcessFrame+0x55>:
 6f24ef9:	2193b0               	srai	a9, a11, 3
 6f24efc:	f03d                	nop.n
 6f24efe:	25a976               	loopgtz	a9, 6f24f27 <LSRC_ProcessFrame+0x83>
 6f24f01:	9798                	l32i.n	a9, a7, 36
 6f24f03:	20c772               	addi	a7, a7, 32
 6f24f06:	0a99                	s32i.n	a9, a10, 0
 6f24f08:	2798                	l32i.n	a9, a7, 8
 6f24f0a:	1a99                	s32i.n	a9, a10, 4
 6f24f0c:	3798                	l32i.n	a9, a7, 12
 6f24f0e:	2a99                	s32i.n	a9, a10, 8
 6f24f10:	4798                	l32i.n	a9, a7, 16
 6f24f12:	3a99                	s32i.n	a9, a10, 12
 6f24f14:	5798                	l32i.n	a9, a7, 20
 6f24f16:	4a99                	s32i.n	a9, a10, 16
 6f24f18:	6798                	l32i.n	a9, a7, 24
 6f24f1a:	5a99                	s32i.n	a9, a10, 20
 6f24f1c:	7798                	l32i.n	a9, a7, 28
 6f24f1e:	6a99                	s32i.n	a9, a10, 24
 6f24f20:	8798                	l32i.n	a9, a7, 32
 6f24f22:	7a99                	s32i.n	a9, a10, 28
 6f24f24:	20caa2               	addi	a10, a10, 32
 6f24f27:	162172               	l32i	a7, a1, 88
 6f24f2a:	2788                	l32i.n	a8, a7, 8
 6f24f2c:	0189                	s32i.n	a8, a1, 0
 6f24f2e:	4778                	l32i.n	a7, a7, 16

06f24f30 <LSRC_ProcessFrame+0x8c>:
 6f24f30:	120c                	movi.n	a2, 1
 6f24f32:	0c0c                	movi.n	a12, 0
 6f24f34:	150c                	movi.n	a5, 1
 6f24f36:	1621a2               	l32i	a10, a1, 88
 6f24f39:	0198                	l32i.n	a9, a1, 0
 6f24f3b:	6a49                	s32i.n	a4, a10, 24
 6f24f3d:	0d00124190b0b97e 	{ bne.w18	a9, a7, 6f2506a <LSRC_ProcessFrame+0x1c6>; nop }
 6f24f45:	0d21b2               	l32i	a11, a1, 52
 6f24f48:	0d400a4190b01b6e 	{ blti.w18	a11, 1, 6f24ff5 <LSRC_ProcessFrame+0x151>; nop }
 6f24f50:	1021a2               	l32i	a10, a1, 64
 6f24f53:	20bcc0               	or	a11, a12, a12
 6f24f56:	16cca5               	call8	6f3bc20 <__mulsi3>
 6f24f59:	206aa0               	or	a6, a10, a10
 6f24f5c:	0e61a2               	s32i	a10, a1, 56
 6f24f5f:	20b550               	or	a11, a5, a5
 6f24f62:	1021a2               	l32i	a10, a1, 64
 6f24f65:	16cba5               	call8	6f3bc20 <__mulsi3>
 6f24f68:	1021d2               	l32i	a13, a1, 64
 6f24f6b:	11cae0               	slli	a12, a10, 2
 6f24f6e:	11e6e0               	slli	a14, a6, 2
 6f24f71:	0f61e2               	s32i	a14, a1, 60
 6f24f74:	1161c2               	s32i	a12, a1, 68
 6f24f77:	11dde0               	slli	a13, a13, 2
 6f24f7a:	c1d9                	s32i.n	a13, a1, 48
 6f24f7c:	1021f2               	l32i	a15, a1, 64
 6f24f7f:	05cd                	mov.n	a12, a5
 6f24f81:	4a1fa6               	blti	a15, 1, 6f24fcf <LSRC_ProcessFrame+0x12b>
 6f24f84:	0fad                	mov.n	a10, a15
 6f24f86:	8198                	l32i.n	a9, a1, 32
 6f24f88:	f158                	l32i.n	a5, a1, 60
 6f24f8a:	112122               	l32i	a2, a1, 68
 6f24f8d:	559a                	add.n	a5, a5, a9
 6f24f8f:	b198                	l32i.n	a9, a1, 44
 6f24f91:	2480f0               	extui	a8, a15, 0, 3
 6f24f94:	229a                	add.n	a2, a2, a9
 6f24f96:	07a876               	loopgtz	a8, 6f24fa1 <LSRC_ProcessFrame+0xfd>
 6f24f99:	05b8                	l32i.n	a11, a5, 0
 6f24f9b:	02b9                	s32i.n	a11, a2, 0
 6f24f9d:	554b                	addi.n	a5, a5, 4
 6f24f9f:	224b                	addi.n	a2, a2, 4

06f24fa1 <LSRC_ProcessFrame+0xfd>:
 6f24fa1:	2193a0               	srai	a9, a10, 3
 6f24fa4:	f03d                	nop.n
 6f24fa6:	25a976               	loopgtz	a9, 6f24fcf <LSRC_ProcessFrame+0x12b>
 6f24fa9:	0598                	l32i.n	a9, a5, 0
 6f24fab:	0299                	s32i.n	a9, a2, 0
 6f24fad:	1598                	l32i.n	a9, a5, 4
 6f24faf:	1299                	s32i.n	a9, a2, 4
 6f24fb1:	2598                	l32i.n	a9, a5, 8
 6f24fb3:	2299                	s32i.n	a9, a2, 8
 6f24fb5:	3598                	l32i.n	a9, a5, 12
 6f24fb7:	3299                	s32i.n	a9, a2, 12
 6f24fb9:	4598                	l32i.n	a9, a5, 16
 6f24fbb:	4299                	s32i.n	a9, a2, 16
 6f24fbd:	5598                	l32i.n	a9, a5, 20
 6f24fbf:	5299                	s32i.n	a9, a2, 20
 6f24fc1:	6598                	l32i.n	a9, a5, 24
 6f24fc3:	6299                	s32i.n	a9, a2, 24
 6f24fc5:	7598                	l32i.n	a9, a5, 28
 6f24fc7:	7299                	s32i.n	a9, a2, 28
 6f24fc9:	20c552               	addi	a5, a5, 32
 6f24fcc:	20c222               	addi	a2, a2, 32

06f24fcf <LSRC_ProcessFrame+0x12b>:
 6f24fcf:	112182               	l32i	a8, a1, 68
 6f24fd2:	c1f8                	l32i.n	a15, a1, 48
 6f24fd4:	f1e8                	l32i.n	a14, a1, 60
 6f24fd6:	102152               	l32i	a5, a1, 64
 6f24fd9:	d1d8                	l32i.n	a13, a1, 52
 6f24fdb:	e128                	l32i.n	a2, a1, 56
 6f24fdd:	dd0b                	addi.n	a13, a13, -1
 6f24fdf:	d1d9                	s32i.n	a13, a1, 52
 6f24fe1:	225a                	add.n	a2, a2, a5
 6f24fe3:	eefa                	add.n	a14, a14, a15
 6f24fe5:	88fa                	add.n	a8, a8, a15
 6f24fe7:	116182               	s32i	a8, a1, 68
 6f24fea:	f1e9                	s32i.n	a14, a1, 60
 6f24fec:	e129                	s32i.n	a2, a1, 56
 6f24fee:	5c1b                	addi.n	a5, a12, 1
 6f24ff0:	052d                	mov.n	a2, a5
 6f24ff2:	f86d56               	bnez	a13, 6f24f7c <LSRC_ProcessFrame+0xd8>
 6f24ff5:	f01d                	retw.n

06f24ff7 <LSRC_ProcessFrame+0x153>:
	...

06f24ff8 <LSRC_ProcessFrame+0x154>:
 6f24ff8:	102192               	l32i	a9, a1, 64
 6f24ffb:	4919a6               	blti	a9, 1, 6f25048 <LSRC_ProcessFrame+0x1a4>
 6f24ffe:	038d                	mov.n	a8, a3
 6f25000:	027d                	mov.n	a7, a2
 6f25002:	09ad                	mov.n	a10, a9
 6f25004:	24b090               	extui	a11, a9, 0, 3
 6f25007:	07ab76               	loopgtz	a11, 6f25012 <LSRC_ProcessFrame+0x16e>
 6f2500a:	08c8                	l32i.n	a12, a8, 0
 6f2500c:	97c9                	s32i.n	a12, a7, 36
 6f2500e:	884b                	addi.n	a8, a8, 4
 6f25010:	774b                	addi.n	a7, a7, 4

06f25012 <LSRC_ProcessFrame+0x16e>:
 6f25012:	2193a0               	srai	a9, a10, 3
 6f25015:	25a976               	loopgtz	a9, 6f2503e <LSRC_ProcessFrame+0x19a>
 6f25018:	0898                	l32i.n	a9, a8, 0
 6f2501a:	20c772               	addi	a7, a7, 32
 6f2501d:	1799                	s32i.n	a9, a7, 4
 6f2501f:	1898                	l32i.n	a9, a8, 4
 6f25021:	2799                	s32i.n	a9, a7, 8
 6f25023:	2898                	l32i.n	a9, a8, 8
 6f25025:	3799                	s32i.n	a9, a7, 12
 6f25027:	3898                	l32i.n	a9, a8, 12
 6f25029:	4799                	s32i.n	a9, a7, 16
 6f2502b:	4898                	l32i.n	a9, a8, 16
 6f2502d:	5799                	s32i.n	a9, a7, 20
 6f2502f:	5898                	l32i.n	a9, a8, 20
 6f25031:	6799                	s32i.n	a9, a7, 24
 6f25033:	6898                	l32i.n	a9, a8, 24
 6f25035:	7799                	s32i.n	a9, a7, 28
 6f25037:	7898                	l32i.n	a9, a8, 28
 6f25039:	8799                	s32i.n	a9, a7, 32
 6f2503b:	20c882               	addi	a8, a8, 32
 6f2503e:	162172               	l32i	a7, a1, 88
 6f25041:	2788                	l32i.n	a8, a7, 8
 6f25043:	0189                	s32i.n	a8, a1, 0
 6f25045:	042772               	l32i	a7, a7, 16

06f25048 <LSRC_ProcessFrame+0x1a4>:
 6f25048:	020c                	movi.n	a2, 0
 6f2504a:	1c0c                	movi.n	a12, 1
 6f2504c:	1621a2               	l32i	a10, a1, 88
 6f2504f:	950b                	addi.n	a9, a5, -1
 6f25051:	d199                	s32i.n	a9, a1, 52
 6f25053:	050c                	movi.n	a5, 0
 6f25055:	6a49                	s32i.n	a4, a10, 24
 6f25057:	000146               	j	6f25060 <LSRC_ProcessFrame+0x1bc>

06f2505a <LSRC_ProcessFrame+0x1b6>:
 6f2505a:	042d                	mov.n	a2, a4
 6f2505c:	0c0c                	movi.n	a12, 0
 6f2505e:	050c                	movi.n	a5, 0
 6f25060:	01b8                	l32i.n	a11, a1, 0
 6f25062:	0d3fed41f0b08b7e 	{ beq.w18	a11, a7, 6f24f45 <LSRC_ProcessFrame+0xa1>; nop }
 6f2506a:	d1d8                	l32i.n	a13, a1, 52
 6f2506c:	1a1da6               	blti	a13, 1, 6f2508a <LSRC_ProcessFrame+0x1e6>
 6f2506f:	162142               	l32i	a4, a1, 88
 6f25072:	5448                	l32i.n	a4, a4, 20
 6f25074:	0d004d41d0b0947e 	{ blt.w18	a4, a7, 6f25555 <LSRC_ProcessFrame+0x6b1>; nop }
 6f2507c:	162192               	l32i	a9, a1, 88
 6f2507f:	c08470               	sub	a8, a4, a7
 6f25082:	d1a8                	l32i.n	a10, a1, 52
 6f25084:	5989                	s32i.n	a8, a9, 20
 6f25086:	aa0b                	addi.n	a10, a10, -1
 6f25088:	d1a9                	s32i.n	a10, a1, 52
 6f2508a:	d1b8                	l32i.n	a11, a1, 52
 6f2508c:	0bdd                	mov.n	a13, a11
 6f2508e:	0d401541a0b01b6e 	{ blti.w18	a11, 1, 6f251ec <LSRC_ProcessFrame+0x348>; nop }
 6f25096:	21c9                	s32i.n	a12, a1, 8
 6f25098:	0cad                	mov.n	a10, a12
 6f2509a:	1021b2               	l32i	a11, a1, 64
 6f2509d:	11d9                	s32i.n	a13, a1, 4
 6f2509f:	16b825               	call8	6f3bc20 <__mulsi3>
 6f250a2:	1021b2               	l32i	a11, a1, 64
 6f250a5:	0a6d                	mov.n	a6, a10
 6f250a7:	e1a9                	s32i.n	a10, a1, 56
 6f250a9:	162142               	l32i	a4, a1, 88
 6f250ac:	21a8                	l32i.n	a10, a1, 8
 6f250ae:	5448                	l32i.n	a4, a4, 20
 6f250b0:	aa1b                	addi.n	a10, a10, 1
 6f250b2:	16b6e5               	call8	6f3bc20 <__mulsi3>
 6f250b5:	102192               	l32i	a9, a1, 64
 6f250b8:	118ae0               	slli	a8, a10, 2
 6f250bb:	11b6e0               	slli	a11, a6, 2
 6f250be:	f1b9                	s32i.n	a11, a1, 60
 6f250c0:	a189                	s32i.n	a8, a1, 40
 6f250c2:	1199e0               	slli	a9, a9, 2
 6f250c5:	0c6192               	s32i	a9, a1, 48
 6f250c8:	0d000f4110b0a47e 	{ bge.w18	a4, a7, 6f251bd <LSRC_ProcessFrame+0x319>; nop }
 6f250d0:	1021a2               	l32i	a10, a1, 64
 6f250d3:	20b550               	or	a11, a5, a5
 6f250d6:	16b4a5               	call8	6f3bc20 <__mulsi3>
 6f250d9:	002182               	l32i	a8, a1, 0
 6f250dc:	0f2192               	l32i	a9, a1, 60
 6f250df:	81d8                	l32i.n	a13, a1, 32
 6f250e1:	1021e2               	l32i	a14, a1, 64
 6f250e4:	e1c8                	l32i.n	a12, a1, 56
 6f250e6:	a1f8                	l32i.n	a15, a1, 40
 6f250e8:	80cce0               	add	a12, a12, a14
 6f250eb:	80ffd0               	add	a15, a15, a13
 6f250ee:	99da                	add.n	a9, a9, a13
 6f250f0:	7199                	s32i.n	a9, a1, 28
 6f250f2:	0661f2               	s32i	a15, a1, 24
 6f250f5:	a0ccd0               	addx4	a12, a12, a13
 6f250f8:	11eae0               	slli	a14, a10, 2
 6f250fb:	1161e2               	s32i	a14, a1, 68
 6f250fe:	1261c2               	s32i	a12, a1, 72
 6f25101:	1021a2               	l32i	a10, a1, 64
 6f25104:	05cd                	mov.n	a12, a5
 6f25106:	0d40094140b01a6e 	{ blti.w18	a10, 1, 6f2519e <LSRC_ProcessFrame+0x2fa>; nop }
 6f2510e:	6178                	l32i.n	a7, a1, 24
 6f25110:	b188                	l32i.n	a8, a1, 44
 6f25112:	196152               	s32i	a5, a1, 100
 6f25115:	112122               	l32i	a2, a1, 68
 6f25118:	7158                	l32i.n	a5, a1, 28
 6f2511a:	802280               	add	a2, a2, a8
 6f2511d:	1621b2               	l32i	a11, a1, 88
 6f25120:	0027c2               	l32i	a12, a7, 0
 6f25123:	1461c2               	s32i	a12, a1, 80
 6f25126:	052b42               	l32i	a4, a11, 20
 6f25129:	082bb2               	l32i	a11, a11, 32
 6f2512c:	1561b2               	s32i	a11, a1, 84
 6f2512f:	20a440               	or	a10, a4, a4
 6f25132:	16aee5               	call8	6f3bc20 <__mulsi3>
 6f25135:	0538                	l32i.n	a3, a5, 0
 6f25137:	1621b2               	l32i	a11, a1, 88
 6f2513a:	0a6d                	mov.n	a6, a10
 6f2513c:	4bb8                	l32i.n	a11, a11, 16
 6f2513e:	1521a2               	l32i	a10, a1, 84
 6f25141:	c0bb40               	sub	a11, a11, a4
 6f25144:	16ada5               	call8	6f3bc20 <__mulsi3>
 6f25147:	31bf60               	srai	a11, a6, 31
 6f2514a:	1361a2               	s32i	a10, a1, 76
 6f2514d:	1421c2               	l32i	a12, a1, 80
 6f25150:	06ad                	mov.n	a10, a6
 6f25152:	31dfc0               	srai	a13, a12, 31
 6f25155:	0eeda5               	call8	6f34030 <__muldi3>
 6f25158:	31df30               	srai	a13, a3, 31
 6f2515b:	1321a2               	l32i	a10, a1, 76
 6f2515e:	0b4d                	mov.n	a4, a11
 6f25160:	31cfa0               	srai	a12, a10, 31
 6f25163:	0cbd                	mov.n	a11, a12
 6f25165:	03cd                	mov.n	a12, a3
 6f25167:	0eeca5               	call8	6f34030 <__muldi3>
 6f2516a:	774b                	addi.n	a7, a7, 4
 6f2516c:	122192               	l32i	a9, a1, 72
 6f2516f:	554b                	addi.n	a5, a5, 4
 6f25171:	c4ba                	add.n	a12, a4, a11
 6f25173:	218ec0               	srai	a8, a12, 14
 6f25176:	31ddc0               	srai	a13, a12, 29
 6f25179:	31cfc0               	srai	a12, a12, 31
 6f2517c:	051cd7               	beq	a12, a13, 6f25185 <LSRC_ProcessFrame+0x2e1>
 6f2517f:	fbc981               	l32r	a8, 6f240a4 <_stext+0xc4>
 6f25182:	308c80               	xor	a8, a12, a8
 6f25185:	11a800               	slli	a10, a8, 16
 6f25188:	02a9                	s32i.n	a10, a2, 0
 6f2518a:	224b                	addi.n	a2, a2, 4
 6f2518c:	8d9597               	bne	a5, a9, 6f2511d <LSRC_ProcessFrame+0x279>
 6f2518f:	162142               	l32i	a4, a1, 88
 6f25192:	1921c2               	l32i	a12, a1, 100
 6f25195:	022482               	l32i	a8, a4, 8
 6f25198:	042472               	l32i	a7, a4, 16
 6f2519b:	052442               	l32i	a4, a4, 20
 6f2519e:	c1a8                	l32i.n	a10, a1, 48
 6f251a0:	112192               	l32i	a9, a1, 68
 6f251a3:	162162               	l32i	a6, a1, 88
 6f251a6:	5c1b                	addi.n	a5, a12, 1
 6f251a8:	448a                	add.n	a4, a4, a8
 6f251aa:	052d                	mov.n	a2, a5
 6f251ac:	5649                	s32i.n	a4, a6, 20
 6f251ae:	99aa                	add.n	a9, a9, a10
 6f251b0:	116192               	s32i	a9, a1, 68
 6f251b3:	0d3ff441a0b0947e 	{ blt.w18	a4, a7, 6f25101 <LSRC_ProcessFrame+0x25d>; nop }
 6f251bb:	0189                	s32i.n	a8, a1, 0
 6f251bd:	a198                	l32i.n	a9, a1, 40
 6f251bf:	102182               	l32i	a8, a1, 64
 6f251c2:	e1f8                	l32i.n	a15, a1, 56
 6f251c4:	c1e8                	l32i.n	a14, a1, 48
 6f251c6:	f1d8                	l32i.n	a13, a1, 60
 6f251c8:	d1b8                	l32i.n	a11, a1, 52
 6f251ca:	1621c2               	l32i	a12, a1, 88
 6f251cd:	c04470               	sub	a4, a4, a7
 6f251d0:	5c49                	s32i.n	a4, a12, 20
 6f251d2:	bb0b                	addi.n	a11, a11, -1
 6f251d4:	d1b9                	s32i.n	a11, a1, 52
 6f251d6:	ddea                	add.n	a13, a13, a14
 6f251d8:	ff8a                	add.n	a15, a15, a8
 6f251da:	99ea                	add.n	a9, a9, a14
 6f251dc:	a199                	s32i.n	a9, a1, 40
 6f251de:	e1f9                	s32i.n	a15, a1, 56
 6f251e0:	f1d9                	s32i.n	a13, a1, 60
 6f251e2:	ee2b56               	bnez	a11, 6f250c8 <LSRC_ProcessFrame+0x224>
 6f251e5:	21d8                	l32i.n	a13, a1, 8
 6f251e7:	11c8                	l32i.n	a12, a1, 4
 6f251e9:	80ccd0               	add	a12, a12, a13
 6f251ec:	1021e2               	l32i	a14, a1, 64
 6f251ef:	0d7fe04120b01e6e 	{ blti.w18	a14, 1, 6f24ff5 <LSRC_ProcessFrame+0x151>; nop }
 6f251f7:	20aee0               	or	a10, a14, a14
 6f251fa:	20bcc0               	or	a11, a12, a12
 6f251fd:	16a225               	call8	6f3bc20 <__mulsi3>
 6f25200:	162172               	l32i	a7, a1, 88
 6f25203:	082152               	l32i	a5, a1, 32
 6f25206:	1021f2               	l32i	a15, a1, 64
 6f25209:	a05a50               	addx4	a5, a10, a5
 6f2520c:	0fad                	mov.n	a10, a15
 6f2520e:	24f0f0               	extui	a15, a15, 0, 3
 6f25211:	07af76               	loopgtz	a15, 6f2521c <LSRC_ProcessFrame+0x378>
 6f25214:	0588                	l32i.n	a8, a5, 0
 6f25216:	9789                	s32i.n	a8, a7, 36
 6f25218:	554b                	addi.n	a5, a5, 4
 6f2521a:	774b                	addi.n	a7, a7, 4

06f2521c <LSRC_ProcessFrame+0x378>:
 6f2521c:	2193a0               	srai	a9, a10, 3
 6f2521f:	25a976               	loopgtz	a9, 6f25248 <LSRC_ProcessFrame+0x3a4>
 6f25222:	0598                	l32i.n	a9, a5, 0
 6f25224:	20c772               	addi	a7, a7, 32
 6f25227:	1799                	s32i.n	a9, a7, 4
 6f25229:	1598                	l32i.n	a9, a5, 4
 6f2522b:	2799                	s32i.n	a9, a7, 8
 6f2522d:	2598                	l32i.n	a9, a5, 8
 6f2522f:	3799                	s32i.n	a9, a7, 12
 6f25231:	3598                	l32i.n	a9, a5, 12
 6f25233:	4799                	s32i.n	a9, a7, 16
 6f25235:	4598                	l32i.n	a9, a5, 16
 6f25237:	5799                	s32i.n	a9, a7, 20
 6f25239:	5598                	l32i.n	a9, a5, 20
 6f2523b:	6799                	s32i.n	a9, a7, 24
 6f2523d:	6598                	l32i.n	a9, a5, 24
 6f2523f:	7799                	s32i.n	a9, a7, 28
 6f25241:	7598                	l32i.n	a9, a5, 28
 6f25243:	8799                	s32i.n	a9, a7, 32
 6f25245:	20c552               	addi	a5, a5, 32
 6f25248:	f01d                	retw.n

06f2524a <LSRC_ProcessFrame+0x3a6>:
 6f2524a:	4278                	l32i.n	a7, a2, 16
 6f2524c:	400000007441b22e 	{ ae_l32.i	aed1, a2, 16; nop; addi	a11, a2, 64 }
 6f25254:	bd0b84               	ae_l32.i	aed0, a11, -32
 6f25257:	eb0fdd010000259f 	{ nop; ae_mul32.ll	aed0, aed0, aed1; nop }
 6f2525f:	5159                	s32i.n	a5, a1, 20
 6f25261:	2590c4               	ae_movad32.l	a9, aed0
 6f25264:	4199                	s32i.n	a9, a1, 16
 6f25266:	44b816               	beqz	a8, 6f256b5 <LSRC_ProcessFrame+0x811>
 6f25269:	22e8                	l32i.n	a14, a2, 8
 6f2526b:	01e9                	s32i.n	a14, a1, 0
 6f2526d:	0d402241c0b0156e 	{ blti.w18	a5, 1, 6f2549d <LSRC_ProcessFrame+0x5f9>; nop }
 6f25275:	0d003c41c0b0be7e 	{ bne.w18	a14, a7, 6f25645 <LSRC_ProcessFrame+0x7a1>; nop }
 6f2527d:	102182               	l32i	a8, a1, 64
 6f25280:	4c18a6               	blti	a8, 1, 6f252d0 <LSRC_ProcessFrame+0x42c>
 6f25283:	028d                	mov.n	a8, a2
 6f25285:	1021b2               	l32i	a11, a1, 64
 6f25288:	b1a8                	l32i.n	a10, a1, 44
 6f2528a:	0b9d                	mov.n	a9, a11
 6f2528c:	24b0b0               	extui	a11, a11, 0, 3
 6f2528f:	08ab76               	loopgtz	a11, 6f2529b <LSRC_ProcessFrame+0x3f7>
 6f25292:	98c8                	l32i.n	a12, a8, 36
 6f25294:	005ac2               	s16i	a12, a10, 0
 6f25297:	884b                	addi.n	a8, a8, 4
 6f25299:	aa2b                	addi.n	a10, a10, 2

06f2529b <LSRC_ProcessFrame+0x3f7>:
 6f2529b:	212390               	srai	a2, a9, 3
 6f2529e:	2ea276               	loopgtz	a2, 6f252d0 <LSRC_ProcessFrame+0x42c>
 6f252a1:	9898                	l32i.n	a9, a8, 36
 6f252a3:	a8b8                	l32i.n	a11, a8, 40
 6f252a5:	b8c8                	l32i.n	a12, a8, 44
 6f252a7:	c8d8                	l32i.n	a13, a8, 48
 6f252a9:	d8e8                	l32i.n	a14, a8, 52
 6f252ab:	e8f8                	l32i.n	a15, a8, 56
 6f252ad:	f828                	l32i.n	a2, a8, 60
 6f252af:	102832               	l32i	a3, a8, 64
 6f252b2:	20c882               	addi	a8, a8, 32
 6f252b5:	005a92               	s16i	a9, a10, 0
 6f252b8:	015ab2               	s16i	a11, a10, 2
 6f252bb:	025ac2               	s16i	a12, a10, 4
 6f252be:	035ad2               	s16i	a13, a10, 6
 6f252c1:	045ae2               	s16i	a14, a10, 8
 6f252c4:	055af2               	s16i	a15, a10, 10
 6f252c7:	065a22               	s16i	a2, a10, 12
 6f252ca:	075a32               	s16i	a3, a10, 14
 6f252cd:	10caa2               	addi	a10, a10, 16

06f252d0 <LSRC_ProcessFrame+0x42c>:
 6f252d0:	150c                	movi.n	a5, 1
 6f252d2:	0b0c                	movi.n	a11, 0
 6f252d4:	120c                	movi.n	a2, 1
 6f252d6:	1621e2               	l32i	a14, a1, 88
 6f252d9:	01d8                	l32i.n	a13, a1, 0
 6f252db:	6e49                	s32i.n	a4, a14, 24
 6f252dd:	0d001c41c0b08d7e 	{ beq.w18	a13, a7, 6f254ad <LSRC_ProcessFrame+0x609>; nop }
 6f252e5:	1021a2               	l32i	a10, a1, 64
 6f252e8:	169365               	call8	6f3bc20 <__mulsi3>
 6f252eb:	082132               	l32i	a3, a1, 32
 6f252ee:	20b220               	or	a11, a2, a2
 6f252f1:	903a30               	addx2	a3, a10, a3
 6f252f4:	1021a2               	l32i	a10, a1, 64
 6f252f7:	201110               	or	a1, a1, a1
 6f252fa:	169265               	call8	6f3bc20 <__mulsi3>
 6f252fd:	0b21c2               	l32i	a12, a1, 44
 6f25300:	5188                	l32i.n	a8, a1, 20
 6f25302:	90cac0               	addx2	a12, a10, a12
 6f25305:	0d40124140b0186e 	{ blti.w18	a8, 1, 6f2542d <LSRC_ProcessFrame+0x589>; nop }
 6f2530d:	162142               	l32i	a4, a1, 88
 6f25310:	5448                	l32i.n	a4, a4, 20
 6f25312:	6fa477               	bge	a4, a7, 6f25385 <LSRC_ProcessFrame+0x4e1>
 6f25315:	162182               	l32i	a8, a1, 88
 6f25318:	40c882               	addi	a8, a8, 64
 6f2531b:	bd4884               	ae_l32.i	aed4, a8, -32
 6f2531e:	0cbd                	mov.n	a11, a12
 6f25320:	1621a2               	l32i	a10, a1, 88
 6f25323:	400001214502e40e 	{ ae_movda32	aed2, a4; nop; movi	a14, 32 }
 6f2532b:	eb0f4002040212df 	{ movi	a13, 18; ae_mul32.ll	aed2, aed4, aed2; nop }
 6f25333:	41f8                	l32i.n	a15, a1, 16
 6f25335:	2582c4               	ae_movad32.l	a8, aed2
 6f25338:	102192               	l32i	a9, a1, 64
 6f2533b:	c0ff80               	sub	a15, a15, a8
 6f2533e:	400001b5453248fe 	{ ae_movda32	aed2, a8; nop; ae_movda32	aed3, a15 }
 6f25346:	208330               	or	a8, a3, a3
 6f25349:	28a976               	loopgtz	a9, 6f25375 <LSRC_ProcessFrame+0x4d1>
 6f2534c:	009892               	l16si	a9, a8, 0

06f2534f <LSRC_ProcessFrame+0x4ab>:
 6f2534f:	40000041454099ae 	{ ae_movda32	aed0, a9; nop; addi	a9, a10, 68 }
 6f25357:	eb0fae020001098f 	{ ae_l32.i	aed0, a9, -32; ae_mul32.ll	aed1, aed0, aed2; nop }
 6f2535f:	eb1b200300014aaf 	{ addi	a10, a10, 4; ae_mula32.ll	aed1, aed0, aed3; nop }
 6f25367:	882b                	addi.n	a8, a8, 2
 6f25369:	810e14               	ae_sraa64	aed0, aed1, a14
 6f2536c:	050d04               	ae_slaa32s	aed0, aed0, a13
 6f2536f:	a70004               	ae_sel16i	aed0, aed0, aed0, 7
 6f25372:	d30b14               	ae_s16.0.ip	aed0, a11, 2

06f25375 <LSRC_ProcessFrame+0x4d1>:
 6f25375:	551b                	addi.n	a5, a5, 1
 6f25377:	162162               	l32i	a6, a1, 88
 6f2537a:	0188                	l32i.n	a8, a1, 0
 6f2537c:	0bcd                	mov.n	a12, a11
 6f2537e:	448a                	add.n	a4, a4, a8
 6f25380:	5649                	s32i.n	a4, a6, 20
 6f25382:	982477               	blt	a4, a7, 6f2531e <LSRC_ProcessFrame+0x47a>

06f25385 <LSRC_ProcessFrame+0x4e1>:
 6f25385:	5198                	l32i.n	a9, a1, 20
 6f25387:	1621a2               	l32i	a10, a1, 88
 6f2538a:	c08470               	sub	a8, a4, a7
 6f2538d:	5a89                	s32i.n	a8, a10, 20
 6f2538f:	990b                	addi.n	a9, a9, -1
 6f25391:	5199                	s32i.n	a9, a1, 20
 6f25393:	0d40094160b0196e 	{ blti.w18	a9, 1, 6f2542d <LSRC_ProcessFrame+0x589>; nop }
 6f2539b:	1021b2               	l32i	a11, a1, 64
 6f2539e:	084d                	mov.n	a4, a8
 6f253a0:	11bbf0               	slli	a11, a11, 1
 6f253a3:	31b9                	s32i.n	a11, a1, 12
 6f253a5:	6fa477               	bge	a4, a7, 6f25418 <LSRC_ProcessFrame+0x574>
 6f253a8:	3128                	l32i.n	a2, a1, 12
 6f253aa:	1621d2               	l32i	a13, a1, 88
 6f253ad:	223a                	add.n	a2, a2, a3
 6f253af:	40cdd2               	addi	a13, a13, 64
 6f253b2:	bd4d84               	ae_l32.i	aed4, a13, -32
 6f253b5:	03ad                	mov.n	a10, a3
 6f253b7:	400001114503e42e 	{ ae_movda32	aed3, a4; nop; movi	a14, 18 }
 6f253bf:	eb0f4003040320df 	{ movi	a13, 32; ae_mul32.ll	aed3, aed4, aed3; nop }
 6f253c7:	4188                	l32i.n	a8, a1, 16
 6f253c9:	2593c4               	ae_movad32.l	a9, aed3
 6f253cc:	551b                	addi.n	a5, a5, 1
 6f253ce:	c08890               	sub	a8, a8, a9
 6f253d1:	400001b54532498e 	{ ae_movda32	aed2, a9; nop; ae_movda32	aed3, a8 }
 6f253d9:	102192               	l32i	a9, a1, 64
 6f253dc:	028d                	mov.n	a8, a2
 6f253de:	29a976               	loopgtz	a9, 6f2540b <LSRC_ProcessFrame+0x567>
 6f253e1:	009892               	l16si	a9, a8, 0
 6f253e4:	009ab2               	l16si	a11, a10, 0
 6f253e7:	400001b5451049be 	{ ae_movda32	aed0, a9; nop; ae_movda32	aed1, a11 }
 6f253ef:	eb0f20020000288f 	{ addi	a8, a8, 2; ae_mul32.ll	aed0, aed0, aed2; nop }
 6f253f7:	eb1b200301002aaf 	{ addi	a10, a10, 2; ae_mula32.ll	aed0, aed1, aed3; nop }
 6f253ff:	810d04               	ae_sraa64	aed0, aed0, a13
 6f25402:	050e04               	ae_slaa32s	aed0, aed0, a14
 6f25405:	a70004               	ae_sel16i	aed0, aed0, aed0, 7
 6f25408:	d30c14               	ae_s16.0.ip	aed0, a12, 2

06f2540b <LSRC_ProcessFrame+0x567>:
 6f2540b:	01a8                	l32i.n	a10, a1, 0
 6f2540d:	162192               	l32i	a9, a1, 88
 6f25410:	44aa                	add.n	a4, a4, a10
 6f25412:	056942               	s32i	a4, a9, 20
 6f25415:	9c2477               	blt	a4, a7, 6f253b5 <LSRC_ProcessFrame+0x511>

06f25418 <LSRC_ProcessFrame+0x574>:
 6f25418:	51b8                	l32i.n	a11, a1, 20
 6f2541a:	1621d2               	l32i	a13, a1, 88
 6f2541d:	31e8                	l32i.n	a14, a1, 12
 6f2541f:	c04470               	sub	a4, a4, a7
 6f25422:	33ea                	add.n	a3, a3, a14
 6f25424:	5d49                	s32i.n	a4, a13, 20
 6f25426:	bb0b                	addi.n	a11, a11, -1
 6f25428:	51b9                	s32i.n	a11, a1, 20
 6f2542a:	f77b56               	bnez	a11, 6f253a5 <LSRC_ProcessFrame+0x501>
 6f2542d:	1021f2               	l32i	a15, a1, 64
 6f25430:	0d401141c0b01f6e 	{ blti.w18	a15, 1, 6f25550 <LSRC_ProcessFrame+0x6ac>; nop }
 6f25438:	162182               	l32i	a8, a1, 88
 6f2543b:	20aff0               	or	a10, a15, a15
 6f2543e:	2490f0               	extui	a9, a15, 0, 3
 6f25441:	08a976               	loopgtz	a9, 6f2544d <LSRC_ProcessFrame+0x5a9>
 6f25444:	0093b2               	l16si	a11, a3, 0
 6f25447:	98b9                	s32i.n	a11, a8, 36
 6f25449:	332b                	addi.n	a3, a3, 2
 6f2544b:	884b                	addi.n	a8, a8, 4

06f2544d <LSRC_ProcessFrame+0x5a9>:
 6f2544d:	2123a0               	srai	a2, a10, 3
 6f25450:	08ad                	mov.n	a10, a8
 6f25452:	208330               	or	a8, a3, a3
 6f25455:	2da276               	loopgtz	a2, 6f25486 <LSRC_ProcessFrame+0x5e2>
 6f25458:	009892               	l16si	a9, a8, 0
 6f2545b:	0198b2               	l16si	a11, a8, 2
 6f2545e:	0298c2               	l16si	a12, a8, 4
 6f25461:	0398d2               	l16si	a13, a8, 6
 6f25464:	0498e2               	l16si	a14, a8, 8
 6f25467:	0598f2               	l16si	a15, a8, 10
 6f2546a:	069822               	l16si	a2, a8, 12
 6f2546d:	079832               	l16si	a3, a8, 14
 6f25470:	20caa2               	addi	a10, a10, 32
 6f25473:	1a99                	s32i.n	a9, a10, 4
 6f25475:	2ab9                	s32i.n	a11, a10, 8
 6f25477:	3ac9                	s32i.n	a12, a10, 12
 6f25479:	4ad9                	s32i.n	a13, a10, 16
 6f2547b:	5ae9                	s32i.n	a14, a10, 20
 6f2547d:	6af9                	s32i.n	a15, a10, 24
 6f2547f:	7a29                	s32i.n	a2, a10, 28
 6f25481:	8a39                	s32i.n	a3, a10, 32
 6f25483:	10c882               	addi	a8, a8, 16
 6f25486:	052d                	mov.n	a2, a5
 6f25488:	f01d                	retw.n

06f2548a <LSRC_ProcessFrame+0x5e6>:
 6f2548a:	042d                	mov.n	a2, a4
 6f2548c:	0c0c                	movi.n	a12, 0
 6f2548e:	162172               	l32i	a7, a1, 88
 6f25491:	050c                	movi.n	a5, 0
 6f25493:	2788                	l32i.n	a8, a7, 8
 6f25495:	0189                	s32i.n	a8, a1, 0
 6f25497:	4778                	l32i.n	a7, a7, 16
 6f25499:	fef0c6               	j	6f25060 <LSRC_ProcessFrame+0x1bc>

06f2549c <LSRC_ProcessFrame+0x5f8>:
	...

06f2549d <LSRC_ProcessFrame+0x5f9>:
 6f2549d:	045d                	mov.n	a5, a4
 6f2549f:	0b0c                	movi.n	a11, 0
 6f254a1:	020c                	movi.n	a2, 0
 6f254a3:	0198                	l32i.n	a9, a1, 0
 6f254a5:	0d3fe341c0b0b97e 	{ bne.w18	a9, a7, 6f252e5 <LSRC_ProcessFrame+0x441>; nop }
 6f254ad:	51a8                	l32i.n	a10, a1, 20
 6f254af:	0d400941d0b01a6e 	{ blti.w18	a10, 1, 6f25550 <LSRC_ProcessFrame+0x6ac>; nop }
 6f254b7:	1021a2               	l32i	a10, a1, 64
 6f254ba:	167665               	call8	6f3bc20 <__mulsi3>
 6f254bd:	0a5d                	mov.n	a5, a10
 6f254bf:	02bd                	mov.n	a11, a2
 6f254c1:	1021a2               	l32i	a10, a1, 64
 6f254c4:	1675a5               	call8	6f3bc20 <__mulsi3>
 6f254c7:	11d5f0               	slli	a13, a5, 1
 6f254ca:	1021e2               	l32i	a14, a1, 64
 6f254cd:	11caf0               	slli	a12, a10, 1
 6f254d0:	11fef0               	slli	a15, a14, 1
 6f254d3:	31f9                	s32i.n	a15, a1, 12
 6f254d5:	81f8                	l32i.n	a15, a1, 32
 6f254d7:	e5ea                	add.n	a14, a5, a14
 6f254d9:	90eef0               	addx2	a14, a14, a15
 6f254dc:	102182               	l32i	a8, a1, 64
 6f254df:	5718a6               	blti	a8, 1, 6f2553a <LSRC_ProcessFrame+0x696>
 6f254e2:	b1a8                	l32i.n	a10, a1, 44
 6f254e4:	08bd                	mov.n	a11, a8
 6f254e6:	089d                	mov.n	a9, a8
 6f254e8:	249090               	extui	a9, a9, 0, 3
 6f254eb:	8188                	l32i.n	a8, a1, 32
 6f254ed:	acaa                	add.n	a10, a12, a10
 6f254ef:	8d8a                	add.n	a8, a13, a8
 6f254f1:	09a976               	loopgtz	a9, 6f254fe <LSRC_ProcessFrame+0x65a>
 6f254f4:	009892               	l16si	a9, a8, 0
 6f254f7:	005a92               	s16i	a9, a10, 0
 6f254fa:	882b                	addi.n	a8, a8, 2
 6f254fc:	aa2b                	addi.n	a10, a10, 2

06f254fe <LSRC_ProcessFrame+0x65a>:
 6f254fe:	2193b0               	srai	a9, a11, 3
 6f25501:	35a976               	loopgtz	a9, 6f2553a <LSRC_ProcessFrame+0x696>
 6f25504:	009892               	l16si	a9, a8, 0
 6f25507:	005a92               	s16i	a9, a10, 0
 6f2550a:	019892               	l16si	a9, a8, 2
 6f2550d:	015a92               	s16i	a9, a10, 2
 6f25510:	029892               	l16si	a9, a8, 4
 6f25513:	025a92               	s16i	a9, a10, 4
 6f25516:	039892               	l16si	a9, a8, 6
 6f25519:	035a92               	s16i	a9, a10, 6
 6f2551c:	049892               	l16si	a9, a8, 8
 6f2551f:	045a92               	s16i	a9, a10, 8
 6f25522:	059892               	l16si	a9, a8, 10
 6f25525:	055a92               	s16i	a9, a10, 10
 6f25528:	069892               	l16si	a9, a8, 12
 6f2552b:	065a92               	s16i	a9, a10, 12
 6f2552e:	079892               	l16si	a9, a8, 14
 6f25531:	075a92               	s16i	a9, a10, 14
 6f25534:	10c882               	addi	a8, a8, 16
 6f25537:	10caa2               	addi	a10, a10, 16

06f2553a <LSRC_ProcessFrame+0x696>:
 6f2553a:	51a8                	l32i.n	a10, a1, 20
 6f2553c:	31b8                	l32i.n	a11, a1, 12
 6f2553e:	221b                	addi.n	a2, a2, 1
 6f25540:	025d                	mov.n	a5, a2
 6f25542:	ccba                	add.n	a12, a12, a11
 6f25544:	ddba                	add.n	a13, a13, a11
 6f25546:	eeba                	add.n	a14, a14, a11
 6f25548:	aa0b                	addi.n	a10, a10, -1
 6f2554a:	0561a2               	s32i	a10, a1, 20
 6f2554d:	f8ba56               	bnez	a10, 6f254dc <LSRC_ProcessFrame+0x638>
 6f25550:	052d                	mov.n	a2, a5
 6f25552:	f01d                	retw.n

06f25554 <LSRC_ProcessFrame+0x6b0>:
	...

06f25555 <LSRC_ProcessFrame+0x6b1>:
 6f25555:	1861c2               	s32i	a12, a1, 96
 6f25558:	1021a2               	l32i	a10, a1, 64
 6f2555b:	20bcc0               	or	a11, a12, a12
 6f2555e:	166c25               	call8	6f3bc20 <__mulsi3>
 6f25561:	206aa0               	or	a6, a10, a10
 6f25564:	1021a2               	l32i	a10, a1, 64
 6f25567:	20b550               	or	a11, a5, a5
 6f2556a:	11cae0               	slli	a12, a10, 2
 6f2556d:	0c61c2               	s32i	a12, a1, 48
 6f25570:	166ae5               	call8	6f3bc20 <__mulsi3>
 6f25573:	1621f2               	l32i	a15, a1, 88
 6f25576:	0c21e2               	l32i	a14, a1, 48
 6f25579:	082182               	l32i	a8, a1, 32
 6f2557c:	11dae0               	slli	a13, a10, 2
 6f2557f:	1161d2               	s32i	a13, a1, 68
 6f25582:	a08680               	addx4	a8, a6, a8
 6f25585:	7189                	s32i.n	a8, a1, 28
 6f25587:	eefa                	add.n	a14, a14, a15
 6f25589:	0961e2               	s32i	a14, a1, 36
 6f2558c:	102192               	l32i	a9, a1, 64
 6f2558f:	058d                	mov.n	a8, a5
 6f25591:	0d400841b0b0196e 	{ blti.w18	a9, 1, 6f25620 <LSRC_ProcessFrame+0x77c>; nop }
 6f25599:	162172               	l32i	a7, a1, 88
 6f2559c:	b188                	l32i.n	a8, a1, 44
 6f2559e:	176152               	s32i	a5, a1, 92
 6f255a1:	112122               	l32i	a2, a1, 68
 6f255a4:	7158                	l32i.n	a5, a1, 28
 6f255a6:	802280               	add	a2, a2, a8
 6f255a9:	1621b2               	l32i	a11, a1, 88
 6f255ac:	002532               	l32i	a3, a5, 0
 6f255af:	052b42               	l32i	a4, a11, 20
 6f255b2:	082bb2               	l32i	a11, a11, 32
 6f255b5:	1561b2               	s32i	a11, a1, 84
 6f255b8:	20a440               	or	a10, a4, a4
 6f255bb:	166665               	call8	6f3bc20 <__mulsi3>
 6f255be:	1621b2               	l32i	a11, a1, 88
 6f255c1:	0a6d                	mov.n	a6, a10
 6f255c3:	4bb8                	l32i.n	a11, a11, 16
 6f255c5:	1521a2               	l32i	a10, a1, 84
 6f255c8:	c0bb40               	sub	a11, a11, a4
 6f255cb:	9748                	l32i.n	a4, a7, 36
 6f255cd:	166525               	call8	6f3bc20 <__mulsi3>
 6f255d0:	31df40               	srai	a13, a4, 31
 6f255d3:	31bfa0               	srai	a11, a10, 31
 6f255d6:	04cd                	mov.n	a12, a4
 6f255d8:	0ea565               	call8	6f34030 <__muldi3>
 6f255db:	31df30               	srai	a13, a3, 31
 6f255de:	0b4d                	mov.n	a4, a11
 6f255e0:	31cf60               	srai	a12, a6, 31
 6f255e3:	06ad                	mov.n	a10, a6
 6f255e5:	20bcc0               	or	a11, a12, a12
 6f255e8:	20c330               	or	a12, a3, a3
 6f255eb:	0ea465               	call8	6f34030 <__muldi3>
 6f255ee:	554b                	addi.n	a5, a5, 4
 6f255f0:	9198                	l32i.n	a9, a1, 36
 6f255f2:	774b                	addi.n	a7, a7, 4
 6f255f4:	c4ba                	add.n	a12, a4, a11
 6f255f6:	218ec0               	srai	a8, a12, 14
 6f255f9:	31ddc0               	srai	a13, a12, 29
 6f255fc:	31cfc0               	srai	a12, a12, 31
 6f255ff:	051cd7               	beq	a12, a13, 6f25608 <LSRC_ProcessFrame+0x764>
 6f25602:	faa881               	l32r	a8, 6f240a4 <_stext+0xc4>
 6f25605:	308c80               	xor	a8, a12, a8
 6f25608:	11a800               	slli	a10, a8, 16
 6f2560b:	02a9                	s32i.n	a10, a2, 0
 6f2560d:	224b                	addi.n	a2, a2, 4
 6f2560f:	969797               	bne	a7, a9, 6f255a9 <LSRC_ProcessFrame+0x705>
 6f25612:	162142               	l32i	a4, a1, 88
 6f25615:	172182               	l32i	a8, a1, 92
 6f25618:	2478                	l32i.n	a7, a4, 8
 6f2561a:	0179                	s32i.n	a7, a1, 0
 6f2561c:	4478                	l32i.n	a7, a4, 16
 6f2561e:	5448                	l32i.n	a4, a4, 20
 6f25620:	c1c8                	l32i.n	a12, a1, 48
 6f25622:	1121b2               	l32i	a11, a1, 68
 6f25625:	162192               	l32i	a9, a1, 88
 6f25628:	01a8                	l32i.n	a10, a1, 0
 6f2562a:	581b                	addi.n	a5, a8, 1
 6f2562c:	052d                	mov.n	a2, a5
 6f2562e:	44aa                	add.n	a4, a4, a10
 6f25630:	5949                	s32i.n	a4, a9, 20
 6f25632:	bbca                	add.n	a11, a11, a12
 6f25634:	1161b2               	s32i	a11, a1, 68
 6f25637:	0d3ff54110b0947e 	{ blt.w18	a4, a7, 6f2558c <LSRC_ProcessFrame+0x6e8>; nop }
 6f2563f:	1821c2               	l32i	a12, a1, 96
 6f25642:	fe8d86               	j	6f2507c <LSRC_ProcessFrame+0x1d8>

06f25645 <LSRC_ProcessFrame+0x7a1>:
 6f25645:	1021d2               	l32i	a13, a1, 64
 6f25648:	571da6               	blti	a13, 1, 6f256a3 <LSRC_ProcessFrame+0x7ff>
 6f2564b:	028d                	mov.n	a8, a2
 6f2564d:	03cd                	mov.n	a12, a3
 6f2564f:	20add0               	or	a10, a13, a13
 6f25652:	24e0d0               	extui	a14, a13, 0, 3
 6f25655:	08ae76               	loopgtz	a14, 6f25661 <LSRC_ProcessFrame+0x7bd>
 6f25658:	009cf2               	l16si	a15, a12, 0
 6f2565b:	98f9                	s32i.n	a15, a8, 36
 6f2565d:	cc2b                	addi.n	a12, a12, 2
 6f2565f:	884b                	addi.n	a8, a8, 4

06f25661 <LSRC_ProcessFrame+0x7bd>:
 6f25661:	2123a0               	srai	a2, a10, 3
 6f25664:	08ad                	mov.n	a10, a8
 6f25666:	208cc0               	or	a8, a12, a12
 6f25669:	2da276               	loopgtz	a2, 6f2569a <LSRC_ProcessFrame+0x7f6>
 6f2566c:	009892               	l16si	a9, a8, 0
 6f2566f:	0198b2               	l16si	a11, a8, 2
 6f25672:	0298c2               	l16si	a12, a8, 4
 6f25675:	0398d2               	l16si	a13, a8, 6
 6f25678:	0498e2               	l16si	a14, a8, 8
 6f2567b:	0598f2               	l16si	a15, a8, 10
 6f2567e:	069822               	l16si	a2, a8, 12
 6f25681:	079832               	l16si	a3, a8, 14
 6f25684:	20caa2               	addi	a10, a10, 32
 6f25687:	1a99                	s32i.n	a9, a10, 4
 6f25689:	2ab9                	s32i.n	a11, a10, 8
 6f2568b:	3ac9                	s32i.n	a12, a10, 12
 6f2568d:	4ad9                	s32i.n	a13, a10, 16
 6f2568f:	5ae9                	s32i.n	a14, a10, 20
 6f25691:	6af9                	s32i.n	a15, a10, 24
 6f25693:	7a29                	s32i.n	a2, a10, 28
 6f25695:	8a39                	s32i.n	a3, a10, 32
 6f25697:	10c882               	addi	a8, a8, 16
 6f2569a:	162172               	l32i	a7, a1, 88
 6f2569d:	2788                	l32i.n	a8, a7, 8
 6f2569f:	0189                	s32i.n	a8, a1, 0
 6f256a1:	4778                	l32i.n	a7, a7, 16

06f256a3 <LSRC_ProcessFrame+0x7ff>:
 6f256a3:	1b0c                	movi.n	a11, 1
 6f256a5:	020c                	movi.n	a2, 0
 6f256a7:	1621a2               	l32i	a10, a1, 88
 6f256aa:	950b                	addi.n	a9, a5, -1
 6f256ac:	5199                	s32i.n	a9, a1, 20
 6f256ae:	050c                	movi.n	a5, 0
 6f256b0:	6a49                	s32i.n	a4, a10, 24
 6f256b2:	ff7b46               	j	6f254a3 <LSRC_ProcessFrame+0x5ff>

06f256b5 <LSRC_ProcessFrame+0x811>:
 6f256b5:	045d                	mov.n	a5, a4
 6f256b7:	22b8                	l32i.n	a11, a2, 8
 6f256b9:	01b9                	s32i.n	a11, a1, 0
 6f256bb:	020c                	movi.n	a2, 0
 6f256bd:	0b0c                	movi.n	a11, 0
 6f256bf:	ff7806               	j	6f254a3 <LSRC_ProcessFrame+0x5ff>

06f256c2 <LSRC_ProcessFrame+0x81e>:
 6f256c2:	00000000 41360000                                ......

06f256c8 <DSPTimer1Func>:
 6f256c8:	004136               	entry	a1, 32
 6f256cb:	fa77a1               	l32r	a10, 6f240a8 <_stext+0xc8>
 6f256ce:	8aa8                	l32i.n	a10, a10, 32
 6f256d0:	1a8c                	beqz.n	a10, 6f256d5 <DSPTimer1Func+0xd>
 6f256d2:	000ae0               	callx8	a10

06f256d5 <DSPTimer1Func+0xd>:
 6f256d5:	f01d                	retw.n

06f256d7 <DSPTimer1Func+0xf>:
	...

06f256d8 <TIMER_RegIsrFunc>:
 6f256d8:	004136               	entry	a1, 32
 6f256db:	0132b6               	bltui	a2, 3, 6f256e0 <TIMER_RegIsrFunc+0x8>
 6f256de:	f01d                	retw.n

06f256e0 <TIMER_RegIsrFunc+0x8>:
 6f256e0:	fa7251               	l32r	a5, 6f240a8 <_stext+0xc8>
 6f256e3:	a04220               	addx4	a4, a2, a2
 6f256e6:	a04450               	addx4	a4, a4, a5
 6f256e9:	3439                	s32i.n	a3, a4, 12
 6f256eb:	f01d                	retw.n

06f256ed <TIMER_RegIsrFunc+0x15>:
 6f256ed:	000000                                        ...

06f256f0 <TIMER_DelIsrFunc>:
 6f256f0:	004136               	entry	a1, 32
 6f256f3:	0132b6               	bltui	a2, 3, 6f256f8 <TIMER_DelIsrFunc+0x8>
 6f256f6:	f01d                	retw.n

06f256f8 <TIMER_DelIsrFunc+0x8>:
 6f256f8:	030c                	movi.n	a3, 0
 6f256fa:	fa6b81               	l32r	a8, 6f240a8 <_stext+0xc8>
 6f256fd:	a04220               	addx4	a4, a2, a2
 6f25700:	a04480               	addx4	a4, a4, a8
 6f25703:	3439                	s32i.n	a3, a4, 12
 6f25705:	f01d                	retw.n

06f25707 <TIMER_DelIsrFunc+0x17>:
	...

06f25708 <TIMER_SetEnable>:
 6f25708:	004136               	entry	a1, 32
 6f2570b:	fa67b1               	l32r	a11, 6f240a8 <_stext+0xc8>
 6f2570e:	a0a220               	addx4	a10, a2, a2
 6f25711:	a0aab0               	addx4	a10, a10, a11
 6f25714:	001aa2               	l16ui	a10, a10, 0
 6f25717:	094b25               	call8	6f2ebc8 <LOS_SwtmrStart>
 6f2571a:	f01d                	retw.n

06f2571c <TIMER_SetEnable+0x14>:
 6f2571c:	000000                                        ...

06f2571f <TIMER_SetEnable+0x17>:
	...

06f25720 <TIMER_SetDisable>:
 6f25720:	004136               	entry	a1, 32
 6f25723:	fa61b1               	l32r	a11, 6f240a8 <_stext+0xc8>
 6f25726:	a0a220               	addx4	a10, a2, a2
 6f25729:	a0aab0               	addx4	a10, a10, a11
 6f2572c:	001aa2               	l16ui	a10, a10, 0
 6f2572f:	095065               	call8	6f2ec34 <LOS_SwtmrStop>
 6f25732:	f01d                	retw.n

06f25734 <TIMER_SetDisable+0x14>:
 6f25734:	000000                                        ...

06f25737 <TIMER_SetDisable+0x17>:
	...

06f25738 <TIMER_Init>:
 6f25738:	006136               	entry	a1, 48
 6f2573b:	0232b6               	bltui	a2, 3, 6f25741 <TIMER_Init+0x9>

06f2573e <TIMER_Init+0x6>:
 6f2573e:	f01d                	retw.n

06f25740 <TIMER_Init+0x8>:
	...

06f25741 <TIMER_Init+0x9>:
 6f25741:	19a0a2               	movi	a10, 25
 6f25744:	20d110               	or	a13, a1, a1
 6f25747:	01a0e2               	movi	a14, 1
 6f2574a:	fa58c1               	l32r	a12, 6f240ac <_stext+0xcc>
 6f2574d:	01a0b2               	movi	a11, 1
 6f25750:	fa5681               	l32r	a8, 6f240a8 <_stext+0xc8>
 6f25753:	a04220               	addx4	a4, a2, a2
 6f25756:	a04480               	addx4	a4, a4, a8
 6f25759:	006422               	s32i	a2, a4, 0
 6f2575c:	016432               	s32i	a3, a4, 4
 6f2575f:	44b9                	s32i.n	a11, a4, 16
 6f25761:	24c9                	s32i.n	a12, a4, 8
 6f25763:	093f65               	call8	6f2eb58 <LOS_SwtmrCreate>
 6f25766:	0abd                	mov.n	a11, a10
 6f25768:	6a8c                	beqz.n	a10, 6f25772 <TIMER_Init+0x3a>
 6f2576a:	fa51a1               	l32r	a10, 6f240b0 <_stext+0xd0>
 6f2576d:	164aa5               	call8	6f3bc18 <Osal_Print>
 6f25770:	f01d                	retw.n

06f25772 <TIMER_Init+0x3a>:
 6f25772:	0011a2               	l16ui	a10, a1, 0
 6f25775:	0064a2               	s32i	a10, a4, 0
 6f25778:	0944e5               	call8	6f2ebc8 <LOS_SwtmrStart>
 6f2577b:	20baa0               	or	a11, a10, a10
 6f2577e:	fbca16               	beqz	a10, 6f2573e <TIMER_Init+0x6>
 6f25781:	fa4ca1               	l32r	a10, 6f240b4 <_stext+0xd4>
 6f25784:	164925               	call8	6f3bc18 <Osal_Print>
 6f25787:	000090               	retw

06f2578a <TIMER_Init+0x52>:
 6f2578a:	000000                                        ...

06f2578d <TIMER_Init+0x55>:
 6f2578d:	000000                                        ...

06f25790 <TIMER_DeInit>:
 6f25790:	004136               	entry	a1, 32
 6f25793:	030c                	movi.n	a3, 0
 6f25795:	fa4481               	l32r	a8, 6f240a8 <_stext+0xc8>
 6f25798:	a04220               	addx4	a4, a2, a2
 6f2579b:	a04480               	addx4	a4, a4, a8
 6f2579e:	2439                	s32i.n	a3, a4, 8
 6f257a0:	f01d                	retw.n

06f257a2 <TIMER_DeInit+0x12>:
 6f257a2:	00000000 41360000                                ......

06f257a8 <HI_ADSP_MALLOC>:
 6f257a8:	004136               	entry	a1, 32
 6f257ab:	20a330               	or	a10, a3, a3
 6f257ae:	0eca25               	call8	6f34450 <malloc>
 6f257b1:	202aa0               	or	a2, a10, a10
 6f257b4:	000090               	retw

06f257b7 <HI_ADSP_MALLOC+0xf>:
	...

06f257b8 <HI_ADSP_FREE>:
 6f257b8:	004136               	entry	a1, 32
 6f257bb:	338c                	beqz.n	a3, 6f257c2 <HI_ADSP_FREE+0xa>
 6f257bd:	03ad                	mov.n	a10, a3
 6f257bf:	0eca65               	call8	6f34464 <free>

06f257c2 <HI_ADSP_FREE+0xa>:
 6f257c2:	f01d                	retw.n

06f257c4 <HI_ADSP_FREE+0xc>:
 6f257c4:	000000                                        ...

06f257c7 <HI_ADSP_FREE+0xf>:
	...

06f257c8 <HI_ADSP_V_MALLOC>:
 6f257c8:	004136               	entry	a1, 32
 6f257cb:	20a330               	or	a10, a3, a3
 6f257ce:	0ec825               	call8	6f34450 <malloc>
 6f257d1:	202aa0               	or	a2, a10, a10
 6f257d4:	000090               	retw

06f257d7 <HI_ADSP_V_MALLOC+0xf>:
	...

06f257d8 <HI_ADSP_V_FREE>:
 6f257d8:	004136               	entry	a1, 32
 6f257db:	338c                	beqz.n	a3, 6f257e2 <HI_ADSP_V_FREE+0xa>
 6f257dd:	03ad                	mov.n	a10, a3
 6f257df:	0ec865               	call8	6f34464 <free>

06f257e2 <HI_ADSP_V_FREE+0xa>:
 6f257e2:	f01d                	retw.n

06f257e4 <HI_ADSP_V_FREE+0xc>:
 6f257e4:	000000                                        ...

06f257e7 <HI_ADSP_V_FREE+0xf>:
	...

06f257e8 <HI_ADSP_MALLOC_Aligned>:
 6f257e8:	004136               	entry	a1, 32
 6f257eb:	3624b6               	bltui	a4, 2, 6f25825 <HI_ADSP_MALLOC_Aligned+0x3d>
 6f257ee:	00a182               	movi	a8, 0x100
 6f257f1:	303847               	bltu	a8, a4, 6f25825 <HI_ADSP_MALLOC_Aligned+0x3d>
 6f257f4:	0a0c                	movi.n	a10, 0
 6f257f6:	0a8076               	loop	a0, 6f25804 <HI_ADSP_MALLOC_Aligned+0x1c>
 6f257f9:	aa1b                	addi.n	a10, a10, 1
 6f257fb:	400a00               	ssr	a10
 6f257fe:	919040               	srl	a9, a4
 6f25801:	0329b6               	bltui	a9, 2, 6f25808 <HI_ADSP_MALLOC_Aligned+0x20>

06f25804 <HI_ADSP_MALLOC_Aligned+0x1c>:
 6f25804:	fffb86               	j	6f257f6 <HI_ADSP_MALLOC_Aligned+0xe>

06f25807 <HI_ADSP_MALLOC_Aligned+0x1f>:
	...

06f25808 <HI_ADSP_MALLOC_Aligned+0x20>:
 6f25808:	401a00               	ssl	a10
 6f2580b:	ffafb2               	movi	a11, -1
 6f2580e:	a15b00               	sll	a5, a11
 6f25811:	30b5b0               	xor	a11, a5, a11
 6f25814:	0d8b47               	bany	a11, a4, 6f25825 <HI_ADSP_MALLOC_Aligned+0x3d>
 6f25817:	0eb437               	bgeu	a4, a3, 6f25829 <HI_ADSP_MALLOC_Aligned+0x41>
 6f2581a:	20a330               	or	a10, a3, a3
 6f2581d:	20b440               	or	a11, a4, a4
 6f25820:	1657e5               	call8	6f3bda0 <__umodsi3>
 6f25823:	2a8c                	beqz.n	a10, 6f25829 <HI_ADSP_MALLOC_Aligned+0x41>
 6f25825:	020c                	movi.n	a2, 0
 6f25827:	f01d                	retw.n

06f25829 <HI_ADSP_MALLOC_Aligned+0x41>:
 6f25829:	02ad                	mov.n	a10, a2
 6f2582b:	b34a                	add.n	a11, a3, a4
 6f2582d:	fff7a5               	call8	6f257a8 <HI_ADSP_MALLOC>
 6f25830:	ff1a16               	beqz	a10, 6f25825 <HI_ADSP_MALLOC_Aligned+0x3d>
 6f25833:	2a4a                	add.n	a2, a10, a4
 6f25835:	102520               	and	a2, a5, a2
 6f25838:	ffd2d2               	addmi	a13, a2, 0xffffff00
 6f2583b:	c0c2a0               	sub	a12, a2, a10
 6f2583e:	ff4dc2               	s8i	a12, a13, 255
 6f25841:	f01d                	retw.n

06f25843 <HI_ADSP_MALLOC_Aligned+0x5b>:
	...

06f25844 <HI_ADSP_FREE_Aligned>:
 6f25844:	004136               	entry	a1, 32
 6f25847:	d38c                	beqz.n	a3, 6f25858 <HI_ADSP_FREE_Aligned+0x14>
 6f25849:	ffd3b2               	addmi	a11, a3, 0xffffff00
 6f2584c:	ff0bb2               	l8ui	a11, a11, 255
 6f2584f:	20a220               	or	a10, a2, a2
 6f25852:	c0b3b0               	sub	a11, a3, a11
 6f25855:	fff625               	call8	6f257b8 <HI_ADSP_FREE>

06f25858 <HI_ADSP_FREE_Aligned+0x14>:
 6f25858:	f01d                	retw.n

06f2585a <HI_ADSP_FREE_Aligned+0x16>:
	...

06f2585c <HI_ADSP_VMALLOC_Aligned>:
 6f2585c:	004136               	entry	a1, 32
 6f2585f:	3524b6               	bltui	a4, 2, 6f25898 <HI_ADSP_VMALLOC_Aligned+0x3c>
 6f25862:	00a182               	movi	a8, 0x100
 6f25865:	2f3847               	bltu	a8, a4, 6f25898 <HI_ADSP_VMALLOC_Aligned+0x3c>
 6f25868:	0a0c                	movi.n	a10, 0
 6f2586a:	0a8076               	loop	a0, 6f25878 <HI_ADSP_VMALLOC_Aligned+0x1c>
 6f2586d:	aa1b                	addi.n	a10, a10, 1
 6f2586f:	400a00               	ssr	a10
 6f25872:	919040               	srl	a9, a4
 6f25875:	0229b6               	bltui	a9, 2, 6f2587b <HI_ADSP_VMALLOC_Aligned+0x1f>

06f25878 <HI_ADSP_VMALLOC_Aligned+0x1c>:
 6f25878:	fffb86               	j	6f2586a <HI_ADSP_VMALLOC_Aligned+0xe>

06f2587b <HI_ADSP_VMALLOC_Aligned+0x1f>:
 6f2587b:	401a00               	ssl	a10
 6f2587e:	ffafb2               	movi	a11, -1
 6f25881:	a15b00               	sll	a5, a11
 6f25884:	30b5b0               	xor	a11, a5, a11
 6f25887:	0d8b47               	bany	a11, a4, 6f25898 <HI_ADSP_VMALLOC_Aligned+0x3c>
 6f2588a:	0eb437               	bgeu	a4, a3, 6f2589c <HI_ADSP_VMALLOC_Aligned+0x40>
 6f2588d:	20a330               	or	a10, a3, a3
 6f25890:	20b440               	or	a11, a4, a4
 6f25893:	1650e5               	call8	6f3bda0 <__umodsi3>
 6f25896:	2a8c                	beqz.n	a10, 6f2589c <HI_ADSP_VMALLOC_Aligned+0x40>
 6f25898:	020c                	movi.n	a2, 0
 6f2589a:	f01d                	retw.n

06f2589c <HI_ADSP_VMALLOC_Aligned+0x40>:
 6f2589c:	02ad                	mov.n	a10, a2
 6f2589e:	b34a                	add.n	a11, a3, a4
 6f258a0:	fff265               	call8	6f257c8 <HI_ADSP_V_MALLOC>
 6f258a3:	ff1a16               	beqz	a10, 6f25898 <HI_ADSP_VMALLOC_Aligned+0x3c>
 6f258a6:	2a4a                	add.n	a2, a10, a4
 6f258a8:	102520               	and	a2, a5, a2
 6f258ab:	ffd2d2               	addmi	a13, a2, 0xffffff00
 6f258ae:	c0c2a0               	sub	a12, a2, a10
 6f258b1:	ff4dc2               	s8i	a12, a13, 255
 6f258b4:	f01d                	retw.n

06f258b6 <HI_ADSP_VMALLOC_Aligned+0x5a>:
	...

06f258b8 <HI_ADSP_VFREE_Aligned>:
 6f258b8:	004136               	entry	a1, 32
 6f258bb:	c38c                	beqz.n	a3, 6f258cb <HI_ADSP_VFREE_Aligned+0x13>
 6f258bd:	ffd3b2               	addmi	a11, a3, 0xffffff00
 6f258c0:	ff0bb2               	l8ui	a11, a11, 255
 6f258c3:	02ad                	mov.n	a10, a2
 6f258c5:	c0b3b0               	sub	a11, a3, a11
 6f258c8:	fff0e5               	call8	6f257d8 <HI_ADSP_V_FREE>

06f258cb <HI_ADSP_VFREE_Aligned+0x13>:
 6f258cb:	f01d                	retw.n

06f258cd <HI_ADSP_VFREE_Aligned+0x15>:
 6f258cd:	000000                                        ...

06f258d0 <CIRC_BUF_Flush>:
 6f258d0:	004136               	entry	a1, 32
 6f258d3:	1248                	l32i.n	a4, a2, 4
 6f258d5:	0238                	l32i.n	a3, a2, 0
 6f258d7:	0020c0               	memw
 6f258da:	0338                	l32i.n	a3, a3, 0
 6f258dc:	0020c0               	memw
 6f258df:	0439                	s32i.n	a3, a4, 0
 6f258e1:	f01d                	retw.n

06f258e3 <CIRC_BUF_Flush+0x13>:
	...

06f258e4 <dsp_memcpy>:
 6f258e4:	004136               	entry	a1, 32
 6f258e7:	163526               	beqi	a5, 3, 6f25901 <dsp_memcpy+0x1d>
 6f258ea:	132526               	beqi	a5, 2, 6f25901 <dsp_memcpy+0x1d>

06f258ed <dsp_memcpy+0x9>:
 6f258ed:	20b330               	or	a11, a3, a3
 6f258f0:	20a220               	or	a10, a2, a2
 6f258f3:	20c440               	or	a12, a4, a4
 6f258f6:	1667e5               	call8	6f3bf74 <memcpy>
 6f258f9:	113526               	beqi	a5, 3, 6f2590e <dsp_memcpy+0x2a>
 6f258fc:	0e1526               	beqi	a5, 1, 6f2590e <dsp_memcpy+0x2a>
 6f258ff:	f01d                	retw.n

06f25901 <dsp_memcpy+0x1d>:
 6f25901:	03ad                	mov.n	a10, a3
 6f25903:	04bd                	mov.n	a11, a4
 6f25905:	16a625               	call8	6f3c368 <xthal_dcache_region_invalidate>
 6f25908:	fff846               	j	6f258ed <dsp_memcpy+0x9>

06f2590b <dsp_memcpy+0x27>:
 6f2590b:	000000                                        ...

06f2590e <dsp_memcpy+0x2a>:
 6f2590e:	20b440               	or	a11, a4, a4
 6f25911:	20a220               	or	a10, a2, a2
 6f25914:	16a725               	call8	6f3c388 <xthal_dcache_region_writeback>
 6f25917:	000090               	retw

06f2591a <dsp_memcpy+0x36>:
	...

06f2591c <RBUF_Create>:
 6f2591c:	004136               	entry	a1, 32
 6f2591f:	10a0a2               	movi	a10, 16
 6f25922:	54a0b2               	movi	a11, 84
 6f25925:	ffe825               	call8	6f257a8 <HI_ADSP_MALLOC>
 6f25928:	204aa0               	or	a4, a10, a10
 6f2592b:	050c                	movi.n	a5, 0
 6f2592d:	2acc                	bnez.n	a10, 6f25933 <RBUF_Create+0x17>
 6f2592f:	0259                	s32i.n	a5, a2, 0
 6f25931:	f01d                	retw.n

06f25933 <RBUF_Create+0x17>:
 6f25933:	20b550               	or	a11, a5, a5
 6f25936:	54a0c2               	movi	a12, 84
 6f25939:	168ba5               	call8	6f3c1f4 <memset>
 6f2593c:	20a440               	or	a10, a4, a4
 6f2593f:	20b330               	or	a11, a3, a3
 6f25942:	24a0c2               	movi	a12, 36
 6f25945:	1662e5               	call8	6f3bf74 <memcpy>
 6f25948:	002382               	l32i	a8, a3, 0
 6f2594b:	d89c                	beqz.n	a8, 6f2596c <RBUF_Create+0x50>
 6f2594d:	34a8                	l32i.n	a10, a4, 12
 6f2594f:	4498                	l32i.n	a9, a4, 16
 6f25951:	14b8                	l32i.n	a11, a4, 4
 6f25953:	24c8                	l32i.n	a12, a4, 8
 6f25955:	c4c9                	s32i.n	a12, a4, 48
 6f25957:	b4b9                	s32i.n	a11, a4, 44
 6f25959:	a499                	s32i.n	a9, a4, 40
 6f2595b:	94a9                	s32i.n	a10, a4, 36
 6f2595d:	0020c0               	memw
 6f25960:	0a59                	s32i.n	a5, a10, 0
 6f25962:	0020c0               	memw
 6f25965:	0959                	s32i.n	a5, a9, 0
 6f25967:	0249                	s32i.n	a4, a2, 0
 6f25969:	f01d                	retw.n

06f2596b <RBUF_Create+0x4f>:
	...

06f2596c <RBUF_Create+0x50>:
 6f2596c:	10a0a2               	movi	a10, 16
 6f2596f:	0223b2               	l32i	a11, a3, 8
 6f25972:	0623c2               	l32i	a12, a3, 24
 6f25975:	ffee65               	call8	6f2585c <HI_ADSP_VMALLOC_Aligned>
 6f25978:	ea9c                	beqz.n	a10, 6f2599a <RBUF_Create+0x7e>
 6f2597a:	b4a9                	s32i.n	a10, a4, 44
 6f2597c:	14a9                	s32i.n	a10, a4, 4
 6f2597e:	34e8                	l32i.n	a14, a4, 12
 6f25980:	44d8                	l32i.n	a13, a4, 16
 6f25982:	23f8                	l32i.n	a15, a3, 8
 6f25984:	c4f9                	s32i.n	a15, a4, 48
 6f25986:	24f9                	s32i.n	a15, a4, 8
 6f25988:	a4d9                	s32i.n	a13, a4, 40
 6f2598a:	94e9                	s32i.n	a14, a4, 36
 6f2598c:	0020c0               	memw
 6f2598f:	0e59                	s32i.n	a5, a14, 0
 6f25991:	0020c0               	memw
 6f25994:	0d59                	s32i.n	a5, a13, 0
 6f25996:	0249                	s32i.n	a4, a2, 0
 6f25998:	f01d                	retw.n

06f2599a <RBUF_Create+0x7e>:
 6f2599a:	20b440               	or	a11, a4, a4
 6f2599d:	10a0a2               	movi	a10, 16
 6f259a0:	ffe165               	call8	6f257b8 <HI_ADSP_FREE>
 6f259a3:	006252               	s32i	a5, a2, 0
 6f259a6:	f01d                	retw.n

06f259a8 <RBUF_Create_EXT>:
 6f259a8:	004136               	entry	a1, 32
 6f259ab:	10a0a2               	movi	a10, 16
 6f259ae:	54a0b2               	movi	a11, 84
 6f259b1:	ffdf65               	call8	6f257a8 <HI_ADSP_MALLOC>
 6f259b4:	204aa0               	or	a4, a10, a10
 6f259b7:	050c                	movi.n	a5, 0
 6f259b9:	3acc                	bnez.n	a10, 6f259c0 <RBUF_Create_EXT+0x18>
 6f259bb:	0259                	s32i.n	a5, a2, 0
 6f259bd:	f01d                	retw.n

06f259bf <RBUF_Create_EXT+0x17>:
	...

06f259c0 <RBUF_Create_EXT+0x18>:
 6f259c0:	20b550               	or	a11, a5, a5
 6f259c3:	54a0c2               	movi	a12, 84
 6f259c6:	1682e5               	call8	6f3c1f4 <memset>
 6f259c9:	20a440               	or	a10, a4, a4
 6f259cc:	20b330               	or	a11, a3, a3
 6f259cf:	24a0c2               	movi	a12, 36
 6f259d2:	165a25               	call8	6f3bf74 <memcpy>
 6f259d5:	002382               	l32i	a8, a3, 0
 6f259d8:	289c                	beqz.n	a8, 6f259ee <RBUF_Create_EXT+0x46>
 6f259da:	3498                	l32i.n	a9, a4, 12
 6f259dc:	44a8                	l32i.n	a10, a4, 16
 6f259de:	14b8                	l32i.n	a11, a4, 4
 6f259e0:	24c8                	l32i.n	a12, a4, 8
 6f259e2:	c4c9                	s32i.n	a12, a4, 48
 6f259e4:	b4b9                	s32i.n	a11, a4, 44
 6f259e6:	a4a9                	s32i.n	a10, a4, 40
 6f259e8:	9499                	s32i.n	a9, a4, 36
 6f259ea:	0249                	s32i.n	a4, a2, 0
 6f259ec:	f01d                	retw.n

06f259ee <RBUF_Create_EXT+0x46>:
 6f259ee:	10a0a2               	movi	a10, 16
 6f259f1:	0223b2               	l32i	a11, a3, 8
 6f259f4:	0623c2               	l32i	a12, a3, 24
 6f259f7:	ffe665               	call8	6f2585c <HI_ADSP_VMALLOC_Aligned>
 6f259fa:	4a9c                	beqz.n	a10, 6f25a12 <RBUF_Create_EXT+0x6a>
 6f259fc:	b4a9                	s32i.n	a10, a4, 44
 6f259fe:	14a9                	s32i.n	a10, a4, 4
 6f25a00:	34d8                	l32i.n	a13, a4, 12
 6f25a02:	44e8                	l32i.n	a14, a4, 16
 6f25a04:	23f8                	l32i.n	a15, a3, 8
 6f25a06:	c4f9                	s32i.n	a15, a4, 48
 6f25a08:	24f9                	s32i.n	a15, a4, 8
 6f25a0a:	a4e9                	s32i.n	a14, a4, 40
 6f25a0c:	94d9                	s32i.n	a13, a4, 36
 6f25a0e:	0249                	s32i.n	a4, a2, 0
 6f25a10:	f01d                	retw.n

06f25a12 <RBUF_Create_EXT+0x6a>:
 6f25a12:	20b440               	or	a11, a4, a4
 6f25a15:	10a0a2               	movi	a10, 16
 6f25a18:	ffd9e5               	call8	6f257b8 <HI_ADSP_FREE>
 6f25a1b:	006252               	s32i	a5, a2, 0
 6f25a1e:	f01d                	retw.n

06f25a20 <RBUF_Destroy>:
 6f25a20:	004136               	entry	a1, 32
 6f25a23:	b28c                	beqz.n	a2, 6f25a32 <RBUF_Destroy+0x12>
 6f25a25:	0288                	l32i.n	a8, a2, 0
 6f25a27:	b88c                	beqz.n	a8, 6f25a36 <RBUF_Destroy+0x16>

06f25a29 <RBUF_Destroy+0x9>:
 6f25a29:	20b220               	or	a11, a2, a2
 6f25a2c:	10a0a2               	movi	a10, 16
 6f25a2f:	ffd8a5               	call8	6f257b8 <HI_ADSP_FREE>
 6f25a32:	000090               	retw

06f25a35 <RBUF_Destroy+0x15>:
	...

06f25a36 <RBUF_Destroy+0x16>:
 6f25a36:	0a1c                	movi.n	a10, 16
 6f25a38:	12b8                	l32i.n	a11, a2, 4
 6f25a3a:	ffe7e5               	call8	6f258b8 <HI_ADSP_VFREE_Aligned>
 6f25a3d:	fffa06               	j	6f25a29 <RBUF_Destroy+0x9>

06f25a40 <RBUF_Destroy+0x20>:
 6f25a40:	000000                                        ...

06f25a43 <RBUF_Destroy+0x23>:
	...

06f25a44 <RBUF_ReadData>:
 6f25a44:	008136               	entry	a1, 64
 6f25a47:	0b8216               	beqz	a2, 6f25b03 <RBUF_ReadData+0xbf>
 6f25a4a:	e2f8                	l32i.n	a15, a2, 56
 6f25a4c:	0b0c                	movi.n	a11, 0
 6f25a4e:	11b9                	s32i.n	a11, a1, 4
 6f25a50:	01b9                	s32i.n	a11, a1, 0
 6f25a52:	31b9                	s32i.n	a11, a1, 12
 6f25a54:	21b9                	s32i.n	a11, a1, 8
 6f25a56:	ff1b                	addi.n	a15, a15, 1
 6f25a58:	e2f9                	s32i.n	a15, a2, 56
 6f25a5a:	a2c8                	l32i.n	a12, a2, 40
 6f25a5c:	0020c0               	memw
 6f25a5f:	0ca8                	l32i.n	a10, a12, 0
 6f25a61:	92e8                	l32i.n	a14, a2, 36
 6f25a63:	0020c0               	memw
 6f25a66:	21a9                	s32i.n	a10, a1, 8
 6f25a68:	0ee8                	l32i.n	a14, a14, 0
 6f25a6a:	d4aa                	add.n	a13, a4, a10
 6f25a6c:	0e3ea7               	bltu	a14, a10, 6f25a7e <RBUF_ReadData+0x3a>
 6f25a6f:	0d000a4150b0eede 	{ bltu.w18	a14, a13, 6f25b18 <RBUF_ReadData+0xd4>; nop }
 6f25a77:	0149                	s32i.n	a4, a1, 0
 6f25a79:	5149                	s32i.n	a4, a1, 20
 6f25a7b:	000706               	j	6f25a9b <RBUF_ReadData+0x57>

06f25a7e <RBUF_ReadData+0x3a>:
 6f25a7e:	c2f8                	l32i.n	a15, a2, 48
 6f25a80:	063fd7               	bltu	a15, a13, 6f25a8a <RBUF_ReadData+0x46>
 6f25a83:	0149                	s32i.n	a4, a1, 0
 6f25a85:	5149                	s32i.n	a4, a1, 20
 6f25a87:	000406               	j	6f25a9b <RBUF_ReadData+0x57>

06f25a8a <RBUF_ReadData+0x46>:
 6f25a8a:	31b9                	s32i.n	a11, a1, 12
 6f25a8c:	c0dfa0               	sub	a13, a15, a10
 6f25a8f:	51d9                	s32i.n	a13, a1, 20
 6f25a91:	01d9                	s32i.n	a13, a1, 0
 6f25a93:	c0d4d0               	sub	a13, a4, a13
 6f25a96:	63dde0               	minu	a13, a13, a14
 6f25a99:	11d9                	s32i.n	a13, a1, 4
 6f25a9b:	51e8                	l32i.n	a14, a1, 20
 6f25a9d:	014d                	mov.n	a4, a1
 6f25a9f:	041e16               	beqz	a14, 6f25ae4 <RBUF_ReadData+0xa0>
 6f25aa2:	518b                	addi.n	a5, a1, 8
 6f25aa4:	714b                	addi.n	a7, a1, 4
 6f25aa6:	0168                	l32i.n	a6, a1, 0
 6f25aa8:	03dc                	bnez.n	a3, 6f25abc <RBUF_ReadData+0x78>
 6f25aaa:	444b                	addi.n	a4, a4, 4
 6f25aac:	05a8                	l32i.n	a10, a5, 0
 6f25aae:	554b                	addi.n	a5, a5, 4
 6f25ab0:	aa6a                	add.n	a10, a10, a6
 6f25ab2:	2c3747               	bltu	a7, a4, 6f25ae2 <RBUF_ReadData+0x9e>
 6f25ab5:	0468                	l32i.n	a6, a4, 0
 6f25ab7:	76ac                	beqz.n	a6, 6f25ae2 <RBUF_ReadData+0x9e>
 6f25ab9:	fed316               	beqz	a3, 6f25aaa <RBUF_ReadData+0x66>
 6f25abc:	20a330               	or	a10, a3, a3
 6f25abf:	0b22b2               	l32i	a11, a2, 44
 6f25ac2:	0025c2               	l32i	a12, a5, 0
 6f25ac5:	41c9                	s32i.n	a12, a1, 16
 6f25ac7:	bbca                	add.n	a11, a11, a12
 6f25ac9:	06cd                	mov.n	a12, a6
 6f25acb:	164aa5               	call8	6f3bf74 <memcpy>
 6f25ace:	0b0c                	movi.n	a11, 0
 6f25ad0:	336a                	add.n	a3, a3, a6
 6f25ad2:	554b                	addi.n	a5, a5, 4
 6f25ad4:	41a8                	l32i.n	a10, a1, 16
 6f25ad6:	444b                	addi.n	a4, a4, 4
 6f25ad8:	a6aa                	add.n	a10, a6, a10
 6f25ada:	043747               	bltu	a7, a4, 6f25ae2 <RBUF_ReadData+0x9e>
 6f25add:	0468                	l32i.n	a6, a4, 0
 6f25adf:	fd6656               	bnez	a6, 6f25ab9 <RBUF_ReadData+0x75>
 6f25ae2:	a2c8                	l32i.n	a12, a2, 40
 6f25ae4:	c2e8                	l32i.n	a14, a2, 48
 6f25ae6:	c0eea0               	sub	a14, a14, a10
 6f25ae9:	83abe0               	moveqz	a10, a11, a14
 6f25aec:	0020c0               	memw
 6f25aef:	51d8                	l32i.n	a13, a1, 20
 6f25af1:	1198                	l32i.n	a9, a1, 4
 6f25af3:	0ca9                	s32i.n	a10, a12, 0
 6f25af5:	99da                	add.n	a9, a9, a13
 6f25af7:	d98c                	beqz.n	a9, 6f25b08 <RBUF_ReadData+0xc4>
 6f25af9:	d2f8                	l32i.n	a15, a2, 52
 6f25afb:	ff9a                	add.n	a15, a15, a9
 6f25afd:	d2f9                	s32i.n	a15, a2, 52
 6f25aff:	092d                	mov.n	a2, a9
 6f25b01:	f01d                	retw.n

06f25b03 <RBUF_ReadData+0xbf>:
 6f25b03:	020c                	movi.n	a2, 0
 6f25b05:	f01d                	retw.n

06f25b07 <RBUF_ReadData+0xc3>:
	...

06f25b08 <RBUF_ReadData+0xc4>:
 6f25b08:	d288                	l32i.n	a8, a2, 52
 6f25b0a:	f2a8                	l32i.n	a10, a2, 60
 6f25b0c:	889a                	add.n	a8, a8, a9
 6f25b0e:	aa1b                	addi.n	a10, a10, 1
 6f25b10:	f2a9                	s32i.n	a10, a2, 60
 6f25b12:	d289                	s32i.n	a8, a2, 52
 6f25b14:	092d                	mov.n	a2, a9
 6f25b16:	f01d                	retw.n

06f25b18 <RBUF_ReadData+0xd4>:
 6f25b18:	c0dea0               	sub	a13, a14, a10
 6f25b1b:	51d9                	s32i.n	a13, a1, 20
 6f25b1d:	01d9                	s32i.n	a13, a1, 0
 6f25b1f:	ffde06               	j	6f25a9b <RBUF_ReadData+0x57>

06f25b22 <RBUF_ReadData+0xde>:
	...

06f25b24 <RBUF_WriteData>:
 6f25b24:	008136               	entry	a1, 64
 6f25b27:	0a9216               	beqz	a2, 6f25bd4 <RBUF_WriteData+0xb0>
 6f25b2a:	1222f2               	l32i	a15, a2, 72
 6f25b2d:	0a0c                	movi.n	a10, 0
 6f25b2f:	11a9                	s32i.n	a10, a1, 4
 6f25b31:	01a9                	s32i.n	a10, a1, 0
 6f25b33:	31a9                	s32i.n	a10, a1, 12
 6f25b35:	21a9                	s32i.n	a10, a1, 8
 6f25b37:	ff1b                	addi.n	a15, a15, 1
 6f25b39:	1262f2               	s32i	a15, a2, 72
 6f25b3c:	a2e8                	l32i.n	a14, a2, 40
 6f25b3e:	0020c0               	memw
 6f25b41:	92c8                	l32i.n	a12, a2, 36
 6f25b43:	0ee8                	l32i.n	a14, a14, 0
 6f25b45:	0020c0               	memw
 6f25b48:	0cb8                	l32i.n	a11, a12, 0
 6f25b4a:	21b9                	s32i.n	a11, a1, 8
 6f25b4c:	d4ba                	add.n	a13, a4, a11
 6f25b4e:	103be7               	bltu	a11, a14, 6f25b62 <RBUF_WriteData+0x3e>
 6f25b51:	c2e8                	l32i.n	a14, a2, 48
 6f25b53:	0d00094150b0eede 	{ bltu.w18	a14, a13, 6f25bec <RBUF_WriteData+0xc8>; nop }
 6f25b5b:	0149                	s32i.n	a4, a1, 0
 6f25b5d:	4149                	s32i.n	a4, a1, 16
 6f25b5f:	000406               	j	6f25b73 <RBUF_WriteData+0x4f>

06f25b62 <RBUF_WriteData+0x3e>:
 6f25b62:	06bde7               	bgeu	a13, a14, 6f25b6c <RBUF_WriteData+0x48>
 6f25b65:	0149                	s32i.n	a4, a1, 0
 6f25b67:	4149                	s32i.n	a4, a1, 16
 6f25b69:	000186               	j	6f25b73 <RBUF_WriteData+0x4f>

06f25b6c <RBUF_WriteData+0x48>:
 6f25b6c:	c0aeb0               	sub	a10, a14, a11
 6f25b6f:	41a9                	s32i.n	a10, a1, 16
 6f25b71:	01a9                	s32i.n	a10, a1, 0
 6f25b73:	41d8                	l32i.n	a13, a1, 16
 6f25b75:	bdbc                	beqz.n	a13, 6f25bb4 <RBUF_WriteData+0x90>
 6f25b77:	016d                	mov.n	a6, a1
 6f25b79:	518b                	addi.n	a5, a1, 8
 6f25b7b:	0148                	l32i.n	a4, a1, 0
 6f25b7d:	e1cb                	addi.n	a14, a1, 12
 6f25b7f:	51e9                	s32i.n	a14, a1, 20
 6f25b81:	002572               	l32i	a7, a5, 0
 6f25b84:	0b22a2               	l32i	a10, a2, 44
 6f25b87:	80aa70               	add	a10, a10, a7
 6f25b8a:	83cc                	bnez.n	a3, 6f25b96 <RBUF_WriteData+0x72>
 6f25b8c:	0b0c                	movi.n	a11, 0
 6f25b8e:	04cd                	mov.n	a12, a4
 6f25b90:	166625               	call8	6f3c1f4 <memset>
 6f25b93:	0002c6               	j	6f25ba2 <RBUF_WriteData+0x7e>

06f25b96 <RBUF_WriteData+0x72>:
 6f25b96:	20b330               	or	a11, a3, a3
 6f25b99:	20c440               	or	a12, a4, a4
 6f25b9c:	163d65               	call8	6f3bf74 <memcpy>
 6f25b9f:	803340               	add	a3, a3, a4
 6f25ba2:	b74a                	add.n	a11, a7, a4
 6f25ba4:	664b                	addi.n	a6, a6, 4
 6f25ba6:	51c8                	l32i.n	a12, a1, 20
 6f25ba8:	554b                	addi.n	a5, a5, 4
 6f25baa:	043c57               	bltu	a12, a5, 6f25bb2 <RBUF_WriteData+0x8e>
 6f25bad:	0648                	l32i.n	a4, a6, 0
 6f25baf:	fce456               	bnez	a4, 6f25b81 <RBUF_WriteData+0x5d>
 6f25bb2:	92c8                	l32i.n	a12, a2, 36
 6f25bb4:	c2d8                	l32i.n	a13, a2, 48
 6f25bb6:	013bd7               	bltu	a11, a13, 6f25bbb <RBUF_WriteData+0x97>
 6f25bb9:	0b0c                	movi.n	a11, 0
 6f25bbb:	0020c0               	memw
 6f25bbe:	41a8                	l32i.n	a10, a1, 16
 6f25bc0:	1198                	l32i.n	a9, a1, 4
 6f25bc2:	0cb9                	s32i.n	a11, a12, 0
 6f25bc4:	99aa                	add.n	a9, a9, a10
 6f25bc6:	e98c                	beqz.n	a9, 6f25bd8 <RBUF_WriteData+0xb4>
 6f25bc8:	1122b2               	l32i	a11, a2, 68
 6f25bcb:	bb9a                	add.n	a11, a11, a9
 6f25bcd:	1162b2               	s32i	a11, a2, 68
 6f25bd0:	092d                	mov.n	a2, a9
 6f25bd2:	f01d                	retw.n

06f25bd4 <RBUF_WriteData+0xb0>:
 6f25bd4:	042d                	mov.n	a2, a4
 6f25bd6:	f01d                	retw.n

06f25bd8 <RBUF_WriteData+0xb4>:
 6f25bd8:	1122c2               	l32i	a12, a2, 68
 6f25bdb:	1322d2               	l32i	a13, a2, 76
 6f25bde:	cc9a                	add.n	a12, a12, a9
 6f25be0:	dd1b                	addi.n	a13, a13, 1
 6f25be2:	1362d2               	s32i	a13, a2, 76
 6f25be5:	1162c2               	s32i	a12, a2, 68
 6f25be8:	092d                	mov.n	a2, a9
 6f25bea:	f01d                	retw.n

06f25bec <RBUF_WriteData+0xc8>:
 6f25bec:	31a9                	s32i.n	a10, a1, 12
 6f25bee:	c0feb0               	sub	a15, a14, a11
 6f25bf1:	41f9                	s32i.n	a15, a1, 16
 6f25bf3:	01f9                	s32i.n	a15, a1, 0
 6f25bf5:	c084f0               	sub	a8, a4, a15
 6f25bf8:	1189                	s32i.n	a8, a1, 4
 6f25bfa:	ffdd46               	j	6f25b73 <RBUF_WriteData+0x4f>

06f25bfd <RBUF_WriteData+0xd9>:
 6f25bfd:	000000                                        ...

06f25c00 <RBUF_ReadDataComplete>:
 6f25c00:	006136               	entry	a1, 48
 6f25c03:	074216               	beqz	a2, 6f25c7b <RBUF_ReadDataComplete+0x7b>
 6f25c06:	0d0c                	movi.n	a13, 0
 6f25c08:	11d9                	s32i.n	a13, a1, 4
 6f25c0a:	01d9                	s32i.n	a13, a1, 0
 6f25c0c:	31d9                	s32i.n	a13, a1, 12
 6f25c0e:	21d9                	s32i.n	a13, a1, 8
 6f25c10:	a2c8                	l32i.n	a12, a2, 40
 6f25c12:	0020c0               	memw
 6f25c15:	0c98                	l32i.n	a9, a12, 0
 6f25c17:	9278                	l32i.n	a7, a2, 36
 6f25c19:	0020c0               	memw
 6f25c1c:	2199                	s32i.n	a9, a1, 8
 6f25c1e:	c2b8                	l32i.n	a11, a2, 48
 6f25c20:	0778                	l32i.n	a7, a7, 0
 6f25c22:	639a                	add.n	a6, a3, a9
 6f25c24:	083797               	bltu	a7, a9, 6f25c30 <RBUF_ReadDataComplete+0x30>
 6f25c27:	523767               	bltu	a7, a6, 6f25c7d <RBUF_ReadDataComplete+0x7d>
 6f25c2a:	0139                	s32i.n	a3, a1, 0
 6f25c2c:	000606               	j	6f25c48 <RBUF_ReadDataComplete+0x48>

06f25c2f <RBUF_ReadDataComplete+0x2f>:
	...

06f25c30 <RBUF_ReadDataComplete+0x30>:
 6f25c30:	053b67               	bltu	a11, a6, 6f25c39 <RBUF_ReadDataComplete+0x39>
 6f25c33:	0139                	s32i.n	a3, a1, 0
 6f25c35:	0003c6               	j	6f25c48 <RBUF_ReadDataComplete+0x48>

06f25c38 <RBUF_ReadDataComplete+0x38>:
	...

06f25c39 <RBUF_ReadDataComplete+0x39>:
 6f25c39:	31d9                	s32i.n	a13, a1, 12
 6f25c3b:	c08b90               	sub	a8, a11, a9
 6f25c3e:	0189                	s32i.n	a8, a1, 0
 6f25c40:	c08380               	sub	a8, a3, a8
 6f25c43:	638870               	minu	a8, a8, a7
 6f25c46:	1189                	s32i.n	a8, a1, 4
 6f25c48:	0188                	l32i.n	a8, a1, 0
 6f25c4a:	a89c                	beqz.n	a8, 6f25c68 <RBUF_ReadDataComplete+0x68>
 6f25c4c:	016d                	mov.n	a6, a1
 6f25c4e:	a14b                	addi.n	a10, a1, 4
 6f25c50:	718b                	addi.n	a7, a1, 8
 6f25c52:	0e8076               	loop	a0, 6f25c64 <RBUF_ReadDataComplete+0x64>
 6f25c55:	664b                	addi.n	a6, a6, 4
 6f25c57:	0798                	l32i.n	a9, a7, 0
 6f25c59:	774b                	addi.n	a7, a7, 4
 6f25c5b:	998a                	add.n	a9, a9, a8
 6f25c5d:	073a67               	bltu	a10, a6, 6f25c68 <RBUF_ReadDataComplete+0x68>
 6f25c60:	0688                	l32i.n	a8, a6, 0
 6f25c62:	288c                	beqz.n	a8, 6f25c68 <RBUF_ReadDataComplete+0x68>

06f25c64 <RBUF_ReadDataComplete+0x64>:
 6f25c64:	fffa86               	j	6f25c52 <RBUF_ReadDataComplete+0x52>

06f25c67 <RBUF_ReadDataComplete+0x67>:
	...

06f25c68 <RBUF_ReadDataComplete+0x68>:
 6f25c68:	c0eb90               	sub	a14, a11, a9
 6f25c6b:	839de0               	moveqz	a9, a13, a14
 6f25c6e:	0020c0               	memw
 6f25c71:	0c99                	s32i.n	a9, a12, 0
 6f25c73:	d2a8                	l32i.n	a10, a2, 52
 6f25c75:	aa3a                	add.n	a10, a10, a3
 6f25c77:	d2a9                	s32i.n	a10, a2, 52
 6f25c79:	f01d                	retw.n

06f25c7b <RBUF_ReadDataComplete+0x7b>:
 6f25c7b:	f01d                	retw.n

06f25c7d <RBUF_ReadDataComplete+0x7d>:
 6f25c7d:	c0f790               	sub	a15, a7, a9
 6f25c80:	01f9                	s32i.n	a15, a1, 0
 6f25c82:	fff086               	j	6f25c48 <RBUF_ReadDataComplete+0x48>

06f25c85 <RBUF_ReadDataComplete+0x85>:
 6f25c85:	000000                                        ...

06f25c88 <RBUF_WriteDataComplete>:
 6f25c88:	006136               	entry	a1, 48
 6f25c8b:	076216               	beqz	a2, 6f25d05 <RBUF_WriteDataComplete+0x7d>
 6f25c8e:	0d0c                	movi.n	a13, 0
 6f25c90:	11d9                	s32i.n	a13, a1, 4
 6f25c92:	01d9                	s32i.n	a13, a1, 0
 6f25c94:	31d9                	s32i.n	a13, a1, 12
 6f25c96:	21d9                	s32i.n	a13, a1, 8
 6f25c98:	a248                	l32i.n	a4, a2, 40
 6f25c9a:	0020c0               	memw
 6f25c9d:	92c8                	l32i.n	a12, a2, 36
 6f25c9f:	0448                	l32i.n	a4, a4, 0
 6f25ca1:	0020c0               	memw
 6f25ca4:	c2b8                	l32i.n	a11, a2, 48
 6f25ca6:	0c98                	l32i.n	a9, a12, 0
 6f25ca8:	2199                	s32i.n	a9, a1, 8
 6f25caa:	1c3947               	bltu	a9, a4, 6f25cca <RBUF_WriteDataComplete+0x42>
 6f25cad:	539a                	add.n	a5, a3, a9
 6f25caf:	053b57               	bltu	a11, a5, 6f25cb8 <RBUF_WriteDataComplete+0x30>
 6f25cb2:	0139                	s32i.n	a3, a1, 0
 6f25cb4:	000306               	j	6f25cc4 <RBUF_WriteDataComplete+0x3c>

06f25cb7 <RBUF_WriteDataComplete+0x2f>:
	...

06f25cb8 <RBUF_WriteDataComplete+0x30>:
 6f25cb8:	31d9                	s32i.n	a13, a1, 12
 6f25cba:	c08b90               	sub	a8, a11, a9
 6f25cbd:	0189                	s32i.n	a8, a1, 0
 6f25cbf:	c08380               	sub	a8, a3, a8
 6f25cc2:	1189                	s32i.n	a8, a1, 4
 6f25cc4:	0158                	l32i.n	a5, a1, 0
 6f25cc6:	000106               	j	6f25cce <RBUF_WriteDataComplete+0x46>

06f25cc9 <RBUF_WriteDataComplete+0x41>:
	...

06f25cca <RBUF_WriteDataComplete+0x42>:
 6f25cca:	0139                	s32i.n	a3, a1, 0
 6f25ccc:	035d                	mov.n	a5, a3
 6f25cce:	e59c                	beqz.n	a5, 6f25cf0 <RBUF_WriteDataComplete+0x68>
 6f25cd0:	016d                	mov.n	a6, a1
 6f25cd2:	a14b                	addi.n	a10, a1, 4
 6f25cd4:	718b                	addi.n	a7, a1, 8
 6f25cd6:	002182               	l32i	a8, a1, 0
 6f25cd9:	0e8076               	loop	a0, 6f25ceb <RBUF_WriteDataComplete+0x63>
 6f25cdc:	664b                	addi.n	a6, a6, 4
 6f25cde:	0798                	l32i.n	a9, a7, 0
 6f25ce0:	774b                	addi.n	a7, a7, 4
 6f25ce2:	998a                	add.n	a9, a9, a8
 6f25ce4:	083a67               	bltu	a10, a6, 6f25cf0 <RBUF_WriteDataComplete+0x68>
 6f25ce7:	0688                	l32i.n	a8, a6, 0
 6f25ce9:	388c                	beqz.n	a8, 6f25cf0 <RBUF_WriteDataComplete+0x68>

06f25ceb <RBUF_WriteDataComplete+0x63>:
 6f25ceb:	fffa86               	j	6f25cd9 <RBUF_WriteDataComplete+0x51>

06f25cee <RBUF_WriteDataComplete+0x66>:
	...

06f25cf0 <RBUF_WriteDataComplete+0x68>:
 6f25cf0:	c0eb90               	sub	a14, a11, a9
 6f25cf3:	839de0               	moveqz	a9, a13, a14
 6f25cf6:	0020c0               	memw
 6f25cf9:	0c99                	s32i.n	a9, a12, 0
 6f25cfb:	1122a2               	l32i	a10, a2, 68
 6f25cfe:	aa3a                	add.n	a10, a10, a3
 6f25d00:	1162a2               	s32i	a10, a2, 68
 6f25d03:	f01d                	retw.n

06f25d05 <RBUF_WriteDataComplete+0x7d>:
 6f25d05:	f01d                	retw.n

06f25d07 <RBUF_WriteDataComplete+0x7f>:
	...

06f25d08 <RBUF_QueryInfo>:
 6f25d08:	004136               	entry	a1, 32
 6f25d0b:	087216               	beqz	a2, 6f25d96 <RBUF_QueryInfo+0x8e>
 6f25d0e:	7288                	l32i.n	a8, a2, 28
 6f25d10:	c2d8                	l32i.n	a13, a2, 48
 6f25d12:	b298                	l32i.n	a9, a2, 44
 6f25d14:	0399                	s32i.n	a9, a3, 0
 6f25d16:	33d9                	s32i.n	a13, a3, 12
 6f25d18:	8389                	s32i.n	a8, a3, 32
 6f25d1a:	62b8                	l32i.n	a11, a2, 24
 6f25d1c:	9288                	l32i.n	a8, a2, 36
 6f25d1e:	0020c0               	memw
 6f25d21:	08f8                	l32i.n	a15, a8, 0
 6f25d23:	23f9                	s32i.n	a15, a3, 8
 6f25d25:	a2c8                	l32i.n	a12, a2, 40
 6f25d27:	0020c0               	memw
 6f25d2a:	0ce8                	l32i.n	a14, a12, 0
 6f25d2c:	13e9                	s32i.n	a14, a3, 4
 6f25d2e:	0020c0               	memw
 6f25d31:	0cc8                	l32i.n	a12, a12, 0
 6f25d33:	0020c0               	memw
 6f25d36:	0888                	l32i.n	a8, a8, 0
 6f25d38:	c0fdc0               	sub	a15, a13, a12
 6f25d3b:	c0a8c0               	sub	a10, a8, a12
 6f25d3e:	0638c7               	bltu	a8, a12, 6f25d48 <RBUF_QueryInfo+0x40>
 6f25d41:	43a9                	s32i.n	a10, a3, 16
 6f25d43:	53a9                	s32i.n	a10, a3, 20
 6f25d45:	000146               	j	6f25d4e <RBUF_QueryInfo+0x46>

06f25d48 <RBUF_QueryInfo+0x40>:
 6f25d48:	43f9                	s32i.n	a15, a3, 16
 6f25d4a:	edaa                	add.n	a14, a13, a10
 6f25d4c:	53e9                	s32i.n	a14, a3, 20
 6f25d4e:	a288                	l32i.n	a8, a2, 40
 6f25d50:	0020c0               	memw
 6f25d53:	92c8                	l32i.n	a12, a2, 36
 6f25d55:	0888                	l32i.n	a8, a8, 0
 6f25d57:	0020c0               	memw
 6f25d5a:	0cc8                	l32i.n	a12, a12, 0
 6f25d5c:	c2d8                	l32i.n	a13, a2, 48
 6f25d5e:	c0a8c0               	sub	a10, a8, a12
 6f25d61:	0d3c87               	bltu	a12, a8, 6f25d72 <RBUF_QueryInfo+0x6a>
 6f25d64:	adaa                	add.n	a10, a13, a10
 6f25d66:	73a9                	s32i.n	a10, a3, 28
 6f25d68:	c0ddc0               	sub	a13, a13, a12
 6f25d6b:	63d9                	s32i.n	a13, a3, 24
 6f25d6d:	0001c6               	j	6f25d78 <RBUF_QueryInfo+0x70>

06f25d70 <RBUF_QueryInfo+0x68>:
	...

06f25d72 <RBUF_QueryInfo+0x6a>:
 6f25d72:	63a9                	s32i.n	a10, a3, 24
 6f25d74:	73a9                	s32i.n	a10, a3, 28
 6f25d76:	0add                	mov.n	a13, a10
 6f25d78:	12bba7               	bgeu	a11, a10, 6f25d8e <RBUF_QueryInfo+0x86>
 6f25d7b:	c0ead0               	sub	a14, a10, a13
 6f25d7e:	c0aab0               	sub	a10, a10, a11
 6f25d81:	033eb7               	bltu	a14, a11, 6f25d88 <RBUF_QueryInfo+0x80>
 6f25d84:	73a9                	s32i.n	a10, a3, 28
 6f25d86:	f01d                	retw.n

06f25d88 <RBUF_QueryInfo+0x80>:
 6f25d88:	63a9                	s32i.n	a10, a3, 24
 6f25d8a:	73a9                	s32i.n	a10, a3, 28
 6f25d8c:	f01d                	retw.n

06f25d8e <RBUF_QueryInfo+0x86>:
 6f25d8e:	0f0c                	movi.n	a15, 0
 6f25d90:	63f9                	s32i.n	a15, a3, 24
 6f25d92:	73f9                	s32i.n	a15, a3, 28
 6f25d94:	f01d                	retw.n

06f25d96 <RBUF_QueryInfo+0x8e>:
 6f25d96:	20a330               	or	a10, a3, a3
 6f25d99:	00a0b2               	movi	a11, 0
 6f25d9c:	24a0c2               	movi	a12, 36
 6f25d9f:	164565               	call8	6f3c1f4 <memset>
 6f25da2:	f01d                	retw.n

06f25da4 <RBUF_QueryBusy_ProvideRptr>:
 6f25da4:	004136               	entry	a1, 32
 6f25da7:	e29c                	beqz.n	a2, 6f25dc9 <RBUF_QueryBusy_ProvideRptr+0x25>
 6f25da9:	a258                	l32i.n	a5, a2, 40
 6f25dab:	0020c0               	memw
 6f25dae:	9248                	l32i.n	a4, a2, 36
 6f25db0:	0558                	l32i.n	a5, a5, 0
 6f25db2:	0020c0               	memw
 6f25db5:	0358                	l32i.n	a5, a3, 0
 6f25db7:	0448                	l32i.n	a4, a4, 0
 6f25db9:	c228                	l32i.n	a2, a2, 48
 6f25dbb:	c03450               	sub	a3, a4, a5
 6f25dbe:	033457               	bltu	a4, a5, 6f25dc5 <RBUF_QueryBusy_ProvideRptr+0x21>
 6f25dc1:	032d                	mov.n	a2, a3
 6f25dc3:	f01d                	retw.n

06f25dc5 <RBUF_QueryBusy_ProvideRptr+0x21>:
 6f25dc5:	223a                	add.n	a2, a2, a3
 6f25dc7:	f01d                	retw.n

06f25dc9 <RBUF_QueryBusy_ProvideRptr+0x25>:
 6f25dc9:	020c                	movi.n	a2, 0
 6f25dcb:	f01d                	retw.n

06f25dcd <RBUF_QueryBusy_ProvideRptr+0x29>:
 6f25dcd:	000000                                        ...

06f25dd0 <RBUF_QueryBusy>:
 6f25dd0:	004136               	entry	a1, 32
 6f25dd3:	d29c                	beqz.n	a2, 6f25df4 <RBUF_QueryBusy+0x24>
 6f25dd5:	a248                	l32i.n	a4, a2, 40
 6f25dd7:	0020c0               	memw
 6f25dda:	9238                	l32i.n	a3, a2, 36
 6f25ddc:	0448                	l32i.n	a4, a4, 0
 6f25dde:	0020c0               	memw
 6f25de1:	0338                	l32i.n	a3, a3, 0
 6f25de3:	c228                	l32i.n	a2, a2, 48
 6f25de5:	c05340               	sub	a5, a3, a4
 6f25de8:	043347               	bltu	a3, a4, 6f25df0 <RBUF_QueryBusy+0x20>
 6f25deb:	052d                	mov.n	a2, a5
 6f25ded:	f01d                	retw.n

06f25def <RBUF_QueryBusy+0x1f>:
	...

06f25df0 <RBUF_QueryBusy+0x20>:
 6f25df0:	225a                	add.n	a2, a2, a5
 6f25df2:	f01d                	retw.n

06f25df4 <RBUF_QueryBusy+0x24>:
 6f25df4:	020c                	movi.n	a2, 0
 6f25df6:	f01d                	retw.n

06f25df8 <RBUF_MuteRawData>:
 6f25df8:	006136               	entry	a1, 48
 6f25dfb:	071216               	beqz	a2, 6f25e70 <RBUF_MuteRawData+0x78>
 6f25dfe:	0d0c                	movi.n	a13, 0
 6f25e00:	21d9                	s32i.n	a13, a1, 8
 6f25e02:	31d9                	s32i.n	a13, a1, 12
 6f25e04:	01d9                	s32i.n	a13, a1, 0
 6f25e06:	11d9                	s32i.n	a13, a1, 4
 6f25e08:	a2c8                	l32i.n	a12, a2, 40
 6f25e0a:	0020c0               	memw
 6f25e0d:	0cc8                	l32i.n	a12, a12, 0
 6f25e0f:	92b8                	l32i.n	a11, a2, 36
 6f25e11:	0020c0               	memw
 6f25e14:	21c9                	s32i.n	a12, a1, 8
 6f25e16:	0bb8                	l32i.n	a11, a11, 0
 6f25e18:	a3ca                	add.n	a10, a3, a12
 6f25e1a:	0a3bc7               	bltu	a11, a12, 6f25e28 <RBUF_MuteRawData+0x30>
 6f25e1d:	533ba7               	bltu	a11, a10, 6f25e74 <RBUF_MuteRawData+0x7c>
 6f25e20:	036d                	mov.n	a6, a3
 6f25e22:	0139                	s32i.n	a3, a1, 0
 6f25e24:	000786               	j	6f25e46 <RBUF_MuteRawData+0x4e>

06f25e27 <RBUF_MuteRawData+0x2f>:
	...

06f25e28 <RBUF_MuteRawData+0x30>:
 6f25e28:	c2d8                	l32i.n	a13, a2, 48
 6f25e2a:	036d                	mov.n	a6, a3
 6f25e2c:	053da7               	bltu	a13, a10, 6f25e35 <RBUF_MuteRawData+0x3d>
 6f25e2f:	0139                	s32i.n	a3, a1, 0
 6f25e31:	000446               	j	6f25e46 <RBUF_MuteRawData+0x4e>

06f25e34 <RBUF_MuteRawData+0x3c>:
	...

06f25e35 <RBUF_MuteRawData+0x3d>:
 6f25e35:	c06dc0               	sub	a6, a13, a12
 6f25e38:	0f0c                	movi.n	a15, 0
 6f25e3a:	31f9                	s32i.n	a15, a1, 12
 6f25e3c:	0169                	s32i.n	a6, a1, 0
 6f25e3e:	c0e360               	sub	a14, a3, a6
 6f25e41:	63eeb0               	minu	a14, a14, a11
 6f25e44:	11e9                	s32i.n	a14, a1, 4
 6f25e46:	06ac                	beqz.n	a6, 6f25e6a <RBUF_MuteRawData+0x72>
 6f25e48:	014d                	mov.n	a4, a1
 6f25e4a:	51cb                	addi.n	a5, a1, 12
 6f25e4c:	318b                	addi.n	a3, a1, 8
 6f25e4e:	01c8                	l32i.n	a12, a1, 0
 6f25e50:	0b22b2               	l32i	a11, a2, 44
 6f25e53:	0023a2               	l32i	a10, a3, 0
 6f25e56:	80aab0               	add	a10, a10, a11
 6f25e59:	0b0c                	movi.n	a11, 0
 6f25e5b:	1639a5               	call8	6f3c1f4 <memset>
 6f25e5e:	444b                	addi.n	a4, a4, 4
 6f25e60:	334b                	addi.n	a3, a3, 4
 6f25e62:	043537               	bltu	a5, a3, 6f25e6a <RBUF_MuteRawData+0x72>
 6f25e65:	04c8                	l32i.n	a12, a4, 0
 6f25e67:	fe5c56               	bnez	a12, 6f25e50 <RBUF_MuteRawData+0x58>
 6f25e6a:	1128                	l32i.n	a2, a1, 4
 6f25e6c:	226a                	add.n	a2, a2, a6
 6f25e6e:	f01d                	retw.n

06f25e70 <RBUF_MuteRawData+0x78>:
 6f25e70:	020c                	movi.n	a2, 0
 6f25e72:	f01d                	retw.n

06f25e74 <RBUF_MuteRawData+0x7c>:
 6f25e74:	c06bc0               	sub	a6, a11, a12
 6f25e77:	0169                	s32i.n	a6, a1, 0
 6f25e79:	fff246               	j	6f25e46 <RBUF_MuteRawData+0x4e>

06f25e7c <RBUF_QueryFree>:
 6f25e7c:	004136               	entry	a1, 32
 6f25e7f:	a2ac                	beqz.n	a2, 6f25ead <RBUF_QueryFree+0x31>
 6f25e81:	6258                	l32i.n	a5, a2, 24
 6f25e83:	a248                	l32i.n	a4, a2, 40
 6f25e85:	0020c0               	memw
 6f25e88:	9238                	l32i.n	a3, a2, 36
 6f25e8a:	0448                	l32i.n	a4, a4, 0
 6f25e8c:	0020c0               	memw
 6f25e8f:	0338                	l32i.n	a3, a3, 0
 6f25e91:	c228                	l32i.n	a2, a2, 48
 6f25e93:	c06430               	sub	a6, a4, a3
 6f25e96:	093347               	bltu	a3, a4, 6f25ea3 <RBUF_QueryFree+0x27>
 6f25e99:	226a                	add.n	a2, a2, a6
 6f25e9b:	093527               	bltu	a5, a2, 6f25ea8 <RBUF_QueryFree+0x2c>

06f25e9e <RBUF_QueryFree+0x22>:
 6f25e9e:	020c                	movi.n	a2, 0
 6f25ea0:	f01d                	retw.n

06f25ea2 <RBUF_QueryFree+0x26>:
	...

06f25ea3 <RBUF_QueryFree+0x27>:
 6f25ea3:	062d                	mov.n	a2, a6
 6f25ea5:	f5b567               	bgeu	a5, a6, 6f25e9e <RBUF_QueryFree+0x22>
 6f25ea8:	c02250               	sub	a2, a2, a5
 6f25eab:	f01d                	retw.n

06f25ead <RBUF_QueryFree+0x31>:
 6f25ead:	020c                	movi.n	a2, 0
 6f25eaf:	f01d                	retw.n

06f25eb1 <RBUF_QueryFree+0x35>:
 6f25eb1:	000000                                        ...

06f25eb4 <RBUF_CheckFree>:
 6f25eb4:	004136               	entry	a1, 32
 6f25eb7:	52bc                	beqz.n	a2, 6f25ef0 <RBUF_CheckFree+0x3c>
 6f25eb9:	a258                	l32i.n	a5, a2, 40
 6f25ebb:	6278                	l32i.n	a7, a2, 24
 6f25ebd:	0020c0               	memw
 6f25ec0:	0558                	l32i.n	a5, a5, 0
 6f25ec2:	9248                	l32i.n	a4, a2, 36
 6f25ec4:	0020c0               	memw
 6f25ec7:	0448                	l32i.n	a4, a4, 0
 6f25ec9:	c298                	l32i.n	a9, a2, 48
 6f25ecb:	c08450               	sub	a8, a4, a5
 6f25ece:	c06540               	sub	a6, a5, a4
 6f25ed1:	043457               	bltu	a4, a5, 6f25ed9 <RBUF_CheckFree+0x25>
 6f25ed4:	696a                	add.n	a6, a9, a6
 6f25ed6:	000046               	j	6f25edb <RBUF_CheckFree+0x27>

06f25ed9 <RBUF_CheckFree+0x25>:
 6f25ed9:	898a                	add.n	a8, a9, a8
 6f25edb:	7298                	l32i.n	a9, a2, 28
 6f25edd:	238a                	add.n	a2, a3, a8
 6f25edf:	0db767               	bgeu	a7, a6, 6f25ef0 <RBUF_CheckFree+0x3c>
 6f25ee2:	c06670               	sub	a6, a6, a7
 6f25ee5:	073927               	bltu	a9, a2, 6f25ef0 <RBUF_CheckFree+0x3c>
 6f25ee8:	04b367               	bgeu	a3, a6, 6f25ef0 <RBUF_CheckFree+0x3c>
 6f25eeb:	120c                	movi.n	a2, 1
 6f25eed:	f01d                	retw.n

06f25eef <RBUF_CheckFree+0x3b>:
	...

06f25ef0 <RBUF_CheckFree+0x3c>:
 6f25ef0:	020c                	movi.n	a2, 0
 6f25ef2:	f01d                	retw.n

06f25ef4 <RBUF_Flush>:
 6f25ef4:	004136               	entry	a1, 32
 6f25ef7:	005216               	beqz	a2, 6f25f00 <RBUF_Flush+0xc>
 6f25efa:	24c2a2               	addi	a10, a2, 36
 6f25efd:	ff9d25               	call8	6f258d0 <CIRC_BUF_Flush>

06f25f00 <RBUF_Flush+0xc>:
 6f25f00:	f01d                	retw.n

06f25f02 <RBUF_Flush+0xe>:
	...

06f25f04 <RBUF_ReadDataDma>:
 6f25f04:	008136               	entry	a1, 64
 6f25f07:	05bd                	mov.n	a11, a5
 6f25f09:	0cb216               	beqz	a2, 6f25fd8 <RBUF_ReadDataDma+0xd4>
 6f25f0c:	0c0c                	movi.n	a12, 0
 6f25f0e:	45cc                	bnez.n	a5, 6f25f16 <RBUF_ReadDataDma+0x12>
 6f25f10:	e288                	l32i.n	a8, a2, 56
 6f25f12:	881b                	addi.n	a8, a8, 1
 6f25f14:	e289                	s32i.n	a8, a2, 56

06f25f16 <RBUF_ReadDataDma+0x12>:
 6f25f16:	31c9                	s32i.n	a12, a1, 12
 6f25f18:	21c9                	s32i.n	a12, a1, 8
 6f25f1a:	11c9                	s32i.n	a12, a1, 4
 6f25f1c:	01c9                	s32i.n	a12, a1, 0
 6f25f1e:	a2a8                	l32i.n	a10, a2, 40
 6f25f20:	0020c0               	memw
 6f25f23:	92c8                	l32i.n	a12, a2, 36
 6f25f25:	0aa8                	l32i.n	a10, a10, 0
 6f25f27:	0020c0               	memw
 6f25f2a:	0cc8                	l32i.n	a12, a12, 0
 6f25f2c:	0b8c                	beqz.n	a11, 6f25f30 <RBUF_ReadDataDma+0x2c>
 6f25f2e:	0ba8                	l32i.n	a10, a11, 0
 6f25f30:	21a9                	s32i.n	a10, a1, 8
 6f25f32:	d4aa                	add.n	a13, a4, a10
 6f25f34:	103ca7               	bltu	a12, a10, 6f25f48 <RBUF_ReadDataDma+0x44>
 6f25f37:	41b9                	s32i.n	a11, a1, 16
 6f25f39:	0d000941f0b0ecde 	{ bltu.w18	a12, a13, 6f25fdc <RBUF_ReadDataDma+0xd8>; nop }
 6f25f41:	0149                	s32i.n	a4, a1, 0
 6f25f43:	5149                	s32i.n	a4, a1, 20
 6f25f45:	000886               	j	6f25f6b <RBUF_ReadDataDma+0x67>

06f25f48 <RBUF_ReadDataDma+0x44>:
 6f25f48:	c2e8                	l32i.n	a14, a2, 48
 6f25f4a:	41b9                	s32i.n	a11, a1, 16
 6f25f4c:	083ed7               	bltu	a14, a13, 6f25f58 <RBUF_ReadDataDma+0x54>
 6f25f4f:	0149                	s32i.n	a4, a1, 0
 6f25f51:	5149                	s32i.n	a4, a1, 20
 6f25f53:	000506               	j	6f25f6b <RBUF_ReadDataDma+0x67>

06f25f56 <RBUF_ReadDataDma+0x52>:
	...

06f25f58 <RBUF_ReadDataDma+0x54>:
 6f25f58:	c08ea0               	sub	a8, a14, a10
 6f25f5b:	090c                	movi.n	a9, 0
 6f25f5d:	3199                	s32i.n	a9, a1, 12
 6f25f5f:	5189                	s32i.n	a8, a1, 20
 6f25f61:	0189                	s32i.n	a8, a1, 0
 6f25f63:	c08480               	sub	a8, a4, a8
 6f25f66:	6388c0               	minu	a8, a8, a12
 6f25f69:	1189                	s32i.n	a8, a1, 4
 6f25f6b:	51b8                	l32i.n	a11, a1, 20
 6f25f6d:	618b                	addi.n	a6, a1, 8
 6f25f6f:	8bbc                	beqz.n	a11, 6f25fab <RBUF_ReadDataDma+0xa7>
 6f25f71:	017d                	mov.n	a7, a1
 6f25f73:	0148                	l32i.n	a4, a1, 0
 6f25f75:	c1cb                	addi.n	a12, a1, 12
 6f25f77:	61c9                	s32i.n	a12, a1, 24
 6f25f79:	0000c6               	j	6f25f80 <RBUF_ReadDataDma+0x7c>

06f25f7c <RBUF_ReadDataDma+0x78>:
 6f25f7c:	0748                	l32i.n	a4, a7, 0
 6f25f7e:	94ac                	beqz.n	a4, 6f25fab <RBUF_ReadDataDma+0xa7>
 6f25f80:	002652               	l32i	a5, a6, 0
 6f25f83:	0b22a2               	l32i	a10, a2, 44
 6f25f86:	20b440               	or	a11, a4, a4
 6f25f89:	80aa50               	add	a10, a10, a5
 6f25f8c:	0761a2               	s32i	a10, a1, 28
 6f25f8f:	163da5               	call8	6f3c368 <xthal_dcache_region_invalidate>
 6f25f92:	00a316               	beqz	a3, 6f25fa0 <RBUF_ReadDataDma+0x9c>
 6f25f95:	03ad                	mov.n	a10, a3
 6f25f97:	71b8                	l32i.n	a11, a1, 28
 6f25f99:	04cd                	mov.n	a12, a4
 6f25f9b:	15fda5               	call8	6f3bf74 <memcpy>
 6f25f9e:	334a                	add.n	a3, a3, a4
 6f25fa0:	a54a                	add.n	a10, a5, a4
 6f25fa2:	774b                	addi.n	a7, a7, 4
 6f25fa4:	61b8                	l32i.n	a11, a1, 24
 6f25fa6:	664b                	addi.n	a6, a6, 4
 6f25fa8:	d0bb67               	bgeu	a11, a6, 6f25f7c <RBUF_ReadDataDma+0x78>
 6f25fab:	41c8                	l32i.n	a12, a1, 16
 6f25fad:	0d0c                	movi.n	a13, 0
 6f25faf:	51b8                	l32i.n	a11, a1, 20
 6f25fb1:	c2e8                	l32i.n	a14, a2, 48
 6f25fb3:	1198                	l32i.n	a9, a1, 4
 6f25fb5:	c0eea0               	sub	a14, a14, a10
 6f25fb8:	99ba                	add.n	a9, a9, a11
 6f25fba:	83ade0               	moveqz	a10, a13, a14
 6f25fbd:	1cdc                	bnez.n	a12, 6f25fd2 <RBUF_ReadDataDma+0xce>
 6f25fbf:	a2c8                	l32i.n	a12, a2, 40
 6f25fc1:	0020c0               	memw
 6f25fc4:	0ca9                	s32i.n	a10, a12, 0
 6f25fc6:	c99c                	beqz.n	a9, 6f25fe6 <RBUF_ReadDataDma+0xe2>
 6f25fc8:	d2d8                	l32i.n	a13, a2, 52
 6f25fca:	dd9a                	add.n	a13, a13, a9
 6f25fcc:	d2d9                	s32i.n	a13, a2, 52
 6f25fce:	092d                	mov.n	a2, a9
 6f25fd0:	f01d                	retw.n

06f25fd2 <RBUF_ReadDataDma+0xce>:
 6f25fd2:	0ca9                	s32i.n	a10, a12, 0
 6f25fd4:	092d                	mov.n	a2, a9
 6f25fd6:	f01d                	retw.n

06f25fd8 <RBUF_ReadDataDma+0xd4>:
 6f25fd8:	020c                	movi.n	a2, 0
 6f25fda:	f01d                	retw.n

06f25fdc <RBUF_ReadDataDma+0xd8>:
 6f25fdc:	c0fca0               	sub	a15, a12, a10
 6f25fdf:	51f9                	s32i.n	a15, a1, 20
 6f25fe1:	01f9                	s32i.n	a15, a1, 0
 6f25fe3:	ffe106               	j	6f25f6b <RBUF_ReadDataDma+0x67>

06f25fe6 <RBUF_ReadDataDma+0xe2>:
 6f25fe6:	d2d8                	l32i.n	a13, a2, 52
 6f25fe8:	f288                	l32i.n	a8, a2, 60
 6f25fea:	dd9a                	add.n	a13, a13, a9
 6f25fec:	881b                	addi.n	a8, a8, 1
 6f25fee:	f289                	s32i.n	a8, a2, 60
 6f25ff0:	d2d9                	s32i.n	a13, a2, 52
 6f25ff2:	092d                	mov.n	a2, a9
 6f25ff4:	f01d                	retw.n

06f25ff6 <RBUF_ReadDataDma+0xf2>:
	...

06f25ff8 <RBUF_WriteDataDma>:
 6f25ff8:	008136               	entry	a1, 64
 6f25ffb:	0c2216               	beqz	a2, 6f260c1 <RBUF_WriteDataDma+0xc9>
 6f25ffe:	1222f2               	l32i	a15, a2, 72
 6f26001:	0a0c                	movi.n	a10, 0
 6f26003:	11a9                	s32i.n	a10, a1, 4
 6f26005:	01a9                	s32i.n	a10, a1, 0
 6f26007:	31a9                	s32i.n	a10, a1, 12
 6f26009:	21a9                	s32i.n	a10, a1, 8
 6f2600b:	ff1b                	addi.n	a15, a15, 1
 6f2600d:	1262f2               	s32i	a15, a2, 72
 6f26010:	a2e8                	l32i.n	a14, a2, 40
 6f26012:	0020c0               	memw
 6f26015:	92c8                	l32i.n	a12, a2, 36
 6f26017:	0ee8                	l32i.n	a14, a14, 0
 6f26019:	0020c0               	memw
 6f2601c:	0cb8                	l32i.n	a11, a12, 0
 6f2601e:	21b9                	s32i.n	a11, a1, 8
 6f26020:	d4ba                	add.n	a13, a4, a11
 6f26022:	123be7               	bltu	a11, a14, 6f26038 <RBUF_WriteDataDma+0x40>
 6f26025:	c2e8                	l32i.n	a14, a2, 48
 6f26027:	0d000a41e0b0eede 	{ bltu.w18	a14, a13, 6f260d9 <RBUF_WriteDataDma+0xe1>; nop }
 6f2602f:	0149                	s32i.n	a4, a1, 0
 6f26031:	4149                	s32i.n	a4, a1, 16
 6f26033:	000506               	j	6f2604b <RBUF_WriteDataDma+0x53>

06f26036 <RBUF_WriteDataDma+0x3e>:
	...

06f26038 <RBUF_WriteDataDma+0x40>:
 6f26038:	08bde7               	bgeu	a13, a14, 6f26044 <RBUF_WriteDataDma+0x4c>
 6f2603b:	0149                	s32i.n	a4, a1, 0
 6f2603d:	4149                	s32i.n	a4, a1, 16
 6f2603f:	000206               	j	6f2604b <RBUF_WriteDataDma+0x53>

06f26042 <RBUF_WriteDataDma+0x4a>:
	...

06f26044 <RBUF_WriteDataDma+0x4c>:
 6f26044:	c0aeb0               	sub	a10, a14, a11
 6f26047:	41a9                	s32i.n	a10, a1, 16
 6f26049:	01a9                	s32i.n	a10, a1, 0
 6f2604b:	41d8                	l32i.n	a13, a1, 16
 6f2604d:	04fd16               	beqz	a13, 6f260a0 <RBUF_WriteDataDma+0xa8>
 6f26050:	016d                	mov.n	a6, a1
 6f26052:	518b                	addi.n	a5, a1, 8
 6f26054:	0148                	l32i.n	a4, a1, 0
 6f26056:	e1cb                	addi.n	a14, a1, 12
 6f26058:	51e9                	s32i.n	a14, a1, 20
 6f2605a:	0b2272               	l32i	a7, a2, 44
 6f2605d:	002582               	l32i	a8, a5, 0
 6f26060:	066182               	s32i	a8, a1, 24
 6f26063:	778a                	add.n	a7, a7, a8
 6f26065:	b3cc                	bnez.n	a3, 6f26074 <RBUF_WriteDataDma+0x7c>
 6f26067:	07ad                	mov.n	a10, a7
 6f26069:	0b0c                	movi.n	a11, 0
 6f2606b:	04cd                	mov.n	a12, a4
 6f2606d:	161865               	call8	6f3c1f4 <memset>
 6f26070:	000386               	j	6f26082 <RBUF_WriteDataDma+0x8a>

06f26073 <RBUF_WriteDataDma+0x7b>:
	...

06f26074 <RBUF_WriteDataDma+0x7c>:
 6f26074:	20a770               	or	a10, a7, a7
 6f26077:	20b330               	or	a11, a3, a3
 6f2607a:	20c440               	or	a12, a4, a4
 6f2607d:	15ef65               	call8	6f3bf74 <memcpy>
 6f26080:	334a                	add.n	a3, a3, a4
 6f26082:	20a770               	or	a10, a7, a7
 6f26085:	20b440               	or	a11, a4, a4
 6f26088:	162fe5               	call8	6f3c388 <xthal_dcache_region_writeback>
 6f2608b:	04c662               	addi	a6, a6, 4
 6f2608e:	554b                	addi.n	a5, a5, 4
 6f26090:	61b8                	l32i.n	a11, a1, 24
 6f26092:	5198                	l32i.n	a9, a1, 20
 6f26094:	bb4a                	add.n	a11, a11, a4
 6f26096:	043957               	bltu	a9, a5, 6f2609e <RBUF_WriteDataDma+0xa6>
 6f26099:	0648                	l32i.n	a4, a6, 0
 6f2609b:	fbb456               	bnez	a4, 6f2605a <RBUF_WriteDataDma+0x62>
 6f2609e:	92c8                	l32i.n	a12, a2, 36
 6f260a0:	c2d8                	l32i.n	a13, a2, 48
 6f260a2:	023bd7               	bltu	a11, a13, 6f260a8 <RBUF_WriteDataDma+0xb0>
 6f260a5:	00a0b2               	movi	a11, 0
 6f260a8:	0020c0               	memw
 6f260ab:	41a8                	l32i.n	a10, a1, 16
 6f260ad:	1198                	l32i.n	a9, a1, 4
 6f260af:	0cb9                	s32i.n	a11, a12, 0
 6f260b1:	99aa                	add.n	a9, a9, a10
 6f260b3:	e98c                	beqz.n	a9, 6f260c5 <RBUF_WriteDataDma+0xcd>
 6f260b5:	1122b2               	l32i	a11, a2, 68
 6f260b8:	bb9a                	add.n	a11, a11, a9
 6f260ba:	1162b2               	s32i	a11, a2, 68
 6f260bd:	092d                	mov.n	a2, a9
 6f260bf:	f01d                	retw.n

06f260c1 <RBUF_WriteDataDma+0xc9>:
 6f260c1:	042d                	mov.n	a2, a4
 6f260c3:	f01d                	retw.n

06f260c5 <RBUF_WriteDataDma+0xcd>:
 6f260c5:	1122c2               	l32i	a12, a2, 68
 6f260c8:	1322d2               	l32i	a13, a2, 76
 6f260cb:	cc9a                	add.n	a12, a12, a9
 6f260cd:	dd1b                	addi.n	a13, a13, 1
 6f260cf:	1362d2               	s32i	a13, a2, 76
 6f260d2:	1162c2               	s32i	a12, a2, 68
 6f260d5:	092d                	mov.n	a2, a9
 6f260d7:	f01d                	retw.n

06f260d9 <RBUF_WriteDataDma+0xe1>:
 6f260d9:	31a9                	s32i.n	a10, a1, 12
 6f260db:	c0feb0               	sub	a15, a14, a11
 6f260de:	41f9                	s32i.n	a15, a1, 16
 6f260e0:	01f9                	s32i.n	a15, a1, 0
 6f260e2:	c084f0               	sub	a8, a4, a15
 6f260e5:	1189                	s32i.n	a8, a1, 4
 6f260e7:	ffd806               	j	6f2604b <RBUF_WriteDataDma+0x53>

06f260ea <RBUF_WriteDataDma+0xf2>:
	...

06f260ec <RBUF_CopyData>:
 6f260ec:	00a136               	entry	a1, 80
 6f260ef:	0fe216               	beqz	a2, 6f261f1 <RBUF_CopyData+0x105>
 6f260f2:	0fb316               	beqz	a3, 6f261f1 <RBUF_CopyData+0x105>
 6f260f5:	080c                	movi.n	a8, 0
 6f260f7:	2189                	s32i.n	a8, a1, 8
 6f260f9:	3189                	s32i.n	a8, a1, 12
 6f260fb:	0189                	s32i.n	a8, a1, 0
 6f260fd:	1189                	s32i.n	a8, a1, 4
 6f260ff:	a278                	l32i.n	a7, a2, 40
 6f26101:	0020c0               	memw
 6f26104:	9368                	l32i.n	a6, a3, 36
 6f26106:	07d8                	l32i.n	a13, a7, 0
 6f26108:	0020c0               	memw
 6f2610b:	b3a8                	l32i.n	a10, a3, 44
 6f2610d:	b2b8                	l32i.n	a11, a2, 44
 6f2610f:	06c8                	l32i.n	a12, a6, 0
 6f26111:	0020c0               	memw
 6f26114:	0778                	l32i.n	a7, a7, 0
 6f26116:	92e8                	l32i.n	a14, a2, 36
 6f26118:	0020c0               	memw
 6f2611b:	0ee8                	l32i.n	a14, a14, 0
 6f2611d:	f47a                	add.n	a15, a4, a7
 6f2611f:	153e77               	bltu	a14, a7, 6f26138 <RBUF_CopyData+0x4c>
 6f26122:	91b9                	s32i.n	a11, a1, 36
 6f26124:	81a9                	s32i.n	a10, a1, 32
 6f26126:	61c9                	s32i.n	a12, a1, 24
 6f26128:	0d00124140b0eefe 	{ bltu.w18	a14, a15, 6f26250 <RBUF_CopyData+0x164>; nop }
 6f26130:	0149                	s32i.n	a4, a1, 0
 6f26132:	047d                	mov.n	a7, a4
 6f26134:	000506               	j	6f2614c <RBUF_CopyData+0x60>

06f26137 <RBUF_CopyData+0x4b>:
	...

06f26138 <RBUF_CopyData+0x4c>:
 6f26138:	91b9                	s32i.n	a11, a1, 36
 6f2613a:	81a9                	s32i.n	a10, a1, 32
 6f2613c:	c298                	l32i.n	a9, a2, 48
 6f2613e:	61c9                	s32i.n	a12, a1, 24
 6f26140:	0d00114150b0e9fe 	{ bltu.w18	a9, a15, 6f26259 <RBUF_CopyData+0x16d>; nop }
 6f26148:	0149                	s32i.n	a4, a1, 0
 6f2614a:	047d                	mov.n	a7, a4
 6f2614c:	1e0c                	movi.n	a14, 1
 6f2614e:	a3f8                	l32i.n	a15, a3, 40
 6f26150:	0020c0               	memw
 6f26153:	0ff8                	l32i.n	a15, a15, 0
 6f26155:	0020c0               	memw
 6f26158:	0668                	l32i.n	a6, a6, 0
 6f2615a:	81b8                	l32i.n	a11, a1, 32
 6f2615c:	c46a                	add.n	a12, a4, a6
 6f2615e:	1036f7               	bltu	a6, a15, 6f26172 <RBUF_CopyData+0x86>
 6f26161:	c3f8                	l32i.n	a15, a3, 48
 6f26163:	0d00104160b0efce 	{ bltu.w18	a15, a12, 6f2626d <RBUF_CopyData+0x181>; nop }
 6f2616b:	2149                	s32i.n	a4, a1, 8
 6f2616d:	046d                	mov.n	a6, a4
 6f2616f:	0001c6               	j	6f2617a <RBUF_CopyData+0x8e>

06f26172 <RBUF_CopyData+0x86>:
 6f26172:	f53cf7               	bltu	a12, a15, 6f2616b <RBUF_CopyData+0x7f>
 6f26175:	c06f60               	sub	a6, a15, a6
 6f26178:	2169                	s32i.n	a6, a1, 8
 6f2617a:	71d9                	s32i.n	a13, a1, 28
 6f2617c:	0d401641a0b01e0e 	{ beqi.w18	a14, 1, 6f262ea <RBUF_CopyData+0x1fe>; nop }
 6f26184:	0d40184100b02e0e 	{ beqi.w18	a14, 2, 6f26308 <RBUF_CopyData+0x21c>; nop }
 6f2618c:	61a8                	l32i.n	a10, a1, 24
 6f2618e:	aaba                	add.n	a10, a10, a11
 6f26190:	91b8                	l32i.n	a11, a1, 36
 6f26192:	bdba                	add.n	a11, a13, a11
 6f26194:	0d00114160b0867e 	{ beq.w18	a6, a7, 6f262ae <RBUF_CopyData+0x1c2>; nop }
 6f2619c:	71d9                	s32i.n	a13, a1, 28
 6f2619e:	54b677               	bgeu	a6, a7, 6f261f6 <RBUF_CopyData+0x10a>
 6f261a1:	06cd                	mov.n	a12, a6
 6f261a3:	05dd                	mov.n	a13, a5
 6f261a5:	ff73e5               	call8	6f258e4 <dsp_memcpy>
 6f261a8:	81a8                	l32i.n	a10, a1, 32
 6f261aa:	05dd                	mov.n	a13, a5
 6f261ac:	c07760               	sub	a7, a7, a6
 6f261af:	71b8                	l32i.n	a11, a1, 28
 6f261b1:	91c8                	l32i.n	a12, a1, 36
 6f261b3:	bb6a                	add.n	a11, a11, a6
 6f261b5:	bbca                	add.n	a11, a11, a12
 6f261b7:	07cd                	mov.n	a12, a7
 6f261b9:	ff72a5               	call8	6f258e4 <dsp_memcpy>
 6f261bc:	91b8                	l32i.n	a11, a1, 36
 6f261be:	05dd                	mov.n	a13, a5
 6f261c0:	81a8                	l32i.n	a10, a1, 32
 6f261c2:	1168                	l32i.n	a6, a1, 4
 6f261c4:	a7aa                	add.n	a10, a7, a10
 6f261c6:	06cd                	mov.n	a12, a6
 6f261c8:	ff71a5               	call8	6f258e4 <dsp_memcpy>
 6f261cb:	a2d8                	l32i.n	a13, a2, 40
 6f261cd:	0e0c                	movi.n	a14, 0
 6f261cf:	c288                	l32i.n	a8, a2, 48
 6f261d1:	c3f8                	l32i.n	a15, a3, 48
 6f261d3:	b76a                	add.n	a11, a7, a6
 6f261d5:	c0ffb0               	sub	a15, a15, a11
 6f261d8:	c08860               	sub	a8, a8, a6
 6f261db:	836e80               	moveqz	a6, a14, a8
 6f261de:	83bef0               	moveqz	a11, a14, a15
 6f261e1:	0020c0               	memw
 6f261e4:	0d69                	s32i.n	a6, a13, 0
 6f261e6:	93c8                	l32i.n	a12, a3, 36
 6f261e8:	0020c0               	memw
 6f261eb:	0cb9                	s32i.n	a11, a12, 0
 6f261ed:	042d                	mov.n	a2, a4
 6f261ef:	f01d                	retw.n

06f261f1 <RBUF_CopyData+0x105>:
 6f261f1:	020c                	movi.n	a2, 0
 6f261f3:	f01d                	retw.n

06f261f5 <RBUF_CopyData+0x109>:
	...

06f261f6 <RBUF_CopyData+0x10a>:
 6f261f6:	07cd                	mov.n	a12, a7
 6f261f8:	05dd                	mov.n	a13, a5
 6f261fa:	ff6ea5               	call8	6f258e4 <dsp_memcpy>
 6f261fd:	05dd                	mov.n	a13, a5
 6f261ff:	81b8                	l32i.n	a11, a1, 32
 6f26201:	61a8                	l32i.n	a10, a1, 24
 6f26203:	c0c670               	sub	a12, a6, a7
 6f26206:	a1c9                	s32i.n	a12, a1, 40
 6f26208:	aa7a                	add.n	a10, a10, a7
 6f2620a:	aaba                	add.n	a10, a10, a11
 6f2620c:	91b8                	l32i.n	a11, a1, 36
 6f2620e:	ff6d65               	call8	6f258e4 <dsp_memcpy>
 6f26211:	81a8                	l32i.n	a10, a1, 32
 6f26213:	05dd                	mov.n	a13, a5
 6f26215:	91c8                	l32i.n	a12, a1, 36
 6f26217:	a1b8                	l32i.n	a11, a1, 40
 6f26219:	3168                	l32i.n	a6, a1, 12
 6f2621b:	bbca                	add.n	a11, a11, a12
 6f2621d:	06cd                	mov.n	a12, a6
 6f2621f:	ff6c65               	call8	6f258e4 <dsp_memcpy>
 6f26222:	a178                	l32i.n	a7, a1, 40
 6f26224:	6169                	s32i.n	a6, a1, 24
 6f26226:	776a                	add.n	a7, a7, a6
 6f26228:	a2a8                	l32i.n	a10, a2, 40
 6f2622a:	0b0c                	movi.n	a11, 0
 6f2622c:	6188                	l32i.n	a8, a1, 24
 6f2622e:	c2c8                	l32i.n	a12, a2, 48
 6f26230:	c3d8                	l32i.n	a13, a3, 48
 6f26232:	c0cc70               	sub	a12, a12, a7
 6f26235:	c0dd80               	sub	a13, a13, a8
 6f26238:	837bc0               	moveqz	a7, a11, a12
 6f2623b:	838bd0               	moveqz	a8, a11, a13
 6f2623e:	0020c0               	memw
 6f26241:	0a79                	s32i.n	a7, a10, 0
 6f26243:	9398                	l32i.n	a9, a3, 36
 6f26245:	0020c0               	memw
 6f26248:	0989                	s32i.n	a8, a9, 0
 6f2624a:	042d                	mov.n	a2, a4
 6f2624c:	f01d                	retw.n

06f2624e <RBUF_CopyData+0x162>:
	...

06f26250 <RBUF_CopyData+0x164>:
 6f26250:	c07e70               	sub	a7, a14, a7
 6f26253:	0179                	s32i.n	a7, a1, 0
 6f26255:	ffbcc6               	j	6f2614c <RBUF_CopyData+0x60>

06f26258 <RBUF_CopyData+0x16c>:
	...

06f26259 <RBUF_CopyData+0x16d>:
 6f26259:	c07970               	sub	a7, a9, a7
 6f2625c:	0179                	s32i.n	a7, a1, 0
 6f2625e:	c0f470               	sub	a15, a4, a7
 6f26261:	11f9                	s32i.n	a15, a1, 4
 6f26263:	01bef7               	bgeu	a14, a15, 6f26268 <RBUF_CopyData+0x17c>
 6f26266:	11e9                	s32i.n	a14, a1, 4
 6f26268:	2e0c                	movi.n	a14, 2
 6f2626a:	ffb806               	j	6f2614e <RBUF_CopyData+0x62>

06f2626d <RBUF_CopyData+0x181>:
 6f2626d:	71d9                	s32i.n	a13, a1, 28
 6f2626f:	c06f60               	sub	a6, a15, a6
 6f26272:	2169                	s32i.n	a6, a1, 8
 6f26274:	c09460               	sub	a9, a4, a6
 6f26277:	5199                	s32i.n	a9, a1, 20
 6f26279:	3199                	s32i.n	a9, a1, 12
 6f2627b:	0d7ff041d0b01ece 	{ bnei.w18	a14, 1, 6f2618c <RBUF_CopyData+0xa0>; nop }
 6f26283:	81b8                	l32i.n	a11, a1, 32
 6f26285:	61a8                	l32i.n	a10, a1, 24
 6f26287:	06cd                	mov.n	a12, a6
 6f26289:	aaba                	add.n	a10, a10, a11
 6f2628b:	91b8                	l32i.n	a11, a1, 36
 6f2628d:	0d7d                	mov.n	a7, a13
 6f2628f:	bdba                	add.n	a11, a13, a11
 6f26291:	05dd                	mov.n	a13, a5
 6f26293:	ff6525               	call8	6f258e4 <dsp_memcpy>
 6f26296:	81a8                	l32i.n	a10, a1, 32
 6f26298:	51c8                	l32i.n	a12, a1, 20
 6f2629a:	05dd                	mov.n	a13, a5
 6f2629c:	91b8                	l32i.n	a11, a1, 36
 6f2629e:	776a                	add.n	a7, a7, a6
 6f262a0:	b7ba                	add.n	a11, a7, a11
 6f262a2:	ff6425               	call8	6f258e4 <dsp_memcpy>
 6f262a5:	51c8                	l32i.n	a12, a1, 20
 6f262a7:	61c9                	s32i.n	a12, a1, 24
 6f262a9:	77ca                	add.n	a7, a7, a12
 6f262ab:	ffde46               	j	6f26228 <RBUF_CopyData+0x13c>

06f262ae <RBUF_CopyData+0x1c2>:
 6f262ae:	06cd                	mov.n	a12, a6
 6f262b0:	05dd                	mov.n	a13, a5
 6f262b2:	ff6325               	call8	6f258e4 <dsp_memcpy>
 6f262b5:	05dd                	mov.n	a13, a5
 6f262b7:	81a8                	l32i.n	a10, a1, 32
 6f262b9:	91b8                	l32i.n	a11, a1, 36
 6f262bb:	31c8                	l32i.n	a12, a1, 12
 6f262bd:	51c9                	s32i.n	a12, a1, 20
 6f262bf:	ff6265               	call8	6f258e4 <dsp_memcpy>
 6f262c2:	0b0c                	movi.n	a11, 0
 6f262c4:	c3d8                	l32i.n	a13, a3, 48
 6f262c6:	c2c8                	l32i.n	a12, a2, 48
 6f262c8:	a2a8                	l32i.n	a10, a2, 40
 6f262ca:	5178                	l32i.n	a7, a1, 20
 6f262cc:	042d                	mov.n	a2, a4
 6f262ce:	078d                	mov.n	a8, a7
 6f262d0:	c0cc70               	sub	a12, a12, a7
 6f262d3:	c0dd70               	sub	a13, a13, a7
 6f262d6:	838bd0               	moveqz	a8, a11, a13
 6f262d9:	837bc0               	moveqz	a7, a11, a12
 6f262dc:	0020c0               	memw
 6f262df:	0a79                	s32i.n	a7, a10, 0
 6f262e1:	9398                	l32i.n	a9, a3, 36
 6f262e3:	0020c0               	memw
 6f262e6:	0989                	s32i.n	a8, a9, 0
 6f262e8:	f01d                	retw.n

06f262ea <RBUF_CopyData+0x1fe>:
 6f262ea:	81b8                	l32i.n	a11, a1, 32
 6f262ec:	61a8                	l32i.n	a10, a1, 24
 6f262ee:	04cd                	mov.n	a12, a4
 6f262f0:	aaba                	add.n	a10, a10, a11
 6f262f2:	91b8                	l32i.n	a11, a1, 36
 6f262f4:	0d7d                	mov.n	a7, a13
 6f262f6:	bdba                	add.n	a11, a13, a11
 6f262f8:	05dd                	mov.n	a13, a5
 6f262fa:	ff5ea5               	call8	6f258e4 <dsp_memcpy>
 6f262fd:	61c8                	l32i.n	a12, a1, 24
 6f262ff:	747a                	add.n	a7, a4, a7
 6f26301:	c4ca                	add.n	a12, a4, a12
 6f26303:	61c9                	s32i.n	a12, a1, 24
 6f26305:	ffc7c6               	j	6f26228 <RBUF_CopyData+0x13c>

06f26308 <RBUF_CopyData+0x21c>:
 6f26308:	81c8                	l32i.n	a12, a1, 32
 6f2630a:	91b8                	l32i.n	a11, a1, 36
 6f2630c:	61a8                	l32i.n	a10, a1, 24
 6f2630e:	bdba                	add.n	a11, a13, a11
 6f26310:	aaca                	add.n	a10, a10, a12
 6f26312:	05dd                	mov.n	a13, a5
 6f26314:	07cd                	mov.n	a12, a7
 6f26316:	ff5ce5               	call8	6f258e4 <dsp_memcpy>
 6f26319:	05dd                	mov.n	a13, a5
 6f2631b:	81a8                	l32i.n	a10, a1, 32
 6f2631d:	1168                	l32i.n	a6, a1, 4
 6f2631f:	61b8                	l32i.n	a11, a1, 24
 6f26321:	06cd                	mov.n	a12, a6
 6f26323:	7b7a                	add.n	a7, a11, a7
 6f26325:	a7aa                	add.n	a10, a7, a10
 6f26327:	91b8                	l32i.n	a11, a1, 36
 6f26329:	ff5ba5               	call8	6f258e4 <dsp_memcpy>
 6f2632c:	c76a                	add.n	a12, a7, a6
 6f2632e:	61c9                	s32i.n	a12, a1, 24
 6f26330:	067d                	mov.n	a7, a6
 6f26332:	ffbc86               	j	6f26228 <RBUF_CopyData+0x13c>

06f26335 <RBUF_CopyData+0x249>:
 6f26335:	000000                                        ...

06f26338 <RBUF_UpdateAttr>:
 6f26338:	004136               	entry	a1, 32
 6f2633b:	928c                	beqz.n	a2, 6f26348 <RBUF_UpdateAttr+0x10>
 6f2633d:	7348                	l32i.n	a4, a3, 28
 6f2633f:	8388                	l32i.n	a8, a3, 32
 6f26341:	8289                	s32i.n	a8, a2, 32
 6f26343:	7249                	s32i.n	a4, a2, 28
 6f26345:	f01d                	retw.n

06f26347 <RBUF_UpdateAttr+0xf>:
	...

06f26348 <RBUF_UpdateAttr+0x10>:
 6f26348:	f01d                	retw.n

06f2634a <RBUF_UpdateAttr+0x12>:
 6f2634a:	00000000 41360000                                ......

06f26350 <sampler_to_dB_calc>:
 6f26350:	004136               	entry	a1, 32
 6f26353:	3c0234               	ae_movda32	aed0, a2
 6f26356:	2b0304               	ae_abs32s	aed0, aed0
 6f26359:	2520c4               	ae_movad32.l	a2, aed0
 6f2635c:	f75781               	l32r	a8, 6f240b8 <_stext+0xd8>
 6f2635f:	0d400c4180b0126e 	{ blti.w18	a2, 1, 6f2642b <sampler_to_dB_calc+0xdb>; nop }
 6f26367:	400001114503b24e 	{ ae_movda32	aed3, a2; nop; movi	a11, 20 }
 6f2636f:	2563f4               	ae_nsaz32.l	a6, aed3
 6f26372:	991c                	movi.n	a9, 25
 6f26374:	23a680               	sext	a10, a6, 15
 6f26377:	051a04               	ae_slaa32s	aed1, aed0, a10
 6f2637a:	822914               	ae_sraa32s	aed2, aed1, a9
 6f2637d:	2552c4               	ae_movad32.l	a5, aed2
 6f26380:	f74f41               	l32r	a4, 6f240bc <_stext+0xdc>
 6f26383:	a05580               	addx4	a5, a5, a8
 6f26386:	7f2552               	l32i	a5, a5, 0x1fc
 6f26389:	2521c4               	ae_movad32.l	a2, aed1
 6f2638c:	104540               	and	a4, a5, a4
 6f2638f:	0d40094110b0126e 	{ blti.w18	a2, 1, 6f26424 <sampler_to_dB_calc+0xd4>; nop }
 6f26397:	238580               	sext	a8, a5, 15
 6f2639a:	e49a20               	extui	a9, a2, 10, 15
 6f2639d:	400001b54478398e 	{ ae_movda16	aed8, a9; nop; ae_movda16	aed7, a8 }
 6f263a5:	eb5cdd080706259f 	{ nop; ae_mulf16ss.00	aed6, aed7, aed8; nop }
 6f263ad:	3c5434               	ae_movda32	aed5, a4
 6f263b0:	ebf3400605041e4f 	{ movi	a4, 30; ae_sub32s	aed4, aed5, aed6; nop }
 6f263b8:	2524c4               	ae_movad32.l	a2, aed4
 6f263bb:	c04460               	sub	a4, a4, a6
 6f263be:	312020               	srai	a2, a2, 16

06f263c1 <sampler_to_dB_calc+0x71>:
 6f263c1:	280c                	movi.n	a8, 2
 6f263c3:	239280               	sext	a9, a2, 15
 6f263c6:	233480               	sext	a3, a4, 15
 6f263c9:	d20c                	movi.n	a2, 13
 6f263cb:	4000001145f2393e 	{ ae_movda32	aed2, a9; nop; addi	a3, a3, -15 }
 6f263d3:	821824               	ae_sraa32s	aed1, aed2, a8
 6f263d6:	400001754550f31e 	{ ae_movda32	aed0, a3; nop; ae_movad32.l	a15, aed1 }
 6f263de:	05f204               	ae_slaa32s	aed15, aed0, a2
 6f263e1:	25efc4               	ae_movad32.l	a14, aed15
 6f263e4:	eefa                	add.n	a14, a14, a15
 6f263e6:	b0fee0               	addx8	a15, a14, a14
 6f263e9:	90ffe0               	addx2	a15, a15, a14
 6f263ec:	a0ffe0               	addx4	a15, a15, a14
 6f263ef:	11ffc0               	slli	a15, a15, 4
 6f263f2:	eefa                	add.n	a14, a14, a15
 6f263f4:	11eef0               	slli	a14, a14, 1
 6f263f7:	40000101450edefe 	{ ae_movda32	aed14, a14; nop; movi	a13, 15 }
 6f263ff:	82dde4               	ae_sraa32s	aed13, aed14, a13
 6f26402:	25cd84               	ae_movad16.0	a12, aed13
 6f26405:	400001b544cb3bce 	{ ae_movda16	aed11, a11; nop; ae_movda16	aed12, a12 }
 6f2640d:	eb5cdd0c0b0a259f 	{ nop; ae_mulf16ss.00	aed10, aed11, aed12; nop }
 6f26415:	ca0c                	movi.n	a10, 12
 6f26417:	0d80194190b0caae 	{ ae_sraa32rs	aed9, aed10, a10; nop }
 6f2641f:	2529c4               	ae_movad32.l	a2, aed9
 6f26422:	f01d                	retw.n

06f26424 <sampler_to_dB_calc+0xd4>:
 6f26424:	040c                	movi.n	a4, 0
 6f26426:	020c                	movi.n	a2, 0
 6f26428:	ffe546               	j	6f263c1 <sampler_to_dB_calc+0x71>

06f2642b <sampler_to_dB_calc+0xdb>:
 6f2642b:	491c                	movi.n	a9, 20
 6f2642d:	f724a1               	l32r	a10, 6f240c0 <_stext+0xe0>
 6f26430:	400001b544563a9e 	{ ae_movda16	aed6, a10; nop; ae_movda16	aed5, a9 }
 6f26438:	eb5cdd060504259f 	{ nop; ae_mulf16ss.00	aed4, aed5, aed6; nop }
 6f26440:	c80c                	movi.n	a8, 12
 6f26442:	0d80194130b0c84e 	{ ae_sraa32rs	aed3, aed4, a8; nop }
 6f2644a:	2523c4               	ae_movad32.l	a2, aed3
 6f2644d:	f01d                	retw.n

06f2644f <sampler_to_dB_calc+0xff>:
	...

06f26450 <UTIL_CalcFrameSize>:
 6f26450:	004136               	entry	a1, 32
 6f26453:	04b326               	beqi	a3, 16, 6f2645b <UTIL_CalcFrameSize+0xb>
 6f26456:	1122e0               	slli	a2, a2, 2
 6f26459:	f01d                	retw.n

06f2645b <UTIL_CalcFrameSize+0xb>:
 6f2645b:	1122f0               	slli	a2, a2, 1
 6f2645e:	f01d                	retw.n

06f26460 <UTIL_LatencyMs2ByteSize>:
 6f26460:	004136               	entry	a1, 32
 6f26463:	20b440               	or	a11, a4, a4
 6f26466:	02ad                	mov.n	a10, a2
 6f26468:	157b65               	call8	6f3bc20 <__mulsi3>
 6f2646b:	e8a3b2               	movi	a11, 0x3e8
 6f2646e:	158e25               	call8	6f3bd50 <__udivsi3>
 6f26471:	0abd                	mov.n	a11, a10
 6f26473:	03ad                	mov.n	a10, a3
 6f26475:	bb1b                	addi.n	a11, a11, 1
 6f26477:	157aa5               	call8	6f3bc20 <__mulsi3>
 6f2647a:	0a2d                	mov.n	a2, a10
 6f2647c:	f01d                	retw.n

06f2647e <UTIL_LatencyMs2ByteSize+0x1e>:
	...

06f26480 <UTIL_LatencyMs>:
 6f26480:	004136               	entry	a1, 32
 6f26483:	20b440               	or	a11, a4, a4
 6f26486:	20a330               	or	a10, a3, a3
 6f26489:	157965               	call8	6f3bc20 <__mulsi3>
 6f2648c:	20baa0               	or	a11, a10, a10
 6f2648f:	1182b0               	slli	a8, a2, 5
 6f26492:	c08820               	sub	a8, a8, a2
 6f26495:	a08820               	addx4	a8, a8, a2
 6f26498:	11a8d0               	slli	a10, a8, 3
 6f2649b:	158b65               	call8	6f3bd50 <__udivsi3>
 6f2649e:	0a2d                	mov.n	a2, a10
 6f264a0:	f01d                	retw.n

06f264a2 <UTIL_LatencyMs+0x22>:
 6f264a2:	000000                                        ...

06f264a5 <UTIL_LatencyMs+0x25>:
 6f264a5:	000000                                        ...

06f264a8 <UTIL_LRLinearGainProcess>:
 6f264a8:	006136               	entry	a1, 48
 6f264ab:	2c9567               	bne	a5, a6, 6f264db <UTIL_LRLinearGainProcess+0x33>
 6f264ae:	7614a6               	blti	a4, 1, 6f26528 <UTIL_LRLinearGainProcess+0x80>
 6f264b1:	904420               	addx2	a4, a4, a2
 6f264b4:	116500               	slli	a6, a5, 16
 6f264b7:	317f60               	srai	a7, a6, 31

06f264ba <UTIL_LRLinearGainProcess+0x12>:
 6f264ba:	20d770               	or	a13, a7, a7
 6f264bd:	0092a2               	l16si	a10, a2, 0
 6f264c0:	20c660               	or	a12, a6, a6
 6f264c3:	31bfa0               	srai	a11, a10, 31
 6f264c6:	0db6a5               	call8	6f34030 <__muldi3>
 6f264c9:	118bf0               	slli	a8, a11, 1
 6f264cc:	02c222               	addi	a2, a2, 2
 6f264cf:	005382               	s16i	a8, a3, 0
 6f264d2:	332b                	addi.n	a3, a3, 2
 6f264d4:	e29247               	bne	a2, a4, 6f264ba <UTIL_LRLinearGainProcess+0x12>
 6f264d7:	f01d                	retw.n

06f264d9 <UTIL_LRLinearGainProcess+0x31>:
	...

06f264db <UTIL_LRLinearGainProcess+0x33>:
 6f264db:	4914a6               	blti	a4, 1, 6f26528 <UTIL_LRLinearGainProcess+0x80>
 6f264de:	119600               	slli	a9, a6, 16
 6f264e1:	116500               	slli	a6, a5, 16
 6f264e4:	1199                	s32i.n	a9, a1, 4
 6f264e6:	050c                	movi.n	a5, 0
 6f264e8:	317f60               	srai	a7, a6, 31
 6f264eb:	319f90               	srai	a9, a9, 31
 6f264ee:	0199                	s32i.n	a9, a1, 0
 6f264f0:	0092c2               	l16si	a12, a2, 0
 6f264f3:	31dfc0               	srai	a13, a12, 31
 6f264f6:	116507               	bbci	a5, 0, 6f2650b <UTIL_LRLinearGainProcess+0x63>
 6f264f9:	01b8                	l32i.n	a11, a1, 0
 6f264fb:	11a8                	l32i.n	a10, a1, 4
 6f264fd:	0db325               	call8	6f34030 <__muldi3>
 6f26500:	11cbf0               	slli	a12, a11, 1
 6f26503:	000546               	j	6f2651c <UTIL_LRLinearGainProcess+0x74>

06f26506 <UTIL_LRLinearGainProcess+0x5e>:
 6f26506:	000000                                        ...

06f26509 <UTIL_LRLinearGainProcess+0x61>:
	...

06f2650b <UTIL_LRLinearGainProcess+0x63>:
 6f2650b:	20bdd0               	or	a11, a13, a13
 6f2650e:	20acc0               	or	a10, a12, a12
 6f26511:	20d770               	or	a13, a7, a7
 6f26514:	06cd                	mov.n	a12, a6
 6f26516:	0db1a5               	call8	6f34030 <__muldi3>
 6f26519:	11cbf0               	slli	a12, a11, 1
 6f2651c:	222b                	addi.n	a2, a2, 2
 6f2651e:	0053c2               	s16i	a12, a3, 0
 6f26521:	551b                	addi.n	a5, a5, 1
 6f26523:	332b                	addi.n	a3, a3, 2
 6f26525:	c79457               	bne	a4, a5, 6f264f0 <UTIL_LRLinearGainProcess+0x48>
 6f26528:	f01d                	retw.n

06f2652a <UTIL_LRLinearGainProcess+0x82>:
	...

06f2652c <UTIL_UpmixPcmData>:
 6f2652c:	004136               	entry	a1, 32
 6f2652f:	34b8                	l32i.n	a11, a4, 12
 6f26531:	881c                	movi.n	a8, 24
 6f26533:	511b87               	beq	a11, a8, 6f26588 <UTIL_UpmixPcmData+0x5c>
 6f26536:	0ebb66               	bnei	a11, 16, 6f26548 <UTIL_UpmixPcmData+0x1c>
 6f26539:	03dd                	mov.n	a13, a3
 6f2653b:	2468                	l32i.n	a6, a4, 8
 6f2653d:	04e8                	l32i.n	a14, a4, 0
 6f2653f:	06bc                	beqz.n	a6, 6f26573 <UTIL_UpmixPcmData+0x47>
 6f26541:	050c                	movi.n	a5, 0
 6f26543:	0f0c                	movi.n	a15, 0
 6f26545:	000106               	j	6f2654d <UTIL_UpmixPcmData+0x21>

06f26548 <UTIL_UpmixPcmData+0x1c>:
 6f26548:	f01d                	retw.n

06f2654a <UTIL_UpmixPcmData+0x1e>:
 6f2654a:	251657               	beq	a6, a5, 6f26573 <UTIL_UpmixPcmData+0x47>
 6f2654d:	551b                	addi.n	a5, a5, 1
 6f2654f:	ff7216               	beqz	a2, 6f2654a <UTIL_UpmixPcmData+0x1e>
 6f26552:	0c0c                	movi.n	a12, 0
 6f26554:	44a8                	l32i.n	a10, a4, 16
 6f26556:	169276               	loopnez	a2, 6f26570 <UTIL_UpmixPcmData+0x44>
 6f26559:	0cbca7               	bgeu	a12, a10, 6f26569 <UTIL_UpmixPcmData+0x3d>
 6f2655c:	001ef2               	l16ui	a15, a14, 0
 6f2655f:	005df2               	s16i	a15, a13, 0
 6f26562:	ee2b                	addi.n	a14, a14, 2
 6f26564:	dd2b                	addi.n	a13, a13, 2
 6f26566:	000106               	j	6f2656e <UTIL_UpmixPcmData+0x42>

06f26569 <UTIL_UpmixPcmData+0x3d>:
 6f26569:	005df2               	s16i	a15, a13, 0
 6f2656c:	dd2b                	addi.n	a13, a13, 2
 6f2656e:	cc1b                	addi.n	a12, a12, 1

06f26570 <UTIL_UpmixPcmData+0x44>:
 6f26570:	fff586               	j	6f2654a <UTIL_UpmixPcmData+0x1e>

06f26573 <UTIL_UpmixPcmData+0x47>:
 6f26573:	006432               	s32i	a3, a4, 0
 6f26576:	046422               	s32i	a2, a4, 16
 6f26579:	20a220               	or	a10, a2, a2
 6f2657c:	ffed25               	call8	6f26450 <UTIL_CalcFrameSize>
 6f2657f:	24b8                	l32i.n	a11, a4, 8
 6f26581:	1569e5               	call8	6f3bc20 <__mulsi3>
 6f26584:	14a9                	s32i.n	a10, a4, 4
 6f26586:	f01d                	retw.n

06f26588 <UTIL_UpmixPcmData+0x5c>:
 6f26588:	03ad                	mov.n	a10, a3
 6f2658a:	24c8                	l32i.n	a12, a4, 8
 6f2658c:	04d8                	l32i.n	a13, a4, 0
 6f2658e:	0cbc                	beqz.n	a12, 6f265c2 <UTIL_UpmixPcmData+0x96>
 6f26590:	0b0c                	movi.n	a11, 0
 6f26592:	050c                	movi.n	a5, 0
 6f26594:	62cc                	bnez.n	a2, 6f2659e <UTIL_UpmixPcmData+0x72>
 6f26596:	551b                	addi.n	a5, a5, 1
 6f26598:	24b5c7               	bgeu	a5, a12, 6f265c0 <UTIL_UpmixPcmData+0x94>
 6f2659b:	ff7216               	beqz	a2, 6f26596 <UTIL_UpmixPcmData+0x6a>
 6f2659e:	0c0c                	movi.n	a12, 0
 6f265a0:	169276               	loopnez	a2, 6f265ba <UTIL_UpmixPcmData+0x8e>
 6f265a3:	4498                	l32i.n	a9, a4, 16
 6f265a5:	0bbc97               	bgeu	a12, a9, 6f265b4 <UTIL_UpmixPcmData+0x88>
 6f265a8:	0db8                	l32i.n	a11, a13, 0
 6f265aa:	0ab9                	s32i.n	a11, a10, 0
 6f265ac:	dd4b                	addi.n	a13, a13, 4
 6f265ae:	aa4b                	addi.n	a10, a10, 4
 6f265b0:	000106               	j	6f265b8 <UTIL_UpmixPcmData+0x8c>

06f265b3 <UTIL_UpmixPcmData+0x87>:
	...

06f265b4 <UTIL_UpmixPcmData+0x88>:
 6f265b4:	0ab9                	s32i.n	a11, a10, 0
 6f265b6:	aa4b                	addi.n	a10, a10, 4
 6f265b8:	cc1b                	addi.n	a12, a12, 1

06f265ba <UTIL_UpmixPcmData+0x8e>:
 6f265ba:	24c8                	l32i.n	a12, a4, 8
 6f265bc:	fff586               	j	6f26596 <UTIL_UpmixPcmData+0x6a>

06f265bf <UTIL_UpmixPcmData+0x93>:
	...

06f265c0 <UTIL_UpmixPcmData+0x94>:
 6f265c0:	34b8                	l32i.n	a11, a4, 12
 6f265c2:	20a220               	or	a10, a2, a2
 6f265c5:	006432               	s32i	a3, a4, 0
 6f265c8:	046422               	s32i	a2, a4, 16
 6f265cb:	ffe865               	call8	6f26450 <UTIL_CalcFrameSize>
 6f265ce:	24b8                	l32i.n	a11, a4, 8
 6f265d0:	1564e5               	call8	6f3bc20 <__mulsi3>
 6f265d3:	14a9                	s32i.n	a10, a4, 4
 6f265d5:	f01d                	retw.n

06f265d7 <UTIL_UpmixPcmData+0xab>:
	...

06f265d8 <UTIL_DownmixPcmData>:
 6f265d8:	004136               	entry	a1, 32
 6f265db:	34b8                	l32i.n	a11, a4, 12
 6f265dd:	881c                	movi.n	a8, 24
 6f265df:	4a1b87               	beq	a11, a8, 6f2662d <UTIL_DownmixPcmData+0x55>
 6f265e2:	0ebb66               	bnei	a11, 16, 6f265f4 <UTIL_DownmixPcmData+0x1c>
 6f265e5:	03ad                	mov.n	a10, a3
 6f265e7:	24f8                	l32i.n	a15, a4, 8
 6f265e9:	04d8                	l32i.n	a13, a4, 0
 6f265eb:	9fac                	beqz.n	a15, 6f26618 <UTIL_DownmixPcmData+0x40>
 6f265ed:	0e0c                	movi.n	a14, 0
 6f265ef:	0c0c                	movi.n	a12, 0
 6f265f1:	000106               	j	6f265f9 <UTIL_DownmixPcmData+0x21>

06f265f4 <UTIL_DownmixPcmData+0x1c>:
 6f265f4:	f01d                	retw.n

06f265f6 <UTIL_DownmixPcmData+0x1e>:
 6f265f6:	000000                                        ...

06f265f9 <UTIL_DownmixPcmData+0x21>:
 6f265f9:	139276               	loopnez	a2, 6f26610 <UTIL_DownmixPcmData+0x38>
 6f265fc:	0cbc27               	bgeu	a12, a2, 6f2660c <UTIL_DownmixPcmData+0x34>
 6f265ff:	001d92               	l16ui	a9, a13, 0
 6f26602:	005a92               	s16i	a9, a10, 0
 6f26605:	dd2b                	addi.n	a13, a13, 2
 6f26607:	aa2b                	addi.n	a10, a10, 2
 6f26609:	000046               	j	6f2660e <UTIL_DownmixPcmData+0x36>

06f2660c <UTIL_DownmixPcmData+0x34>:
 6f2660c:	dd2b                	addi.n	a13, a13, 2
 6f2660e:	cc1b                	addi.n	a12, a12, 1

06f26610 <UTIL_DownmixPcmData+0x38>:
 6f26610:	0c0c                	movi.n	a12, 0
 6f26612:	01cee2               	addi	a14, a14, 1
 6f26615:	e09fe7               	bne	a15, a14, 6f265f9 <UTIL_DownmixPcmData+0x21>

06f26618 <UTIL_DownmixPcmData+0x40>:
 6f26618:	006432               	s32i	a3, a4, 0
 6f2661b:	046422               	s32i	a2, a4, 16
 6f2661e:	20a220               	or	a10, a2, a2
 6f26621:	ffe2e5               	call8	6f26450 <UTIL_CalcFrameSize>
 6f26624:	24b8                	l32i.n	a11, a4, 8
 6f26626:	155fa5               	call8	6f3bc20 <__mulsi3>
 6f26629:	14a9                	s32i.n	a10, a4, 4
 6f2662b:	f01d                	retw.n

06f2662d <UTIL_DownmixPcmData+0x55>:
 6f2662d:	03dd                	mov.n	a13, a3
 6f2662f:	24c8                	l32i.n	a12, a4, 8
 6f26631:	04a8                	l32i.n	a10, a4, 0
 6f26633:	bcac                	beqz.n	a12, 6f26662 <UTIL_DownmixPcmData+0x8a>
 6f26635:	00a0e2               	movi	a14, 0
 6f26638:	007256               	bnez	a2, 6f26643 <UTIL_DownmixPcmData+0x6b>
 6f2663b:	ee1b                	addi.n	a14, a14, 1
 6f2663d:	1fbec7               	bgeu	a14, a12, 6f26660 <UTIL_DownmixPcmData+0x88>
 6f26640:	ff7216               	beqz	a2, 6f2663b <UTIL_DownmixPcmData+0x63>
 6f26643:	0c0c                	movi.n	a12, 0
 6f26645:	119276               	loopnez	a2, 6f2665a <UTIL_DownmixPcmData+0x82>
 6f26648:	0abc27               	bgeu	a12, a2, 6f26656 <UTIL_DownmixPcmData+0x7e>
 6f2664b:	0ab8                	l32i.n	a11, a10, 0
 6f2664d:	0db9                	s32i.n	a11, a13, 0
 6f2664f:	aa4b                	addi.n	a10, a10, 4
 6f26651:	dd4b                	addi.n	a13, a13, 4
 6f26653:	000046               	j	6f26658 <UTIL_DownmixPcmData+0x80>

06f26656 <UTIL_DownmixPcmData+0x7e>:
 6f26656:	aa4b                	addi.n	a10, a10, 4
 6f26658:	cc1b                	addi.n	a12, a12, 1

06f2665a <UTIL_DownmixPcmData+0x82>:
 6f2665a:	24c8                	l32i.n	a12, a4, 8
 6f2665c:	fff6c6               	j	6f2663b <UTIL_DownmixPcmData+0x63>

06f2665f <UTIL_DownmixPcmData+0x87>:
	...

06f26660 <UTIL_DownmixPcmData+0x88>:
 6f26660:	34b8                	l32i.n	a11, a4, 12
 6f26662:	20a220               	or	a10, a2, a2
 6f26665:	006432               	s32i	a3, a4, 0
 6f26668:	046422               	s32i	a2, a4, 16
 6f2666b:	ffde65               	call8	6f26450 <UTIL_CalcFrameSize>
 6f2666e:	24b8                	l32i.n	a11, a4, 8
 6f26670:	155ae5               	call8	6f3bc20 <__mulsi3>
 6f26673:	14a9                	s32i.n	a10, a4, 4
 6f26675:	f01d                	retw.n

06f26677 <UTIL_DownmixPcmData+0x9f>:
	...

06f26678 <UTIL_UnifyBitDepthPcmData>:
 6f26678:	004136               	entry	a1, 32
 6f2667b:	036d                	mov.n	a6, a3
 6f2667d:	24a8                	l32i.n	a10, a4, 8
 6f2667f:	025d                	mov.n	a5, a2
 6f26681:	44b8                	l32i.n	a11, a4, 16
 6f26683:	821c                	movi.n	a2, 24
 6f26685:	1559a5               	call8	6f3bc20 <__mulsi3>
 6f26688:	0d400841a0b0b50e 	{ beqi.w18	a5, 16, 6f26716 <UTIL_UnifyBitDepthPcmData+0x9e>; nop }

06f26690 <UTIL_UnifyBitDepthPcmData+0x18>:
 6f26690:	0d000741f0b0b52e 	{ bne.w18	a5, a2, 6f26713 <UTIL_UnifyBitDepthPcmData+0x9b>; nop }
 6f26698:	3488                	l32i.n	a8, a4, 12
 6f2669a:	06bd                	mov.n	a11, a6
 6f2669c:	73b866               	bnei	a8, 16, 6f26713 <UTIL_UnifyBitDepthPcmData+0x9b>
 6f2669f:	0488                	l32i.n	a8, a4, 0
 6f266a1:	061a16               	beqz	a10, 6f26706 <UTIL_UnifyBitDepthPcmData+0x8e>
 6f266a4:	4123a0               	srli	a2, a10, 3
 6f266a7:	2490a0               	extui	a9, a10, 0, 3
 6f266aa:	0b9976               	loopnez	a9, 6f266b9 <UTIL_UnifyBitDepthPcmData+0x41>
 6f266ad:	0018c2               	l16ui	a12, a8, 0
 6f266b0:	882b                	addi.n	a8, a8, 2
 6f266b2:	11cc00               	slli	a12, a12, 16
 6f266b5:	0bc9                	s32i.n	a12, a11, 0
 6f266b7:	bb4b                	addi.n	a11, a11, 4

06f266b9 <UTIL_UnifyBitDepthPcmData+0x41>:
 6f266b9:	0bad                	mov.n	a10, a11
 6f266bb:	f03d                	nop.n
 6f266bd:	459276               	loopnez	a2, 6f26706 <UTIL_UnifyBitDepthPcmData+0x8e>
 6f266c0:	001892               	l16ui	a9, a8, 0
 6f266c3:	0118b2               	l16ui	a11, a8, 2
 6f266c6:	0218c2               	l16ui	a12, a8, 4
 6f266c9:	0318d2               	l16ui	a13, a8, 6
 6f266cc:	0418e2               	l16ui	a14, a8, 8
 6f266cf:	0518f2               	l16ui	a15, a8, 10
 6f266d2:	061822               	l16ui	a2, a8, 12
 6f266d5:	071832               	l16ui	a3, a8, 14
 6f266d8:	119900               	slli	a9, a9, 16
 6f266db:	11bb00               	slli	a11, a11, 16
 6f266de:	11cc00               	slli	a12, a12, 16
 6f266e1:	11dd00               	slli	a13, a13, 16
 6f266e4:	11ee00               	slli	a14, a14, 16
 6f266e7:	11ff00               	slli	a15, a15, 16
 6f266ea:	112200               	slli	a2, a2, 16
 6f266ed:	113300               	slli	a3, a3, 16
 6f266f0:	10c882               	addi	a8, a8, 16
 6f266f3:	0a99                	s32i.n	a9, a10, 0
 6f266f5:	1ab9                	s32i.n	a11, a10, 4
 6f266f7:	2ac9                	s32i.n	a12, a10, 8
 6f266f9:	3ad9                	s32i.n	a13, a10, 12
 6f266fb:	4ae9                	s32i.n	a14, a10, 16
 6f266fd:	5af9                	s32i.n	a15, a10, 20
 6f266ff:	6a29                	s32i.n	a2, a10, 24
 6f26701:	7a39                	s32i.n	a3, a10, 28
 6f26703:	20caa2               	addi	a10, a10, 32

06f26706 <UTIL_UnifyBitDepthPcmData+0x8e>:
 6f26706:	0469                	s32i.n	a6, a4, 0
 6f26708:	14d8                	l32i.n	a13, a4, 4
 6f2670a:	3459                	s32i.n	a5, a4, 12
 6f2670c:	11ddf0               	slli	a13, a13, 1
 6f2670f:	14d9                	s32i.n	a13, a4, 4
 6f26711:	f01d                	retw.n

06f26713 <UTIL_UnifyBitDepthPcmData+0x9b>:
 6f26713:	f01d                	retw.n

06f26715 <UTIL_UnifyBitDepthPcmData+0x9d>:
	...

06f26716 <UTIL_UnifyBitDepthPcmData+0x9e>:
 6f26716:	34e8                	l32i.n	a14, a4, 12
 6f26718:	03bd                	mov.n	a11, a3
 6f2671a:	0d3ff74120b0be2e 	{ bne.w18	a14, a2, 6f26690 <UTIL_UnifyBitDepthPcmData+0x18>; nop }
 6f26722:	0488                	l32i.n	a8, a4, 0
 6f26724:	05fa16               	beqz	a10, 6f26787 <UTIL_UnifyBitDepthPcmData+0x10f>
 6f26727:	4123a0               	srli	a2, a10, 3
 6f2672a:	24f0a0               	extui	a15, a10, 0, 3
 6f2672d:	0b9f76               	loopnez	a15, 6f2673c <UTIL_UnifyBitDepthPcmData+0xc4>
 6f26730:	0898                	l32i.n	a9, a8, 0
 6f26732:	884b                	addi.n	a8, a8, 4
 6f26734:	f59090               	extui	a9, a9, 16, 16
 6f26737:	005b92               	s16i	a9, a11, 0
 6f2673a:	bb2b                	addi.n	a11, a11, 2

06f2673c <UTIL_UnifyBitDepthPcmData+0xc4>:
 6f2673c:	0bad                	mov.n	a10, a11
 6f2673e:	459276               	loopnez	a2, 6f26787 <UTIL_UnifyBitDepthPcmData+0x10f>
 6f26741:	0898                	l32i.n	a9, a8, 0
 6f26743:	18b8                	l32i.n	a11, a8, 4
 6f26745:	28c8                	l32i.n	a12, a8, 8
 6f26747:	38d8                	l32i.n	a13, a8, 12
 6f26749:	48e8                	l32i.n	a14, a8, 16
 6f2674b:	58f8                	l32i.n	a15, a8, 20
 6f2674d:	6828                	l32i.n	a2, a8, 24
 6f2674f:	7838                	l32i.n	a3, a8, 28
 6f26751:	f59090               	extui	a9, a9, 16, 16
 6f26754:	f5b0b0               	extui	a11, a11, 16, 16
 6f26757:	f5c0c0               	extui	a12, a12, 16, 16
 6f2675a:	f5d0d0               	extui	a13, a13, 16, 16
 6f2675d:	f5e0e0               	extui	a14, a14, 16, 16
 6f26760:	f5f0f0               	extui	a15, a15, 16, 16
 6f26763:	f52020               	extui	a2, a2, 16, 16
 6f26766:	f53030               	extui	a3, a3, 16, 16
 6f26769:	20c882               	addi	a8, a8, 32
 6f2676c:	005a92               	s16i	a9, a10, 0
 6f2676f:	015ab2               	s16i	a11, a10, 2
 6f26772:	025ac2               	s16i	a12, a10, 4
 6f26775:	035ad2               	s16i	a13, a10, 6
 6f26778:	045ae2               	s16i	a14, a10, 8
 6f2677b:	055af2               	s16i	a15, a10, 10
 6f2677e:	065a22               	s16i	a2, a10, 12
 6f26781:	075a32               	s16i	a3, a10, 14
 6f26784:	10caa2               	addi	a10, a10, 16

06f26787 <UTIL_UnifyBitDepthPcmData+0x10f>:
 6f26787:	0469                	s32i.n	a6, a4, 0
 6f26789:	14a8                	l32i.n	a10, a4, 4
 6f2678b:	3459                	s32i.n	a5, a4, 12
 6f2678d:	41a1a0               	srli	a10, a10, 1
 6f26790:	14a9                	s32i.n	a10, a4, 4
 6f26792:	f01d                	retw.n

06f26794 <UTILS_GainBalanceCoef>:
 6f26794:	004136               	entry	a1, 32
 6f26797:	01a416               	beqz	a4, 6f267b5 <UTILS_GainBalanceCoef+0x21>
 6f2679a:	01a496               	bltz	a4, 6f267b8 <UTILS_GainBalanceCoef+0x24>
 6f2679d:	0022a2               	l32i	a10, a2, 0
 6f267a0:	32a0b2               	movi	a11, 50
 6f267a3:	c0bb40               	sub	a11, a11, a4
 6f267a6:	1547a5               	call8	6f3bc20 <__mulsi3>
 6f267a9:	32a0b2               	movi	a11, 50
 6f267ac:	155a25               	call8	6f3bd50 <__udivsi3>
 6f267af:	0062a2               	s32i	a10, a2, 0
 6f267b2:	000090               	retw

06f267b5 <UTILS_GainBalanceCoef+0x21>:
 6f267b5:	f01d                	retw.n

06f267b7 <UTILS_GainBalanceCoef+0x23>:
	...

06f267b8 <UTILS_GainBalanceCoef+0x24>:
 6f267b8:	32c4b2               	addi	a11, a4, 50
 6f267bb:	0023a2               	l32i	a10, a3, 0
 6f267be:	154625               	call8	6f3bc20 <__mulsi3>
 6f267c1:	32a0b2               	movi	a11, 50
 6f267c4:	1558a5               	call8	6f3bd50 <__udivsi3>
 6f267c7:	0063a2               	s32i	a10, a3, 0
 6f267ca:	f01d                	retw.n

06f267cc <UTILS_GainBalanceCoef+0x38>:
 6f267cc:	000000                                        ...

06f267cf <UTILS_GainBalanceCoef+0x3b>:
	...

06f267d0 <UTIL_LRGainProcess>:
 6f267d0:	006136               	entry	a1, 48
 6f267d3:	18a062               	movi	a6, 24
 6f267d6:	0222a2               	l32i	a10, a2, 8
 6f267d9:	0422b2               	l32i	a11, a2, 16
 6f267dc:	154425               	call8	6f3bc20 <__mulsi3>
 6f267df:	002482               	l32i	a8, a4, 0
 6f267e2:	0a5d                	mov.n	a5, a10
 6f267e4:	0d40144150b0180e 	{ beqi.w18	a8, 1, 6f2692d <UTIL_LRGainProcess+0x15d>; nop }
 6f267ec:	34a8                	l32i.n	a10, a4, 12
 6f267ee:	62a072               	movi	a7, 98
 6f267f1:	8ba0b2               	movi	a11, 139
 6f267f4:	1d1c                	movi.n	a13, 17
 6f267f6:	79a0c2               	movi	a12, 121
 6f267f9:	f63261               	l32r	a6, 6f240c4 <_stext+0xe4>
 6f267fc:	0404e2               	l8ui	a14, a4, 4
 6f267ff:	f8c6f2               	addi	a15, a6, -8
 6f26802:	0cbce7               	bgeu	a12, a14, 6f26812 <UTIL_LRGainProcess+0x42>
 6f26805:	87ce92               	addi	a9, a14, -121
 6f26808:	06bd97               	bgeu	a13, a9, 6f26812 <UTIL_LRGainProcess+0x42>
 6f2680b:	7d26a2               	l32i	a10, a6, 0x1f4
 6f2680e:	000386               	j	6f26820 <UTIL_LRGainProcess+0x50>

06f26811 <UTIL_LRGainProcess+0x41>:
	...

06f26812 <UTIL_LRGainProcess+0x42>:
 6f26812:	c0ebe0               	sub	a14, a11, a14
 6f26815:	0d000b41a0b0c7ee 	{ bgeu.w18	a7, a14, 6f268d3 <UTIL_LRGainProcess+0x103>; nop }
 6f2681d:	e026a2               	l32i	a10, a6, 0x380

06f26820 <UTIL_LRGainProcess+0x50>:
 6f26820:	01a9                	s32i.n	a10, a1, 0
 6f26822:	0804e2               	l8ui	a14, a4, 8
 6f26825:	44a8                	l32i.n	a10, a4, 16
 6f26827:	0dbce7               	bgeu	a12, a14, 6f26838 <UTIL_LRGainProcess+0x68>
 6f2682a:	87cec2               	addi	a12, a14, -121
 6f2682d:	07bdc7               	bgeu	a13, a12, 6f26838 <UTIL_LRGainProcess+0x68>
 6f26830:	7d26a2               	l32i	a10, a6, 0x1f4
 6f26833:	0003c6               	j	6f26846 <UTIL_LRGainProcess+0x76>

06f26836 <UTIL_LRGainProcess+0x66>:
	...

06f26838 <UTIL_LRGainProcess+0x68>:
 6f26838:	c0bbe0               	sub	a11, a11, a14
 6f2683b:	0d000c4190b0c7be 	{ bgeu.w18	a7, a11, 6f26908 <UTIL_LRGainProcess+0x138>; nop }
 6f26843:	e026a2               	l32i	a10, a6, 0x380

06f26846 <UTIL_LRGainProcess+0x76>:
 6f26846:	b14b                	addi.n	a11, a1, 4
 6f26848:	11a9                	s32i.n	a10, a1, 4
 6f2684a:	03cd                	mov.n	a12, a3
 6f2684c:	01ad                	mov.n	a10, a1
 6f2684e:	fff465               	call8	6f26794 <UTILS_GainBalanceCoef>
 6f26851:	8f26d2               	l32i	a13, a6, 0x23c
 6f26854:	01a8                	l32i.n	a10, a1, 0
 6f26856:	11e8                	l32i.n	a14, a1, 4
 6f26858:	029ad7               	bne	a10, a13, 6f2685e <UTIL_LRGainProcess+0x8e>
 6f2685b:	721ed7               	beq	a14, a13, 6f268d1 <UTIL_LRGainProcess+0x101>
 6f2685e:	32b8                	l32i.n	a11, a2, 12
 6f26860:	7e1c                	movi.n	a14, 23
 6f26862:	0d401041b0b0bb0e 	{ beqi.w18	a11, 16, 6f26971 <UTIL_LRGainProcess+0x1a1>; nop }
 6f2686a:	8f1c                	movi.n	a15, 24
 6f2686c:	619bf7               	bne	a11, a15, 6f268d1 <UTIL_LRGainProcess+0x101>
 6f2686f:	f61631               	l32r	a3, 6f240c8 <_stext+0xe8>
 6f26872:	02b8                	l32i.n	a11, a2, 0
 6f26874:	1128                	l32i.n	a2, a1, 4
 6f26876:	c50b                	addi.n	a12, a5, -1
 6f26878:	0d00154140b0b2ae 	{ bne.w18	a2, a10, 6f269d0 <UTIL_LRGainProcess+0x200>; nop }
 6f26880:	3c0a34               	ae_movda32	aed0, a10
 6f26883:	489576               	loopnez	a5, 6f268cf <UTIL_LRGainProcess+0xff>
 6f26886:	0bc8                	l32i.n	a12, a11, 0
 6f26888:	5a9c                	beqz.n	a10, 6f268a1 <UTIL_LRGainProcess+0xd1>
 6f2688a:	1a3da7               	bltu	a13, a10, 6f268a8 <UTIL_LRGainProcess+0xd8>
 6f2688d:	3c1c34               	ae_movda32	aed1, a12
 6f26890:	eb0fdd000101259f 	{ nop; ae_mul32.ll	aed1, aed1, aed0; nop }
 6f26898:	811e14               	ae_sraa64	aed1, aed1, a14
 6f2689b:	2591c4               	ae_movad32.l	a9, aed1
 6f2689e:	000a46               	j	6f268cb <UTIL_LRGainProcess+0xfb>

06f268a1 <UTIL_LRGainProcess+0xd1>:
 6f268a1:	090c                	movi.n	a9, 0
 6f268a3:	000906               	j	6f268cb <UTIL_LRGainProcess+0xfb>

06f268a6 <UTIL_LRGainProcess+0xd6>:
	...

06f268a8 <UTIL_LRGainProcess+0xd8>:
 6f268a8:	2198c0               	srai	a9, a12, 8
 6f268ab:	3c2934               	ae_movda32	aed2, a9
 6f268ae:	eb0fdd000202259f 	{ nop; ae_mul32.ll	aed2, aed2, aed0; nop }
 6f268b6:	812e24               	ae_sraa64	aed2, aed2, a14
 6f268b9:	25c2c4               	ae_movad32.l	a12, aed2
 6f268bc:	3187c0               	srai	a8, a12, 23
 6f268bf:	31ffc0               	srai	a15, a12, 31
 6f268c2:	021f87               	beq	a15, a8, 6f268c8 <UTIL_LRGainProcess+0xf8>
 6f268c5:	30cf30               	xor	a12, a15, a3
 6f268c8:	119c80               	slli	a9, a12, 8
 6f268cb:	0b99                	s32i.n	a9, a11, 0
 6f268cd:	bb4b                	addi.n	a11, a11, 4

06f268cf <UTIL_LRGainProcess+0xff>:
 6f268cf:	f01d                	retw.n

06f268d1 <UTIL_LRGainProcess+0x101>:
 6f268d1:	f01d                	retw.n

06f268d3 <UTIL_LRGainProcess+0x103>:
 6f268d3:	a0eef0               	addx4	a14, a14, a15
 6f268d6:	7f2e92               	l32i	a9, a14, 0x1fc
 6f268d9:	22ea16               	beqz	a10, 6f26b0b <UTIL_LRGainProcess+0x33b>
 6f268dc:	026192               	s32i	a9, a1, 8
 6f268df:	0d40234120b01a6e 	{ blti.w18	a10, 1, 6f26b15 <UTIL_LRGainProcess+0x345>; nop }
 6f268e7:	7e2eb2               	l32i	a11, a14, 0x1f8
 6f268ea:	c0bb90               	sub	a11, a11, a9
 6f268ed:	153325               	call8	6f3bc20 <__mulsi3>
 6f268f0:	8ba0b2               	movi	a11, 139
 6f268f3:	79a0c2               	movi	a12, 121
 6f268f6:	41e3a0               	srli	a14, a10, 3
 6f268f9:	11a0d2               	movi	a13, 17
 6f268fc:	0221a2               	l32i	a10, a1, 8
 6f268ff:	f5f3f1               	l32r	a15, 6f240cc <_stext+0xec>
 6f26902:	aaea                	add.n	a10, a10, a14
 6f26904:	ffc606               	j	6f26820 <UTIL_LRGainProcess+0x50>

06f26907 <UTIL_LRGainProcess+0x137>:
	...

06f26908 <UTIL_LRGainProcess+0x138>:
 6f26908:	a0bbf0               	addx4	a11, a11, a15
 6f2690b:	7f2b42               	l32i	a4, a11, 0x1fc
 6f2690e:	1fea16               	beqz	a10, 6f26b10 <UTIL_LRGainProcess+0x340>
 6f26911:	0d40224170b01a6e 	{ blti.w18	a10, 1, 6f26b3c <UTIL_LRGainProcess+0x36c>; nop }
 6f26919:	7e2bb2               	l32i	a11, a11, 0x1f8
 6f2691c:	c0bb40               	sub	a11, a11, a4
 6f2691f:	153025               	call8	6f3bc20 <__mulsi3>
 6f26922:	41a3a0               	srli	a10, a10, 3
 6f26925:	a4aa                	add.n	a10, a4, a10
 6f26927:	ffc6c6               	j	6f26846 <UTIL_LRGainProcess+0x76>

06f2692a <UTIL_LRGainProcess+0x15a>:
 6f2692a:	000000                                        ...

06f2692d <UTIL_LRGainProcess+0x15d>:
 6f2692d:	32a8                	l32i.n	a10, a2, 12
 6f2692f:	0d40224110b0ba0e 	{ beqi.w18	a10, 16, 6f26b54 <UTIL_LRGainProcess+0x384>; nop }
 6f26937:	969a67               	bne	a10, a6, 6f268d1 <UTIL_LRGainProcess+0x101>
 6f2693a:	0294a2               	l16si	a10, a4, 4
 6f2693d:	0494b2               	l16si	a11, a4, 8
 6f26940:	0228                	l32i.n	a2, a2, 0
 6f26942:	0d002441a0b0bbae 	{ bne.w18	a11, a10, 6f26b90 <UTIL_LRGainProcess+0x3c0>; nop }
 6f2694a:	8315a6               	blti	a5, 1, 6f268d1 <UTIL_LRGainProcess+0x101>
 6f2694d:	a03520               	addx4	a3, a5, a2
 6f26950:	114a00               	slli	a4, a10, 16
 6f26953:	316f40               	srai	a6, a4, 31
 6f26956:	20d660               	or	a13, a6, a6
 6f26959:	0022a2               	l32i	a10, a2, 0
 6f2695c:	20c440               	or	a12, a4, a4
 6f2695f:	31bfa0               	srai	a11, a10, 31
 6f26962:	0d6ce5               	call8	6f34030 <__muldi3>
 6f26965:	11bbf0               	slli	a11, a11, 1
 6f26968:	02b9                	s32i.n	a11, a2, 0
 6f2696a:	224b                	addi.n	a2, a2, 4
 6f2696c:	e69237               	bne	a2, a3, 6f26956 <UTIL_LRGainProcess+0x186>
 6f2696f:	f01d                	retw.n

06f26971 <UTIL_LRGainProcess+0x1a1>:
 6f26971:	f5cc31               	l32r	a3, 6f240a4 <_stext+0xc4>
 6f26974:	02b8                	l32i.n	a11, a2, 0
 6f26976:	1128                	l32i.n	a2, a1, 4
 6f26978:	c50b                	addi.n	a12, a5, -1
 6f2697a:	0d000f41a0b0b2ae 	{ bne.w18	a2, a10, 6f26a78 <UTIL_LRGainProcess+0x2a8>; nop }
 6f26982:	3c0a34               	ae_movda32	aed0, a10
 6f26985:	409576               	loopnez	a5, 6f269c9 <UTIL_LRGainProcess+0x1f9>
 6f26988:	009bc2               	l16si	a12, a11, 0
 6f2698b:	2a9c                	beqz.n	a10, 6f269a1 <UTIL_LRGainProcess+0x1d1>
 6f2698d:	3c1c24               	ae_movda16	aed1, a12
 6f26990:	0c0001b140a3edae 	{ bltu.w18	a13, a10, 6f269a8 <UTIL_LRGainProcess+0x1d8>; ae_mul32x16.l0	aed3, aed0, aed1 }
 6f26998:	813e34               	ae_sraa64	aed3, aed3, a14
 6f2699b:	259384               	ae_movad16.0	a9, aed3
 6f2699e:	000886               	j	6f269c4 <UTIL_LRGainProcess+0x1f4>

06f269a1 <UTIL_LRGainProcess+0x1d1>:
 6f269a1:	090c                	movi.n	a9, 0
 6f269a3:	000746               	j	6f269c4 <UTIL_LRGainProcess+0x1f4>

06f269a6 <UTIL_LRGainProcess+0x1d6>:
	...

06f269a8 <UTIL_LRGainProcess+0x1d8>:
 6f269a8:	eb09dd010004259f 	{ nop; ae_mul32x16.l0	aed4, aed0, aed1; nop }
 6f269b0:	814e44               	ae_sraa64	aed4, aed4, a14
 6f269b3:	25c4c4               	ae_movad32.l	a12, aed4
 6f269b6:	218fc0               	srai	a8, a12, 15
 6f269b9:	31ffc0               	srai	a15, a12, 31
 6f269bc:	021f87               	beq	a15, a8, 6f269c2 <UTIL_LRGainProcess+0x1f2>
 6f269bf:	30cf30               	xor	a12, a15, a3
 6f269c2:	0c9d                	mov.n	a9, a12
 6f269c4:	005b92               	s16i	a9, a11, 0
 6f269c7:	bb2b                	addi.n	a11, a11, 2

06f269c9 <UTIL_LRGainProcess+0x1f9>:
 6f269c9:	f01d                	retw.n

06f269cb <UTIL_LRGainProcess+0x1fb>:
 6f269cb:	00000000 0242ae00                                .....

06f269d0 <UTIL_LRGainProcess+0x200>:
 6f269d0:	400001b5450242ae 	{ ae_movda32	aed2, a2; nop; ae_movda32	aed0, a10 }
 6f269d8:	959576               	loopnez	a5, 6f26a71 <UTIL_LRGainProcess+0x2a1>
 6f269db:	0bf8                	l32i.n	a15, a11, 0
 6f269dd:	476c07               	bbci	a12, 0, 6f26a28 <UTIL_LRGainProcess+0x258>
 6f269e0:	5a9c                	beqz.n	a10, 6f269f9 <UTIL_LRGainProcess+0x229>
 6f269e2:	1a3da7               	bltu	a13, a10, 6f26a00 <UTIL_LRGainProcess+0x230>
 6f269e5:	3c5f34               	ae_movda32	aed5, a15
 6f269e8:	eb0fdd000505259f 	{ nop; ae_mul32.ll	aed5, aed5, aed0; nop }
 6f269f0:	815e54               	ae_sraa64	aed5, aed5, a14
 6f269f3:	2595c4               	ae_movad32.l	a9, aed5
 6f269f6:	000a46               	j	6f26a23 <UTIL_LRGainProcess+0x253>

06f269f9 <UTIL_LRGainProcess+0x229>:
 6f269f9:	090c                	movi.n	a9, 0
 6f269fb:	000906               	j	6f26a23 <UTIL_LRGainProcess+0x253>

06f269fe <UTIL_LRGainProcess+0x22e>:
	...

06f26a00 <UTIL_LRGainProcess+0x230>:
 6f26a00:	21f8f0               	srai	a15, a15, 8
 6f26a03:	3c6f34               	ae_movda32	aed6, a15
 6f26a06:	eb0fdd000606259f 	{ nop; ae_mul32.ll	aed6, aed6, aed0; nop }
 6f26a0e:	816e64               	ae_sraa64	aed6, aed6, a14
 6f26a11:	25f6c4               	ae_movad32.l	a15, aed6
 6f26a14:	3197f0               	srai	a9, a15, 23
 6f26a17:	314ff0               	srai	a4, a15, 31
 6f26a1a:	021497               	beq	a4, a9, 6f26a20 <UTIL_LRGainProcess+0x250>
 6f26a1d:	30f430               	xor	a15, a4, a3
 6f26a20:	119f80               	slli	a9, a15, 8
 6f26a23:	0b99                	s32i.n	a9, a11, 0
 6f26a25:	001106               	j	6f26a6d <UTIL_LRGainProcess+0x29d>

06f26a28 <UTIL_LRGainProcess+0x258>:
 6f26a28:	529c                	beqz.n	a2, 6f26a41 <UTIL_LRGainProcess+0x271>
 6f26a2a:	1a3d27               	bltu	a13, a2, 6f26a48 <UTIL_LRGainProcess+0x278>
 6f26a2d:	3c7f34               	ae_movda32	aed7, a15
 6f26a30:	eb0fdd020707259f 	{ nop; ae_mul32.ll	aed7, aed7, aed2; nop }
 6f26a38:	817e74               	ae_sraa64	aed7, aed7, a14
 6f26a3b:	2597c4               	ae_movad32.l	a9, aed7
 6f26a3e:	000a46               	j	6f26a6b <UTIL_LRGainProcess+0x29b>

06f26a41 <UTIL_LRGainProcess+0x271>:
 6f26a41:	090c                	movi.n	a9, 0
 6f26a43:	000906               	j	6f26a6b <UTIL_LRGainProcess+0x29b>

06f26a46 <UTIL_LRGainProcess+0x276>:
	...

06f26a48 <UTIL_LRGainProcess+0x278>:
 6f26a48:	2198f0               	srai	a9, a15, 8
 6f26a4b:	3c8934               	ae_movda32	aed8, a9
 6f26a4e:	eb0fdd020808259f 	{ nop; ae_mul32.ll	aed8, aed8, aed2; nop }
 6f26a56:	818e84               	ae_sraa64	aed8, aed8, a14
 6f26a59:	25f8c4               	ae_movad32.l	a15, aed8
 6f26a5c:	3187f0               	srai	a8, a15, 23
 6f26a5f:	314ff0               	srai	a4, a15, 31
 6f26a62:	021487               	beq	a4, a8, 6f26a68 <UTIL_LRGainProcess+0x298>
 6f26a65:	30f430               	xor	a15, a4, a3
 6f26a68:	119f80               	slli	a9, a15, 8
 6f26a6b:	0b99                	s32i.n	a9, a11, 0
 6f26a6d:	bb4b                	addi.n	a11, a11, 4
 6f26a6f:	cc0b                	addi.n	a12, a12, -1

06f26a71 <UTIL_LRGainProcess+0x2a1>:
 6f26a71:	f01d                	retw.n

06f26a73 <UTIL_LRGainProcess+0x2a3>:
 6f26a73:	00000000 0242ae00                                .....

06f26a78 <UTIL_LRGainProcess+0x2a8>:
 6f26a78:	400001b5450242ae 	{ ae_movda32	aed2, a2; nop; ae_movda32	aed0, a10 }
 6f26a80:	859576               	loopnez	a5, 6f26b09 <UTIL_LRGainProcess+0x339>
 6f26a83:	009bf2               	l16si	a15, a11, 0
 6f26a86:	3e6c07               	bbci	a12, 0, 6f26ac8 <UTIL_LRGainProcess+0x2f8>
 6f26a89:	3a9c                	beqz.n	a10, 6f26aa0 <UTIL_LRGainProcess+0x2d0>
 6f26a8b:	3c1f24               	ae_movda16	aed1, a15
 6f26a8e:	0c0001b160a9edae 	{ bltu.w18	a13, a10, 6f26aa8 <UTIL_LRGainProcess+0x2d8>; ae_mul32x16.l0	aed9, aed0, aed1 }
 6f26a96:	819e94               	ae_sraa64	aed9, aed9, a14
 6f26a99:	25f984               	ae_movad16.0	a15, aed9
 6f26a9c:	000886               	j	6f26ac2 <UTIL_LRGainProcess+0x2f2>

06f26a9f <UTIL_LRGainProcess+0x2cf>:
	...

06f26aa0 <UTIL_LRGainProcess+0x2d0>:
 6f26aa0:	0f0c                	movi.n	a15, 0
 6f26aa2:	000706               	j	6f26ac2 <UTIL_LRGainProcess+0x2f2>

06f26aa5 <UTIL_LRGainProcess+0x2d5>:
 6f26aa5:	000000                                        ...

06f26aa8 <UTIL_LRGainProcess+0x2d8>:
 6f26aa8:	eb09dd01000a259f 	{ nop; ae_mul32x16.l0	aed10, aed0, aed1; nop }
 6f26ab0:	81aea4               	ae_sraa64	aed10, aed10, a14
 6f26ab3:	25fac4               	ae_movad32.l	a15, aed10
 6f26ab6:	218ff0               	srai	a8, a15, 15
 6f26ab9:	314ff0               	srai	a4, a15, 31
 6f26abc:	021487               	beq	a4, a8, 6f26ac2 <UTIL_LRGainProcess+0x2f2>
 6f26abf:	30f430               	xor	a15, a4, a3
 6f26ac2:	005bf2               	s16i	a15, a11, 0
 6f26ac5:	000f06               	j	6f26b05 <UTIL_LRGainProcess+0x335>

06f26ac8 <UTIL_LRGainProcess+0x2f8>:
 6f26ac8:	229c                	beqz.n	a2, 6f26ade <UTIL_LRGainProcess+0x30e>
 6f26aca:	3c1f24               	ae_movda16	aed1, a15
 6f26acd:	0c0001b172abed2e 	{ bltu.w18	a13, a2, 6f26ae8 <UTIL_LRGainProcess+0x318>; ae_mul32x16.l0	aed11, aed2, aed1 }
 6f26ad5:	81beb4               	ae_sraa64	aed11, aed11, a14
 6f26ad8:	25fb84               	ae_movad16.0	a15, aed11
 6f26adb:	0008c6               	j	6f26b02 <UTIL_LRGainProcess+0x332>

06f26ade <UTIL_LRGainProcess+0x30e>:
 6f26ade:	0f0c                	movi.n	a15, 0
 6f26ae0:	000786               	j	6f26b02 <UTIL_LRGainProcess+0x332>

06f26ae3 <UTIL_LRGainProcess+0x313>:
 6f26ae3:	00000000 0c259f00                                .....

06f26ae8 <UTIL_LRGainProcess+0x318>:
 6f26ae8:	eb09dd01020c259f 	{ nop; ae_mul32x16.l0	aed12, aed2, aed1; nop }
 6f26af0:	81cec4               	ae_sraa64	aed12, aed12, a14
 6f26af3:	25fcc4               	ae_movad32.l	a15, aed12
 6f26af6:	219ff0               	srai	a9, a15, 15
 6f26af9:	314ff0               	srai	a4, a15, 31
 6f26afc:	021497               	beq	a4, a9, 6f26b02 <UTIL_LRGainProcess+0x332>
 6f26aff:	30f430               	xor	a15, a4, a3
 6f26b02:	005bf2               	s16i	a15, a11, 0
 6f26b05:	bb2b                	addi.n	a11, a11, 2
 6f26b07:	cc0b                	addi.n	a12, a12, -1

06f26b09 <UTIL_LRGainProcess+0x339>:
 6f26b09:	f01d                	retw.n

06f26b0b <UTIL_LRGainProcess+0x33b>:
 6f26b0b:	09ad                	mov.n	a10, a9
 6f26b0d:	ff43c6               	j	6f26820 <UTIL_LRGainProcess+0x50>

06f26b10 <UTIL_LRGainProcess+0x340>:
 6f26b10:	04ad                	mov.n	a10, a4
 6f26b12:	ff4c06               	j	6f26846 <UTIL_LRGainProcess+0x76>

06f26b15 <UTIL_LRGainProcess+0x345>:
 6f26b15:	802ec2               	l32i	a12, a14, 0x200
 6f26b18:	c0b9c0               	sub	a11, a9, a12
 6f26b1b:	151065               	call8	6f3bc20 <__mulsi3>
 6f26b1e:	8ba0b2               	movi	a11, 139
 6f26b21:	79a0c2               	movi	a12, 121
 6f26b24:	1d1c                	movi.n	a13, 17
 6f26b26:	60e0a0               	neg	a14, a10
 6f26b29:	f568f1               	l32r	a15, 6f240cc <_stext+0xec>
 6f26b2c:	21a8                	l32i.n	a10, a1, 8
 6f26b2e:	41e3e0               	srli	a14, a14, 3
 6f26b31:	c0aae0               	sub	a10, a10, a14
 6f26b34:	ff3a06               	j	6f26820 <UTIL_LRGainProcess+0x50>

06f26b37 <UTIL_LRGainProcess+0x367>:
 6f26b37:	000000                                        ...

06f26b3a <UTIL_LRGainProcess+0x36a>:
	...

06f26b3c <UTIL_LRGainProcess+0x36c>:
 6f26b3c:	802bb2               	l32i	a11, a11, 0x200
 6f26b3f:	c0b4b0               	sub	a11, a4, a11
 6f26b42:	150de5               	call8	6f3bc20 <__mulsi3>
 6f26b45:	60a0a0               	neg	a10, a10
 6f26b48:	41a3a0               	srli	a10, a10, 3
 6f26b4b:	c0a4a0               	sub	a10, a4, a10
 6f26b4e:	ff3d06               	j	6f26846 <UTIL_LRGainProcess+0x76>

06f26b51 <UTIL_LRGainProcess+0x381>:
 6f26b51:	000000                                        ...

06f26b54 <UTIL_LRGainProcess+0x384>:
 6f26b54:	0294a2               	l16si	a10, a4, 4
 6f26b57:	0494b2               	l16si	a11, a4, 8
 6f26b5a:	0228                	l32i.n	a2, a2, 0
 6f26b5c:	789ba7               	bne	a11, a10, 6f26bd8 <UTIL_LRGainProcess+0x408>
 6f26b5f:	0d7fd641e0b0156e 	{ blti.w18	a5, 1, 6f268d1 <UTIL_LRGainProcess+0x101>; nop }
 6f26b67:	903520               	addx2	a3, a5, a2
 6f26b6a:	114a00               	slli	a4, a10, 16
 6f26b6d:	316f40               	srai	a6, a4, 31
 6f26b70:	20d660               	or	a13, a6, a6
 6f26b73:	0092a2               	l16si	a10, a2, 0
 6f26b76:	20c440               	or	a12, a4, a4
 6f26b79:	31bfa0               	srai	a11, a10, 31
 6f26b7c:	0d4b25               	call8	6f34030 <__muldi3>
 6f26b7f:	11bbf0               	slli	a11, a11, 1
 6f26b82:	0052b2               	s16i	a11, a2, 0
 6f26b85:	02c222               	addi	a2, a2, 2
 6f26b88:	e49237               	bne	a2, a3, 6f26b70 <UTIL_LRGainProcess+0x3a0>
 6f26b8b:	f01d                	retw.n

06f26b8d <UTIL_LRGainProcess+0x3bd>:
 6f26b8d:	000000                                        ...

06f26b90 <UTIL_LRGainProcess+0x3c0>:
 6f26b90:	0d7fd341d0b0156e 	{ blti.w18	a5, 1, 6f268d1 <UTIL_LRGainProcess+0x101>; nop }
 6f26b98:	030c                	movi.n	a3, 0
 6f26b9a:	117b00               	slli	a7, a11, 16
 6f26b9d:	114a00               	slli	a4, a10, 16
 6f26ba0:	316f40               	srai	a6, a4, 31
 6f26ba3:	31cf70               	srai	a12, a7, 31
 6f26ba6:	31c9                	s32i.n	a12, a1, 12
 6f26ba8:	0022a2               	l32i	a10, a2, 0
 6f26bab:	31bfa0               	srai	a11, a10, 31
 6f26bae:	0e6307               	bbci	a3, 0, 6f26bc0 <UTIL_LRGainProcess+0x3f0>
 6f26bb1:	0321d2               	l32i	a13, a1, 12
 6f26bb4:	20c770               	or	a12, a7, a7
 6f26bb7:	0d47a5               	call8	6f34030 <__muldi3>
 6f26bba:	11abf0               	slli	a10, a11, 1
 6f26bbd:	000246               	j	6f26bca <UTIL_LRGainProcess+0x3fa>

06f26bc0 <UTIL_LRGainProcess+0x3f0>:
 6f26bc0:	06dd                	mov.n	a13, a6
 6f26bc2:	04cd                	mov.n	a12, a4
 6f26bc4:	0d46a5               	call8	6f34030 <__muldi3>
 6f26bc7:	11abf0               	slli	a10, a11, 1
 6f26bca:	02a9                	s32i.n	a10, a2, 0
 6f26bcc:	331b                	addi.n	a3, a3, 1
 6f26bce:	224b                	addi.n	a2, a2, 4
 6f26bd0:	d49357               	bne	a3, a5, 6f26ba8 <UTIL_LRGainProcess+0x3d8>
 6f26bd3:	f01d                	retw.n

06f26bd5 <UTIL_LRGainProcess+0x405>:
 6f26bd5:	000000                                        ...

06f26bd8 <UTIL_LRGainProcess+0x408>:
 6f26bd8:	0d7fcf4150b0156e 	{ blti.w18	a5, 1, 6f268d1 <UTIL_LRGainProcess+0x101>; nop }
 6f26be0:	030c                	movi.n	a3, 0
 6f26be2:	117b00               	slli	a7, a11, 16
 6f26be5:	114a00               	slli	a4, a10, 16
 6f26be8:	316f40               	srai	a6, a4, 31
 6f26beb:	31df70               	srai	a13, a7, 31
 6f26bee:	31d9                	s32i.n	a13, a1, 12
 6f26bf0:	0092a2               	l16si	a10, a2, 0
 6f26bf3:	31bfa0               	srai	a11, a10, 31
 6f26bf6:	116307               	bbci	a3, 0, 6f26c0b <UTIL_LRGainProcess+0x43b>
 6f26bf9:	07cd                	mov.n	a12, a7
 6f26bfb:	31d8                	l32i.n	a13, a1, 12
 6f26bfd:	0d4325               	call8	6f34030 <__muldi3>
 6f26c00:	11abf0               	slli	a10, a11, 1
 6f26c03:	000386               	j	6f26c15 <UTIL_LRGainProcess+0x445>

06f26c06 <UTIL_LRGainProcess+0x436>:
 6f26c06:	000000                                        ...

06f26c09 <UTIL_LRGainProcess+0x439>:
	...

06f26c0b <UTIL_LRGainProcess+0x43b>:
 6f26c0b:	04cd                	mov.n	a12, a4
 6f26c0d:	06dd                	mov.n	a13, a6
 6f26c0f:	0d4225               	call8	6f34030 <__muldi3>
 6f26c12:	11abf0               	slli	a10, a11, 1
 6f26c15:	0052a2               	s16i	a10, a2, 0
 6f26c18:	331b                	addi.n	a3, a3, 1
 6f26c1a:	222b                	addi.n	a2, a2, 2
 6f26c1c:	d09357               	bne	a3, a5, 6f26bf0 <UTIL_LRGainProcess+0x420>
 6f26c1f:	f01d                	retw.n

06f26c21 <UTIL_LRGainProcess+0x451>:
 6f26c21:	000000                                        ...

06f26c24 <UTIL_LRFadeGainProcess>:
 6f26c24:	006136               	entry	a1, 48
 6f26c27:	34a8                	l32i.n	a10, a4, 12
 6f26c29:	1e1c                	movi.n	a14, 17
 6f26c2b:	8ba0b2               	movi	a11, 139
 6f26c2e:	62a062               	movi	a6, 98
 6f26c31:	0404d2               	l8ui	a13, a4, 4
 6f26c34:	79a0c2               	movi	a12, 121
 6f26c37:	f523f1               	l32r	a15, 6f240c4 <_stext+0xe4>
 6f26c3a:	0278                	l32i.n	a7, a2, 0
 6f26c3c:	2179                	s32i.n	a7, a1, 8
 6f26c3e:	f8cff2               	addi	a15, a15, -8
 6f26c41:	0ebcd7               	bgeu	a12, a13, 6f26c53 <UTIL_LRFadeGainProcess+0x2f>
 6f26c44:	87cd82               	addi	a8, a13, -121
 6f26c47:	08be87               	bgeu	a14, a8, 6f26c53 <UTIL_LRFadeGainProcess+0x2f>
 6f26c4a:	f51e41               	l32r	a4, 6f240c4 <_stext+0xe4>
 6f26c4d:	7d2442               	l32i	a4, a4, 0x1f4
 6f26c50:	000406               	j	6f26c64 <UTIL_LRFadeGainProcess+0x40>

06f26c53 <UTIL_LRFadeGainProcess+0x2f>:
 6f26c53:	c0dbd0               	sub	a13, a11, a13
 6f26c56:	0d001e4130b0c6de 	{ bgeu.w18	a6, a13, 6f26e3d <UTIL_LRFadeGainProcess+0x219>; nop }
 6f26c5e:	f51941               	l32r	a4, 6f240c4 <_stext+0xe4>
 6f26c61:	e02442               	l32i	a4, a4, 0x380

06f26c64 <UTIL_LRFadeGainProcess+0x40>:
 6f26c64:	0405d2               	l8ui	a13, a5, 4
 6f26c67:	35a8                	l32i.n	a10, a5, 12
 6f26c69:	0ebcd7               	bgeu	a12, a13, 6f26c7b <UTIL_LRFadeGainProcess+0x57>
 6f26c6c:	87cd82               	addi	a8, a13, -121
 6f26c6f:	08be87               	bgeu	a14, a8, 6f26c7b <UTIL_LRFadeGainProcess+0x57>
 6f26c72:	f514a1               	l32r	a10, 6f240c4 <_stext+0xe4>
 6f26c75:	7d2aa2               	l32i	a10, a10, 0x1f4
 6f26c78:	000406               	j	6f26c8c <UTIL_LRFadeGainProcess+0x68>

06f26c7b <UTIL_LRFadeGainProcess+0x57>:
 6f26c7b:	c0bbd0               	sub	a11, a11, a13
 6f26c7e:	0d001e4170b0c6be 	{ bgeu.w18	a6, a11, 6f26e69 <UTIL_LRFadeGainProcess+0x245>; nop }
 6f26c86:	f50fa1               	l32r	a10, 6f240c4 <_stext+0xe4>
 6f26c89:	e02aa2               	l32i	a10, a10, 0x380

06f26c8c <UTIL_LRFadeGainProcess+0x68>:
 6f26c8c:	022252               	l32i	a5, a2, 8
 6f26c8f:	c0aa40               	sub	a10, a10, a4
 6f26c92:	20b550               	or	a11, a5, a5
 6f26c95:	1500a5               	call8	6f3bca0 <__divsi3>
 6f26c98:	206aa0               	or	a6, a10, a10
 6f26c9b:	0149                	s32i.n	a4, a1, 0
 6f26c9d:	1149                	s32i.n	a4, a1, 4
 6f26c9f:	198516               	beqz	a5, 6f26e3b <UTIL_LRFadeGainProcess+0x217>
 6f26ca2:	050c                	movi.n	a5, 0
 6f26ca4:	000406               	j	6f26cb8 <UTIL_LRFadeGainProcess+0x94>

06f26ca7 <UTIL_LRFadeGainProcess+0x83>:
	...

06f26ca8 <UTIL_LRFadeGainProcess+0x84>:
 6f26ca8:	1149                	s32i.n	a4, a1, 4
 6f26caa:	0149                	s32i.n	a4, a1, 0
 6f26cac:	22f8                	l32i.n	a15, a2, 8
 6f26cae:	551b                	addi.n	a5, a5, 1
 6f26cb0:	0d00184170b0c5fe 	{ bgeu.w18	a5, a15, 6f26e3b <UTIL_LRFadeGainProcess+0x217>; nop }
 6f26cb8:	03cd                	mov.n	a12, a3
 6f26cba:	1149                	s32i.n	a4, a1, 4
 6f26cbc:	0149                	s32i.n	a4, a1, 0
 6f26cbe:	01ad                	mov.n	a10, a1
 6f26cc0:	b14b                	addi.n	a11, a1, 4
 6f26cc2:	ffad25               	call8	6f26794 <UTILS_GainBalanceCoef>
 6f26cc5:	32a8                	l32i.n	a10, a2, 12
 6f26cc7:	446a                	add.n	a4, a4, a6
 6f26cc9:	3bba26               	beqi	a10, 16, 6f26d08 <UTIL_LRFadeGainProcess+0xe4>
 6f26ccc:	881c                	movi.n	a8, 24
 6f26cce:	d69a87               	bne	a10, a8, 6f26ca8 <UTIL_LRFadeGainProcess+0x84>
 6f26cd1:	21a8                	l32i.n	a10, a1, 8
 6f26cd3:	01b8                	l32i.n	a11, a1, 0
 6f26cd5:	0aa8                	l32i.n	a10, a10, 0
 6f26cd7:	0cdb16               	beqz	a11, 6f26da8 <UTIL_LRFadeGainProcess+0x184>
 6f26cda:	f4fac1               	l32r	a12, 6f240c4 <_stext+0xe4>
 6f26cdd:	21e8a0               	srai	a14, a10, 8
 6f26ce0:	8f2cc2               	l32i	a12, a12, 0x23c
 6f26ce3:	400001114501db7e 	{ ae_movda32	aed1, a11; nop; movi	a13, 23 }
 6f26ceb:	0d000b41e0b0ecbe 	{ bltu.w18	a12, a11, 6f26dad <UTIL_LRFadeGainProcess+0x189>; nop }
 6f26cf3:	3c0a34               	ae_movda32	aed0, a10
 6f26cf6:	eb0fdd010000259f 	{ nop; ae_mul32.ll	aed0, aed0, aed1; nop }
 6f26cfe:	810d04               	ae_sraa64	aed0, aed0, a13
 6f26d01:	2590c4               	ae_movad32.l	a9, aed0
 6f26d04:	0032c6               	j	6f26dd3 <UTIL_LRFadeGainProcess+0x1af>

06f26d07 <UTIL_LRFadeGainProcess+0xe3>:
	...

06f26d08 <UTIL_LRFadeGainProcess+0xe4>:
 6f26d08:	01b8                	l32i.n	a11, a1, 0
 6f26d0a:	0097a2               	l16si	a10, a7, 0
 6f26d0d:	5bac                	beqz.n	a11, 6f26d36 <UTIL_LRFadeGainProcess+0x112>
 6f26d0f:	f4ede1               	l32r	a14, 6f240c4 <_stext+0xe4>
 6f26d12:	400001b544104abe 	{ ae_movda16	aed0, a10; nop; ae_movda32	aed1, a11 }
 6f26d1a:	8f2ee2               	l32i	a14, a14, 0x23c
 6f26d1d:	eb094000010217ff 	{ movi	a15, 23; ae_mul32x16.l0	aed2, aed1, aed0; nop }
 6f26d25:	0c0001b021a3eebe 	{ bltu.w18	a14, a11, 6f26d3b <UTIL_LRFadeGainProcess+0x117>; ae_mul32x16.l0	aed3, aed1, aed0 }
 6f26d2d:	812f24               	ae_sraa64	aed2, aed2, a15
 6f26d30:	25a284               	ae_movad16.0	a10, aed2
 6f26d33:	0006c6               	j	6f26d52 <UTIL_LRFadeGainProcess+0x12e>

06f26d36 <UTIL_LRFadeGainProcess+0x112>:
 6f26d36:	0a0c                	movi.n	a10, 0
 6f26d38:	000586               	j	6f26d52 <UTIL_LRFadeGainProcess+0x12e>

06f26d3b <UTIL_LRFadeGainProcess+0x117>:
 6f26d3b:	791c                	movi.n	a9, 23
 6f26d3d:	813934               	ae_sraa64	aed3, aed3, a9
 6f26d40:	25a3c4               	ae_movad32.l	a10, aed3
 6f26d43:	218fa0               	srai	a8, a10, 15
 6f26d46:	31bfa0               	srai	a11, a10, 31
 6f26d49:	051b87               	beq	a11, a8, 6f26d52 <UTIL_LRFadeGainProcess+0x12e>
 6f26d4c:	f4d6a1               	l32r	a10, 6f240a4 <_stext+0xc4>
 6f26d4f:	30aba0               	xor	a10, a11, a10
 6f26d52:	0057a2               	s16i	a10, a7, 0
 6f26d55:	11b8                	l32i.n	a11, a1, 4
 6f26d57:	0197a2               	l16si	a10, a7, 2
 6f26d5a:	5bac                	beqz.n	a11, 6f26d83 <UTIL_LRFadeGainProcess+0x15f>
 6f26d5c:	f4dac1               	l32r	a12, 6f240c4 <_stext+0xe4>
 6f26d5f:	400001b544104abe 	{ ae_movda16	aed0, a10; nop; ae_movda32	aed1, a11 }
 6f26d67:	8f2cc2               	l32i	a12, a12, 0x23c
 6f26d6a:	eb094000010417df 	{ movi	a13, 23; ae_mul32x16.l0	aed4, aed1, aed0; nop }
 6f26d72:	0c0001b031a5ecbe 	{ bltu.w18	a12, a11, 6f26d89 <UTIL_LRFadeGainProcess+0x165>; ae_mul32x16.l0	aed5, aed1, aed0 }
 6f26d7a:	814d44               	ae_sraa64	aed4, aed4, a13
 6f26d7d:	25a484               	ae_movad16.0	a10, aed4
 6f26d80:	000706               	j	6f26da0 <UTIL_LRFadeGainProcess+0x17c>

06f26d83 <UTIL_LRFadeGainProcess+0x15f>:
 6f26d83:	0a0c                	movi.n	a10, 0
 6f26d85:	0005c6               	j	6f26da0 <UTIL_LRFadeGainProcess+0x17c>

06f26d88 <UTIL_LRFadeGainProcess+0x164>:
	...

06f26d89 <UTIL_LRFadeGainProcess+0x165>:
 6f26d89:	7f1c                	movi.n	a15, 23
 6f26d8b:	815f54               	ae_sraa64	aed5, aed5, a15
 6f26d8e:	25a5c4               	ae_movad32.l	a10, aed5
 6f26d91:	21efa0               	srai	a14, a10, 15
 6f26d94:	31bfa0               	srai	a11, a10, 31
 6f26d97:	051be7               	beq	a11, a14, 6f26da0 <UTIL_LRFadeGainProcess+0x17c>
 6f26d9a:	f4c2a1               	l32r	a10, 6f240a4 <_stext+0xc4>
 6f26d9d:	30aba0               	xor	a10, a11, a10
 6f26da0:	0157a2               	s16i	a10, a7, 2
 6f26da3:	774b                	addi.n	a7, a7, 4
 6f26da5:	ffbfc6               	j	6f26ca8 <UTIL_LRFadeGainProcess+0x84>

06f26da8 <UTIL_LRFadeGainProcess+0x184>:
 6f26da8:	090c                	movi.n	a9, 0
 6f26daa:	000946               	j	6f26dd3 <UTIL_LRFadeGainProcess+0x1af>

06f26dad <UTIL_LRFadeGainProcess+0x189>:
 6f26dad:	3c6e34               	ae_movda32	aed6, a14
 6f26db0:	eb0fdd010606259f 	{ nop; ae_mul32.ll	aed6, aed6, aed1; nop }
 6f26db8:	17a0d2               	movi	a13, 23
 6f26dbb:	816d64               	ae_sraa64	aed6, aed6, a13
 6f26dbe:	25a6c4               	ae_movad32.l	a10, aed6
 6f26dc1:	31c7a0               	srai	a12, a10, 23
 6f26dc4:	31bfa0               	srai	a11, a10, 31
 6f26dc7:	051bc7               	beq	a11, a12, 6f26dd0 <UTIL_LRFadeGainProcess+0x1ac>
 6f26dca:	f4bfa1               	l32r	a10, 6f240c8 <_stext+0xe8>
 6f26dcd:	30aba0               	xor	a10, a11, a10
 6f26dd0:	119a80               	slli	a9, a10, 8
 6f26dd3:	21a8                	l32i.n	a10, a1, 8
 6f26dd5:	f4bbc1               	l32r	a12, 6f240c4 <_stext+0xe4>
 6f26dd8:	0a99                	s32i.n	a9, a10, 0
 6f26dda:	11b8                	l32i.n	a11, a1, 4
 6f26ddc:	1aa8                	l32i.n	a10, a10, 4
 6f26dde:	0bac                	beqz.n	a11, 6f26e02 <UTIL_LRFadeGainProcess+0x1de>
 6f26de0:	8f2cc2               	l32i	a12, a12, 0x23c
 6f26de3:	400001114501db7e 	{ ae_movda32	aed1, a11; nop; movi	a13, 23 }
 6f26deb:	193cb7               	bltu	a12, a11, 6f26e08 <UTIL_LRFadeGainProcess+0x1e4>
 6f26dee:	3c7a34               	ae_movda32	aed7, a10
 6f26df1:	eb0fdd010707259f 	{ nop; ae_mul32.ll	aed7, aed7, aed1; nop }
 6f26df9:	817d74               	ae_sraa64	aed7, aed7, a13
 6f26dfc:	2597c4               	ae_movad32.l	a9, aed7
 6f26dff:	000b46               	j	6f26e30 <UTIL_LRFadeGainProcess+0x20c>

06f26e02 <UTIL_LRFadeGainProcess+0x1de>:
 6f26e02:	090c                	movi.n	a9, 0
 6f26e04:	000a06               	j	6f26e30 <UTIL_LRFadeGainProcess+0x20c>

06f26e07 <UTIL_LRFadeGainProcess+0x1e3>:
	...

06f26e08 <UTIL_LRFadeGainProcess+0x1e4>:
 6f26e08:	2188a0               	srai	a8, a10, 8
 6f26e0b:	3c8834               	ae_movda32	aed8, a8
 6f26e0e:	eb0fdd010808259f 	{ nop; ae_mul32.ll	aed8, aed8, aed1; nop }
 6f26e16:	7f1c                	movi.n	a15, 23
 6f26e18:	818f84               	ae_sraa64	aed8, aed8, a15
 6f26e1b:	25a8c4               	ae_movad32.l	a10, aed8
 6f26e1e:	31e7a0               	srai	a14, a10, 23
 6f26e21:	31bfa0               	srai	a11, a10, 31
 6f26e24:	051be7               	beq	a11, a14, 6f26e2d <UTIL_LRFadeGainProcess+0x209>
 6f26e27:	f4a8a1               	l32r	a10, 6f240c8 <_stext+0xe8>
 6f26e2a:	30aba0               	xor	a10, a11, a10
 6f26e2d:	119a80               	slli	a9, a10, 8
 6f26e30:	21b8                	l32i.n	a11, a1, 8
 6f26e32:	1b99                	s32i.n	a9, a11, 4
 6f26e34:	bb8b                	addi.n	a11, a11, 8
 6f26e36:	21b9                	s32i.n	a11, a1, 8
 6f26e38:	ff9b06               	j	6f26ca8 <UTIL_LRFadeGainProcess+0x84>

06f26e3b <UTIL_LRFadeGainProcess+0x217>:
 6f26e3b:	f01d                	retw.n

06f26e3d <UTIL_LRFadeGainProcess+0x219>:
 6f26e3d:	a0ddf0               	addx4	a13, a13, a15
 6f26e40:	7f2d42               	l32i	a4, a13, 0x1fc
 6f26e43:	e1da16               	beqz	a10, 6f26c64 <UTIL_LRFadeGainProcess+0x40>
 6f26e46:	431aa6               	blti	a10, 1, 6f26e8d <UTIL_LRFadeGainProcess+0x269>
 6f26e49:	7e2db2               	l32i	a11, a13, 0x1f8
 6f26e4c:	c0bb40               	sub	a11, a11, a4
 6f26e4f:	14dd25               	call8	6f3bc20 <__mulsi3>
 6f26e52:	8ba0b2               	movi	a11, 139
 6f26e55:	79a0c2               	movi	a12, 121
 6f26e58:	1e1c                	movi.n	a14, 17
 6f26e5a:	f49cf1               	l32r	a15, 6f240cc <_stext+0xec>
 6f26e5d:	41d3a0               	srli	a13, a10, 3
 6f26e60:	44da                	add.n	a4, a4, a13
 6f26e62:	ff7f86               	j	6f26c64 <UTIL_LRFadeGainProcess+0x40>

06f26e65 <UTIL_LRFadeGainProcess+0x241>:
 6f26e65:	000000                                        ...

06f26e68 <UTIL_LRFadeGainProcess+0x244>:
	...

06f26e69 <UTIL_LRFadeGainProcess+0x245>:
 6f26e69:	a0bbf0               	addx4	a11, a11, a15
 6f26e6c:	7f2b52               	l32i	a5, a11, 0x1fc
 6f26e6f:	5a9c                	beqz.n	a10, 6f26e88 <UTIL_LRFadeGainProcess+0x264>
 6f26e71:	3b1aa6               	blti	a10, 1, 6f26eb0 <UTIL_LRFadeGainProcess+0x28c>
 6f26e74:	7e2bb2               	l32i	a11, a11, 0x1f8
 6f26e77:	c0bb50               	sub	a11, a11, a5
 6f26e7a:	14da65               	call8	6f3bc20 <__mulsi3>
 6f26e7d:	41a3a0               	srli	a10, a10, 3
 6f26e80:	a5aa                	add.n	a10, a5, a10
 6f26e82:	ff8186               	j	6f26c8c <UTIL_LRFadeGainProcess+0x68>

06f26e85 <UTIL_LRFadeGainProcess+0x261>:
 6f26e85:	000000                                        ...

06f26e88 <UTIL_LRFadeGainProcess+0x264>:
 6f26e88:	05ad                	mov.n	a10, a5
