#include "hi_asm_define.h"
	.arch armv7-a
	.fpu softvfp
	.eabi_attribute 20, 1
	.eabi_attribute 21, 1
	.eabi_attribute 23, 3
	.eabi_attribute 24, 1
	.eabi_attribute 25, 1
	.eabi_attribute 26, 2
	.eabi_attribute 30, 2
	.eabi_attribute 34, 0
	.eabi_attribute 18, 4
	.file	"h264.c"
	.text
	.align	2
	.global	IsSTRefFlg
	.type	IsSTRefFlg, %function
IsSTRefFlg:
	UNWIND(.fnstart)
	@ args = 0, pretend = 0, frame = 0
	@ frame_needed = 1, uses_anonymous_args = 0
	UNWIND(.movsp ip)
	mov	ip, sp
	stmfd	sp!, {fp, ip, lr, pc}
	UNWIND(.pad #4)
	UNWIND(.save {fp, ip, lr})
	UNWIND(.setfp fp, ip, #-4)
	sub	fp, ip, #4
	ldr	r0, [r0]
	bic	r0, r0, #-16777216
	bic	r0, r0, #255
	sub	r0, r0, #65536
	clz	r0, r0
	mov	r0, r0, lsr #5
	ldmfd	sp, {fp, sp, pc}
	UNWIND(.fnend)
	.size	IsSTRefFlg, .-IsSTRefFlg
	.align	2
	.global	IsLTRefFlg
	.type	IsLTRefFlg, %function
IsLTRefFlg:
	UNWIND(.fnstart)
	@ args = 0, pretend = 0, frame = 0
	@ frame_needed = 1, uses_anonymous_args = 0
	UNWIND(.movsp ip)
	mov	ip, sp
	stmfd	sp!, {fp, ip, lr, pc}
	UNWIND(.pad #4)
	UNWIND(.save {fp, ip, lr})
	UNWIND(.setfp fp, ip, #-4)
	sub	fp, ip, #4
	ldr	r0, [r0]
	bic	r0, r0, #-16777216
	bic	r0, r0, #255
	sub	r0, r0, #256
	clz	r0, r0
	mov	r0, r0, lsr #5
	ldmfd	sp, {fp, sp, pc}
	UNWIND(.fnend)
	.size	IsLTRefFlg, .-IsLTRefFlg
	.align	2
	.global	compare_pic_by_pic_num_desc
	.type	compare_pic_by_pic_num_desc, %function
compare_pic_by_pic_num_desc:
	UNWIND(.fnstart)
	@ args = 0, pretend = 0, frame = 0
	@ frame_needed = 1, uses_anonymous_args = 0
	UNWIND(.movsp ip)
	mov	ip, sp
	stmfd	sp!, {fp, ip, lr, pc}
	UNWIND(.pad #4)
	UNWIND(.save {fp, ip, lr})
	UNWIND(.setfp fp, ip, #-4)
	sub	fp, ip, #4
	ldr	r2, [r0]
	ldr	r3, [r1]
	ldr	r2, [r2, #8]
	ldr	r3, [r3, #8]
	cmp	r2, r3
	blt	.L5
	mvngt	r0, #0
	movle	r0, #0
	ldmfd	sp, {fp, sp, pc}
.L5:
	mov	r0, #1
	ldmfd	sp, {fp, sp, pc}
	UNWIND(.fnend)
	.size	compare_pic_by_pic_num_desc, .-compare_pic_by_pic_num_desc
	.align	2
	.global	compare_pic_by_lt_pic_num_asc
	.type	compare_pic_by_lt_pic_num_asc, %function
compare_pic_by_lt_pic_num_asc:
	UNWIND(.fnstart)
	@ args = 0, pretend = 0, frame = 0
	@ frame_needed = 1, uses_anonymous_args = 0
	UNWIND(.movsp ip)
	mov	ip, sp
	stmfd	sp!, {fp, ip, lr, pc}
	UNWIND(.pad #4)
	UNWIND(.save {fp, ip, lr})
	UNWIND(.setfp fp, ip, #-4)
	sub	fp, ip, #4
	ldr	r2, [r0]
	ldr	r3, [r1]
	ldr	r2, [r2, #4]
	ldr	r3, [r3, #4]
	cmp	r2, r3
	blt	.L9
	movgt	r0, #1
	movle	r0, #0
	ldmfd	sp, {fp, sp, pc}
.L9:
	mvn	r0, #0
	ldmfd	sp, {fp, sp, pc}
	UNWIND(.fnend)
	.size	compare_pic_by_lt_pic_num_asc, .-compare_pic_by_lt_pic_num_asc
	.align	2
	.global	compare_fs_by_frame_num_desc
	.type	compare_fs_by_frame_num_desc, %function
compare_fs_by_frame_num_desc:
	UNWIND(.fnstart)
	@ args = 0, pretend = 0, frame = 0
	@ frame_needed = 1, uses_anonymous_args = 0
	UNWIND(.movsp ip)
	mov	ip, sp
	stmfd	sp!, {fp, ip, lr, pc}
	UNWIND(.pad #4)
	UNWIND(.save {fp, ip, lr})
	UNWIND(.setfp fp, ip, #-4)
	sub	fp, ip, #4
	ldr	r2, [r0]
	ldr	r3, [r1]
	ldr	r2, [r2, #664]
	ldr	r3, [r3, #664]
	cmp	r2, r3
	blt	.L12
	mvngt	r0, #0
	movle	r0, #0
	ldmfd	sp, {fp, sp, pc}
.L12:
	mov	r0, #1
	ldmfd	sp, {fp, sp, pc}
	UNWIND(.fnend)
	.size	compare_fs_by_frame_num_desc, .-compare_fs_by_frame_num_desc
	.align	2
	.global	compare_fs_by_lt_pic_idx_asc
	.type	compare_fs_by_lt_pic_idx_asc, %function
compare_fs_by_lt_pic_idx_asc:
	UNWIND(.fnstart)
	@ args = 0, pretend = 0, frame = 0
	@ frame_needed = 1, uses_anonymous_args = 0
	UNWIND(.movsp ip)
	mov	ip, sp
	stmfd	sp!, {fp, ip, lr, pc}
	UNWIND(.pad #4)
	UNWIND(.save {fp, ip, lr})
	UNWIND(.setfp fp, ip, #-4)
	sub	fp, ip, #4
	ldr	r2, [r0]
	ldr	r3, [r1]
	ldr	r2, [r2, #668]
	ldr	r3, [r3, #668]
	cmp	r2, r3
	bcc	.L15
	movhi	r0, #1
	movls	r0, #0
	ldmfd	sp, {fp, sp, pc}
.L15:
	mvn	r0, #0
	ldmfd	sp, {fp, sp, pc}
	UNWIND(.fnend)
	.size	compare_fs_by_lt_pic_idx_asc, .-compare_fs_by_lt_pic_idx_asc
	.align	2
	.global	compare_pic_by_poc_asc
	.type	compare_pic_by_poc_asc, %function
compare_pic_by_poc_asc:
	UNWIND(.fnstart)
	@ args = 0, pretend = 0, frame = 0
	@ frame_needed = 1, uses_anonymous_args = 0
	UNWIND(.movsp ip)
	mov	ip, sp
	stmfd	sp!, {fp, ip, lr, pc}
	UNWIND(.pad #4)
	UNWIND(.save {fp, ip, lr})
	UNWIND(.setfp fp, ip, #-4)
	sub	fp, ip, #4
	ldr	r2, [r0]
	ldr	r3, [r1]
	ldr	r2, [r2, #12]
	ldr	r3, [r3, #12]
	cmp	r2, r3
	blt	.L18
	movgt	r0, #1
	movle	r0, #0
	ldmfd	sp, {fp, sp, pc}
.L18:
	mvn	r0, #0
	ldmfd	sp, {fp, sp, pc}
	UNWIND(.fnend)
	.size	compare_pic_by_poc_asc, .-compare_pic_by_poc_asc
	.align	2
	.global	compare_pic_by_poc_desc
	.type	compare_pic_by_poc_desc, %function
compare_pic_by_poc_desc:
	UNWIND(.fnstart)
	@ args = 0, pretend = 0, frame = 0
	@ frame_needed = 1, uses_anonymous_args = 0
	UNWIND(.movsp ip)
	mov	ip, sp
	stmfd	sp!, {fp, ip, lr, pc}
	UNWIND(.pad #4)
	UNWIND(.save {fp, ip, lr})
	UNWIND(.setfp fp, ip, #-4)
	sub	fp, ip, #4
	ldr	r2, [r0]
	ldr	r3, [r1]
	ldr	r2, [r2, #12]
	ldr	r3, [r3, #12]
	cmp	r2, r3
	blt	.L21
	mvngt	r0, #0
	movle	r0, #0
	ldmfd	sp, {fp, sp, pc}
.L21:
	mov	r0, #1
	ldmfd	sp, {fp, sp, pc}
	UNWIND(.fnend)
	.size	compare_pic_by_poc_desc, .-compare_pic_by_poc_desc
	.align	2
	.global	compare_fs_by_poc_asc
	.type	compare_fs_by_poc_asc, %function
compare_fs_by_poc_asc:
	UNWIND(.fnstart)
	@ args = 0, pretend = 0, frame = 0
	@ frame_needed = 1, uses_anonymous_args = 0
	UNWIND(.movsp ip)
	mov	ip, sp
	stmfd	sp!, {fp, ip, lr, pc}
	UNWIND(.pad #4)
	UNWIND(.save {fp, ip, lr})
	UNWIND(.setfp fp, ip, #-4)
	sub	fp, ip, #4
	ldr	r2, [r0]
	ldr	r3, [r1]
	ldr	r2, [r2, #672]
	ldr	r3, [r3, #672]
	cmp	r2, r3
	blt	.L24
	movgt	r0, #1
	movle	r0, #0
	ldmfd	sp, {fp, sp, pc}
.L24:
	mvn	r0, #0
	ldmfd	sp, {fp, sp, pc}
	UNWIND(.fnend)
	.size	compare_fs_by_poc_asc, .-compare_fs_by_poc_asc
	.align	2
	.global	compare_fs_by_poc_desc
	.type	compare_fs_by_poc_desc, %function
compare_fs_by_poc_desc:
	UNWIND(.fnstart)
	@ args = 0, pretend = 0, frame = 0
	@ frame_needed = 1, uses_anonymous_args = 0
	UNWIND(.movsp ip)
	mov	ip, sp
	stmfd	sp!, {fp, ip, lr, pc}
	UNWIND(.pad #4)
	UNWIND(.save {fp, ip, lr})
	UNWIND(.setfp fp, ip, #-4)
	sub	fp, ip, #4
	ldr	r2, [r0]
	ldr	r3, [r1]
	ldr	r2, [r2, #672]
	ldr	r3, [r3, #672]
	cmp	r2, r3
	blt	.L27
	mvngt	r0, #0
	movle	r0, #0
	ldmfd	sp, {fp, sp, pc}
.L27:
	mov	r0, #1
	ldmfd	sp, {fp, sp, pc}
	UNWIND(.fnend)
	.size	compare_fs_by_poc_desc, .-compare_fs_by_poc_desc
	.align	2
	.type	SetFrmRepeatCount.part.7, %function
SetFrmRepeatCount.part.7:
	UNWIND(.fnstart)
	@ args = 0, pretend = 0, frame = 0
	@ frame_needed = 1, uses_anonymous_args = 0
	UNWIND(.movsp ip)
	mov	ip, sp
	stmfd	sp!, {fp, ip, lr, pc}
	UNWIND(.pad #4)
	UNWIND(.save {fp, ip, lr})
	UNWIND(.setfp fp, ip, #-4)
	sub	fp, ip, #4
	add	ip, r0, #61440
	add	r0, r0, #24576
	ldr	lr, [ip, #2700]
	ldr	r2, [r0, #2136]
	ldr	r3, [ip, #2696]
	add	r2, r2, lr, lsr #1
	add	r0, r2, #1
	mov	r3, r3, lsr #1
	cmp	r3, r0
	movcc	r3, #0
	strcc	r3, [r1, #16]
	ldmccfd	sp, {fp, sp, pc}
	sub	r3, r3, #1
	rsb	r3, r2, r3
	cmp	r3, #1
	movhi	r3, #2
	movls	r3, #1
	strhi	r3, [r1, #16]
	strls	r3, [r1, #16]
	ldrhi	r3, [ip, #2700]
	ldrls	r3, [ip, #2700]
	addhi	r3, r3, #4
	addls	r3, r3, #2
	str	r3, [ip, #2700]
	ldmfd	sp, {fp, sp, pc}
	UNWIND(.fnend)
	.size	SetFrmRepeatCount.part.7, .-SetFrmRepeatCount.part.7
	.align	2
	.type	DumpList.part.10, %function
DumpList.part.10:
	UNWIND(.fnstart)
	@ args = 0, pretend = 0, frame = 0
	@ frame_needed = 1, uses_anonymous_args = 0
	UNWIND(.movsp ip)
	mov	ip, sp
	stmfd	sp!, {r4, r5, r6, r7, r8, r9, r10, fp, ip, lr, pc}
	UNWIND(.pad #4)
	UNWIND(.save {r4, r5, r6, r7, r8, r9, r10, fp, ip, lr})
	UNWIND(.setfp fp, ip, #-4)
	sub	fp, ip, #4
	UNWIND(.pad #12)
	sub	sp, sp, #12
	add	r9, r0, #26880
	add	r9, r9, #240
	add	r7, r0, #20480
	add	r7, r7, #244
	mov	r8, r0
	mov	r6, #0
	mov	r10, r9
.L33:
	ldr	r3, [r7, #4]!
	cmp	r3, #0
	movne	r5, r10
	movne	r4, #0
	beq	.L36
.L34:
	ldr	ip, [r5, #4]!
	mov	r3, r4
	mov	r2, r6
	ldr	r1, .L64
	mov	r0, #13
	add	r4, r4, #1
	ldr	ip, [ip, #36]
	ldr	lr, [ip, #672]
	str	lr, [sp, #4]
	ldr	ip, [ip, #660]
	str	ip, [sp]
	bl	dprint_vfmw
	ldr	r3, [r7]
	cmp	r4, r3
	bcc	.L34
.L36:
	add	r6, r6, #1
	add	r10, r10, #132
	cmp	r6, #2
	bne	.L33
	add	r5, r8, #20480
	ldr	r3, [r5, #248]
	cmp	r3, #0
	bne	.L60
.L37:
	ldr	r3, [r5, #252]
	cmp	r3, #0
	bne	.L61
	sub	sp, fp, #40
	ldmfd	sp, {r4, r5, r6, r7, r8, r9, r10, fp, sp, pc}
.L61:
	ldr	r1, .L64+4
	mov	r0, #13
	bl	dprint_vfmw
	ldr	r3, [r5, #252]
	cmp	r3, #0
	addne	r8, r8, #27136
	movne	r4, #0
	addne	r8, r8, #116
	bne	.L50
	b	.L51
.L62:
	bcc	.L48
	cmp	r2, #2
	ldr	r1, .L64+8
	mov	r0, #13
	bne	.L46
	ldr	r3, [r3, #36]
	ldr	r2, [r3, #672]
	bl	dprint_vfmw
.L46:
	ldr	r3, [r5, #252]
	add	r4, r4, #1
	cmp	r4, r3
	bcs	.L51
.L50:
	ldr	r3, [r8, #4]!
	ldrb	r2, [r3]	@ zero_extendqisi2
	cmp	r2, #1
	bne	.L62
	ldr	r3, [r3, #36]
	mov	r0, #13
	ldr	r1, .L64+12
	add	r4, r4, #1
	ldr	r2, [r3, #672]
	bl	dprint_vfmw
	ldr	r3, [r5, #252]
	cmp	r4, r3
	bcc	.L50
.L51:
	ldr	r1, .L64+16
	mov	r0, #13
	sub	sp, fp, #40
	ldmfd	sp, {r4, r5, r6, r7, r8, r9, r10, fp, sp, lr}
	b	dprint_vfmw
.L48:
	ldr	r3, [r3, #36]
	mov	r0, #13
	ldr	r1, .L64+20
	ldr	r2, [r3, #672]
	bl	dprint_vfmw
	b	.L46
.L60:
	ldr	r1, .L64+24
	mov	r0, #13
	bl	dprint_vfmw
	ldr	r3, [r5, #248]
	cmp	r3, #0
	movne	r4, #0
	bne	.L38
	b	.L43
.L63:
	bcc	.L41
	cmp	r2, #2
	ldr	r1, .L64+8
	mov	r0, #13
	bne	.L39
	ldr	r3, [r3, #36]
	ldr	r2, [r3, #796]
	bl	dprint_vfmw
.L39:
	ldr	r3, [r5, #248]
	add	r4, r4, #1
	cmp	r4, r3
	bcs	.L43
.L38:
	ldr	r3, [r9, #4]!
	ldrb	r2, [r3]	@ zero_extendqisi2
	cmp	r2, #1
	bne	.L63
	ldr	r3, [r3, #36]
	mov	r0, #13
	ldr	r1, .L64+12
	add	r4, r4, #1
	ldr	r2, [r3, #756]
	bl	dprint_vfmw
	ldr	r3, [r5, #248]
	cmp	r4, r3
	bcc	.L38
.L43:
	ldr	r1, .L64+16
	mov	r0, #13
	bl	dprint_vfmw
	b	.L37
.L41:
	ldr	r3, [r3, #36]
	mov	r0, #13
	ldr	r1, .L64+20
	ldr	r2, [r3, #672]
	bl	dprint_vfmw
	b	.L39
.L65:
	.align	2
.L64:
	.word	.LC0
	.word	.LC6
	.word	.LC5
	.word	.LC4
	.word	.LC2
	.word	.LC3
	.word	.LC1
	UNWIND(.fnend)
	.size	DumpList.part.10, .-DumpList.part.10
	.align	2
	.global	ue_v
	.type	ue_v, %function
ue_v:
	UNWIND(.fnstart)
	@ args = 0, pretend = 0, frame = 0
	@ frame_needed = 1, uses_anonymous_args = 0
	UNWIND(.movsp ip)
	mov	ip, sp
	stmfd	sp!, {r4, r5, r6, r7, r8, r9, fp, ip, lr, pc}
	UNWIND(.pad #4)
	UNWIND(.save {r4, r5, r6, r7, r8, r9, fp, ip, lr})
	UNWIND(.setfp fp, ip, #-4)
	sub	fp, ip, #4
	add	r7, r0, #13504
	mov	r8, r0
	add	r7, r7, #24
	mov	r6, r1
	mov	r1, #32
	mov	r0, r7
	bl	BsShow
	mov	r5, r0
	bl	ZerosMS_32
	cmp	r0, #15
	mov	r4, r0
	bls	.L70
	cmp	r0, #31
	bls	.L71
	add	r3, r8, #61440
	mvn	r5, #0
	mov	r7, #32
	mov	r2, #1
	str	r2, [r3, #2620]
.L68:
	ldr	ip, [r8, #368]
	mov	r2, r6
	mov	r3, r5
	ldr	r1, .L72
	mov	r0, #21
	ldr	r4, [ip, #64]
	add	r4, r4, r7
	str	r4, [ip, #64]
	bl	dprint_vfmw
	mov	r0, r5
	ldmfd	sp, {r4, r5, r6, r7, r8, r9, fp, sp, pc}
.L70:
	mov	r4, r0, asl #1
	mov	r0, r7
	add	r7, r4, #1
	rsb	r4, r4, #31
	mov	r4, r5, lsr r4
	mov	r1, r7
	sub	r5, r4, #1
	bl	BsSkip
	b	.L68
.L71:
	add	r5, r0, #1
	mov	r1, r0
	mov	r0, r7
	bl	BsSkip
	mov	r1, r5
	mov	r0, r7
	bl	BsShow
	mov	r1, r5
	sub	r5, r0, #1
	mov	r0, r7
	bl	BsSkip
	mov	r3, r4, asl #1
	add	r7, r3, #1
	b	.L68
.L73:
	.align	2
.L72:
	.word	.LC7
	UNWIND(.fnend)
	.size	ue_v, .-ue_v
	.align	2
	.global	se_v
	.type	se_v, %function
se_v:
	UNWIND(.fnstart)
	@ args = 0, pretend = 0, frame = 0
	@ frame_needed = 1, uses_anonymous_args = 0
	UNWIND(.movsp ip)
	mov	ip, sp
	stmfd	sp!, {r4, r5, r6, r7, r8, r9, fp, ip, lr, pc}
	UNWIND(.pad #4)
	UNWIND(.save {r4, r5, r6, r7, r8, r9, fp, ip, lr})
	UNWIND(.setfp fp, ip, #-4)
	sub	fp, ip, #4
	add	r6, r0, #13504
	mov	r8, r0
	add	r6, r6, #24
	mov	r7, r1
	mov	r1, #32
	mov	r0, r6
	bl	BsShow
	mov	r4, r0
	bl	ZerosMS_32
	cmp	r0, #15
	mov	r5, r0
	bhi	.L75
	mov	r5, r0, asl #1
	mov	r0, r6
	rsb	r3, r5, #31
	add	r5, r5, #1
	mov	r3, r4, lsr r3
	and	r2, r3, #1
	mov	r1, r5
	rsb	r4, r2, #0
	eor	r4, r4, r3, lsr #1
	add	r4, r4, r2
	bl	BsSkip
.L76:
	ldr	lr, [r8, #368]
	mov	r2, r7
	mov	r3, r4
	ldr	r1, .L79
	mov	r0, #21
	ldr	ip, [lr, #64]
	add	r5, ip, r5
	str	r5, [lr, #64]
	bl	dprint_vfmw
	mov	r0, r4
	ldmfd	sp, {r4, r5, r6, r7, r8, r9, fp, sp, pc}
.L75:
	cmp	r0, #31
	bls	.L78
	add	r3, r8, #61440
	mov	r2, #1
	mvn	r4, #-2147483648
	mov	r5, #32
	str	r2, [r3, #2620]
	b	.L76
.L78:
	mov	r1, r0
	mov	r0, r6
	bl	BsSkip
	mov	r1, r5
	mov	r0, r6
	mov	r5, r5, asl #1
	bl	BsGet
	mov	r1, #1
	add	r5, r5, #1
	mov	r9, r0
	mov	r0, r6
	bl	BsGet
	and	r0, r0, #1
	rsb	r4, r0, #0
	eor	r9, r9, r4
	add	r4, r9, r0
	b	.L76
.L80:
	.align	2
.L79:
	.word	.LC7
	UNWIND(.fnend)
	.size	se_v, .-se_v
	.align	2
	.global	u_v
	.type	u_v, %function
u_v:
	UNWIND(.fnstart)
	@ args = 0, pretend = 0, frame = 0
	@ frame_needed = 1, uses_anonymous_args = 0
	UNWIND(.movsp ip)
	mov	ip, sp
	stmfd	sp!, {r4, r5, r6, r7, fp, ip, lr, pc}
	UNWIND(.pad #4)
	UNWIND(.save {r4, r5, r6, r7, fp, ip, lr})
	UNWIND(.setfp fp, ip, #-4)
	sub	fp, ip, #4
	mov	r5, r0
	add	r0, r0, #13504
	add	r0, r0, #24
	mov	r6, r1
	mov	r7, r2
	bl	BsGet
	ldr	lr, [r5, #368]
	mov	r2, r7
	ldr	r1, .L82
	ldr	ip, [lr, #64]
	add	ip, ip, r6
	str	ip, [lr, #64]
	mov	r4, r0
	mov	r0, #21
	mov	r3, r4
	bl	dprint_vfmw
	mov	r0, r4
	ldmfd	sp, {r4, r5, r6, r7, fp, sp, pc}
.L83:
	.align	2
.L82:
	.word	.LC7
	UNWIND(.fnend)
	.size	u_v, .-u_v
	.align	2
	.global	u_1
	.type	u_1, %function
u_1:
	UNWIND(.fnstart)
	@ args = 0, pretend = 0, frame = 0
	@ frame_needed = 1, uses_anonymous_args = 0
	UNWIND(.movsp ip)
	mov	ip, sp
	stmfd	sp!, {r4, r5, r6, r7, fp, ip, lr, pc}
	UNWIND(.pad #4)
	UNWIND(.save {r4, r5, r6, r7, fp, ip, lr})
	UNWIND(.setfp fp, ip, #-4)
	sub	fp, ip, #4
	mov	r5, r0
	add	r0, r0, #13504
	mov	r6, r1
	add	r0, r0, #24
	mov	r1, #1
	bl	BsGet
	ldr	lr, [r5, #368]
	mov	r2, r6
	ldr	r1, .L85
	ldr	ip, [lr, #64]
	add	ip, ip, #1
	str	ip, [lr, #64]
	mov	r4, r0
	mov	r3, r0
	mov	r0, #21
	bl	dprint_vfmw
	mov	r0, r4
	ldmfd	sp, {r4, r5, r6, r7, fp, sp, pc}
.L86:
	.align	2
.L85:
	.word	.LC7
	UNWIND(.fnend)
	.size	u_1, .-u_1
	.align	2
	.global	FrameStoreRefFlg
	.type	FrameStoreRefFlg, %function
FrameStoreRefFlg:
	UNWIND(.fnstart)
	@ args = 0, pretend = 0, frame = 0
	@ frame_needed = 1, uses_anonymous_args = 0
	UNWIND(.movsp ip)
	mov	ip, sp
	stmfd	sp!, {fp, ip, lr, pc}
	UNWIND(.pad #4)
	UNWIND(.save {fp, ip, lr})
	UNWIND(.setfp fp, ip, #-4)
	sub	fp, ip, #4
	ldrb	r0, [r0, #2]	@ zero_extendqisi2
	adds	r0, r0, #0
	movne	r0, #1
	ldmfd	sp, {fp, sp, pc}
	UNWIND(.fnend)
	.size	FrameStoreRefFlg, .-FrameStoreRefFlg
	.align	2
	.global	ReleaseNAL
	.type	ReleaseNAL, %function
ReleaseNAL:
	UNWIND(.fnstart)
	@ args = 0, pretend = 0, frame = 0
	@ frame_needed = 1, uses_anonymous_args = 0
	UNWIND(.movsp ip)
	mov	ip, sp
	stmfd	sp!, {r4, r5, r6, r7, fp, ip, lr, pc}
	UNWIND(.pad #4)
	UNWIND(.save {r4, r5, r6, r7, fp, ip, lr})
	UNWIND(.setfp fp, ip, #-4)
	sub	fp, ip, #4
	subs	r5, r1, #0
	mov	r6, r0
	beq	.L96
	add	r7, r5, #56
	mov	r4, r5
	mov	r3, #0
	strb	r3, [r5, #1]
	strb	r3, [r5, #4]
.L91:
	ldr	r3, [r4, #8]
	mov	r0, r6
	cmp	r3, #0
	beq	.L90
	ldr	r1, [r4, #32]
	bl	SM_ReleaseStreamSeg
	ldr	r3, [r4, #12]
	ldr	r2, [r4, #8]
	mov	r0, #7
	ldr	r1, .L97
	bl	dprint_vfmw
	mov	r3, #0
	str	r3, [r4, #8]
	str	r3, [r4, #24]
	str	r3, [r4, #12]
.L90:
	add	r4, r4, #28
	cmp	r4, r7
	bne	.L91
	mov	r3, #0
	strb	r3, [r5]
	str	r3, [r5, #68]
	ldmfd	sp, {r4, r5, r6, r7, fp, sp, pc}
.L96:
	mov	r0, r5
	movw	r3, #422
	ldr	r2, .L97+4
	ldr	r1, .L97+8
	sub	sp, fp, #28
	ldmfd	sp, {r4, r5, r6, r7, fp, sp, lr}
	b	dprint_vfmw
.L98:
	.align	2
.L97:
	.word	.LC10
	.word	.LC8
	.word	.LC9
	UNWIND(.fnend)
	.size	ReleaseNAL, .-ReleaseNAL
	.align	2
	.global	GetMinPOC
	.type	GetMinPOC, %function
GetMinPOC:
	UNWIND(.fnstart)
	@ args = 0, pretend = 0, frame = 0
	@ frame_needed = 1, uses_anonymous_args = 0
	UNWIND(.movsp ip)
	mov	ip, sp
	stmfd	sp!, {r4, r5, fp, ip, lr, pc}
	UNWIND(.pad #4)
	UNWIND(.save {r4, r5, fp, ip, lr})
	UNWIND(.setfp fp, ip, #-4)
	sub	fp, ip, #4
	add	r5, r0, #24576
	mov	ip, #0
	mvn	r3, #-2147483648
	str	ip, [r2]
	str	r3, [r1]
	ldr	r3, [r5, #2140]
	ldr	ip, [r5, #2136]
	cmp	r3, ip
	strhi	ip, [r5, #2140]
	movhi	r3, ip
	cmp	r3, #0
	ldmeqfd	sp, {r4, r5, fp, sp, pc}
	add	r0, r0, #26368
	mov	r3, #0
	add	r0, r0, #148
.L103:
	ldr	ip, [r0, #4]!
	ldr	r4, [r1]
	ldr	lr, [ip, #672]
	cmp	r4, lr
	ble	.L102
	ldrb	ip, [ip, #4]	@ zero_extendqisi2
	cmp	ip, #0
	strne	lr, [r1]
	strne	r3, [r2]
.L102:
	ldr	ip, [r5, #2140]
	add	r3, r3, #1
	cmp	ip, r3
	bhi	.L103
	ldmfd	sp, {r4, r5, fp, sp, pc}
	UNWIND(.fnend)
	.size	GetMinPOC, .-GetMinPOC
	.align	2
	.global	RemoveFrameStoreOutDPB
	.type	RemoveFrameStoreOutDPB, %function
RemoveFrameStoreOutDPB:
	UNWIND(.fnstart)
	@ args = 0, pretend = 0, frame = 0
	@ frame_needed = 1, uses_anonymous_args = 0
	UNWIND(.movsp ip)
	mov	ip, sp
	stmfd	sp!, {r4, r5, r6, r7, r8, r9, fp, ip, lr, pc}
	UNWIND(.pad #4)
	UNWIND(.save {r4, r5, r6, r7, r8, r9, fp, ip, lr})
	UNWIND(.setfp fp, ip, #-4)
	sub	fp, ip, #4
	add	r7, r0, r1, lsl #2
	mov	r4, r1
	add	r7, r7, #24576
	mov	r5, r0
	ldr	r2, [r7, #1944]
	cmp	r2, #0
	beq	.L129
	ldr	r3, [r2, #696]
	add	r6, r0, #24576
	mov	r1, #0
	add	r8, r0, #61440
	add	r3, r3, #6656
	add	r3, r3, #26
	add	r3, r0, r3, lsl #2
	str	r1, [r3, #4]
	ldr	r3, [r6, #2416]
	cmp	r3, r1
	subne	r3, r3, #1
	str	r3, [r6, #2416]
	ldr	r1, [r2, #656]
	ldr	r0, [r8, #2680]
	bl	FSP_GetLogicFs
	cmp	r0, #0
	beq	.L112
	ldrsb	r3, [r0, #1]
	cmp	r3, #3
	beq	.L113
	ldr	r3, [r7, #1944]
	mov	r2, #0
	ldr	r0, [r8, #2680]
	ldr	r1, [r3, #656]
	bl	FSP_SetDisplay
.L113:
	ldr	r3, [r7, #1944]
	mov	r2, #0
	ldr	r0, [r8, #2680]
	ldr	r1, [r3, #656]
	bl	FSP_SetRef
.L112:
	ldr	r1, [r7, #1944]
	mov	r3, #0
	mvn	r2, #0
	strb	r3, [r1, #1]
	ldr	r1, [r7, #1944]
	strb	r3, [r1, #4]
	ldr	r1, [r7, #1944]
	strb	r3, [r1, #2]
	ldr	r3, [r7, #1944]
	str	r2, [r3, #656]
	ldr	r1, [r6, #2140]
	add	r1, r1, r2
	cmp	r4, r1
	addcc	r2, r4, #6592
	addcc	r2, r2, #38
	addcc	r2, r5, r2, lsl #2
	bcs	.L117
.L116:
	add	r4, r4, #1
	ldr	r3, [r2, #4]!
	cmp	r4, r1
	str	r3, [r2, #-4]
	bne	.L116
.L117:
	add	r3, r1, #6592
	mov	r2, #0
	add	r3, r3, #38
	str	r2, [r5, r3, asl #2]
	str	r1, [r6, #2140]
	ldmfd	sp, {r4, r5, r6, r7, r8, r9, fp, sp, pc}
.L129:
	mov	r3, r1
	ldr	r2, .L130
	ldr	r1, .L130+4
	mov	r0, #1
	sub	sp, fp, #36
	ldmfd	sp, {r4, r5, r6, r7, r8, r9, fp, sp, lr}
	b	dprint_vfmw
.L131:
	.align	2
.L130:
	.word	.LANCHOR0
	.word	.LC11
	UNWIND(.fnend)
	.size	RemoveFrameStoreOutDPB, .-RemoveFrameStoreOutDPB
	.align	2
	.global	RemoveUnUsedFrameStore
	.type	RemoveUnUsedFrameStore, %function
RemoveUnUsedFrameStore:
	UNWIND(.fnstart)
	@ args = 0, pretend = 0, frame = 0
	@ frame_needed = 1, uses_anonymous_args = 0
	UNWIND(.movsp ip)
	mov	ip, sp
	stmfd	sp!, {r3, r4, r5, r6, r7, r8, r9, r10, fp, ip, lr, pc}
	UNWIND(.pad #4)
	UNWIND(.save {r3, r4, r5, r6, r7, r8, r9, r10, fp, ip, lr})
	UNWIND(.setfp fp, ip, #-4)
	sub	fp, ip, #4
	subs	r6, r0, #0
	beq	.L142
	add	r3, r6, #24576
	ldr	r7, [r3, #2140]
	cmp	r7, #0
	addne	r8, r6, #61440
	movne	r5, #0
	movne	r9, r5
	movne	r10, r5
	bne	.L140
	b	.L141
.L151:
	ldrb	r1, [r2, #4]	@ zero_extendqisi2
	cmp	r1, #0
	bne	.L138
	ldr	r0, [r2, #824]
	cmp	r0, #1
	beq	.L138
	strb	r1, [r2, #1]
	mov	r0, r6
	mov	r1, r5
	add	r9, r9, #1
	bl	RemoveFrameStoreOutDPB
	cmp	r9, r7
	beq	.L141
.L140:
	add	r4, r6, r5, lsl #2
	ldr	r0, [r8, #2680]
	add	r4, r4, #24576
	ldr	r2, [r4, #1944]
	ldr	r1, [r2, #656]
	bl	FSP_GetLogicFs
	cmp	r0, #0
	beq	.L135
	ldrsh	r2, [r0]
	cmp	r2, #0
	bne	.L136
	ldr	r1, [r4, #1944]
	ldrb	r2, [r1, #2]	@ zero_extendqisi2
	cmp	r2, #0
	bne	.L137
	ldrsb	r0, [r0]
	cmp	r0, #0
	bne	.L150
.L137:
	mvn	r3, #0
	str	r3, [r1, #656]
	ldr	r2, [r4, #1944]
	strb	r10, [r2, #2]
.L135:
	ldr	r1, [r4, #1944]
	ldr	r2, [r1, #824]
	sub	r2, r2, #1
	clz	r2, r2
	mov	r2, r2, lsr #5
	strb	r2, [r1, #4]
.L136:
	ldr	r2, [r4, #1944]
	ldrb	r1, [r2, #2]	@ zero_extendqisi2
	cmp	r1, #0
	beq	.L151
.L138:
	add	r9, r9, #1
	add	r5, r5, #1
	cmp	r9, r7
	bne	.L140
.L141:
	mov	r0, #0
	ldmfd	sp, {r3, r4, r5, r6, r7, r8, r9, r10, fp, sp, pc}
.L150:
	ldr	r1, [r1, #656]
	ldr	r0, [r8, #2680]
	bl	FSP_SetRef
	ldr	r1, [r4, #1944]
	b	.L137
.L142:
	mvn	r0, #0
	ldmfd	sp, {r3, r4, r5, r6, r7, r8, r9, r10, fp, sp, pc}
	UNWIND(.fnend)
	.size	RemoveUnUsedFrameStore, .-RemoveUnUsedFrameStore
	.align	2
	.global	UnMarkFrameStoreRef
	.type	UnMarkFrameStoreRef, %function
UnMarkFrameStoreRef:
	UNWIND(.fnstart)
	@ args = 0, pretend = 0, frame = 0
	@ frame_needed = 1, uses_anonymous_args = 0
	UNWIND(.movsp ip)
	mov	ip, sp
	stmfd	sp!, {fp, ip, lr, pc}
	UNWIND(.pad #4)
	UNWIND(.save {fp, ip, lr})
	UNWIND(.setfp fp, ip, #-4)
	sub	fp, ip, #4
	ldrb	r3, [r1, #1]	@ zero_extendqisi2
	tst	r3, #1
	beq	.L153
	ldrb	r2, [r1, #2]	@ zero_extendqisi2
	mov	ip, #0
	strb	ip, [r1, #745]
	and	r2, r2, #2
	strb	ip, [r1, #746]
	strb	r2, [r1, #2]
.L153:
	tst	r3, #2
	beq	.L154
	ldrb	r2, [r1, #2]	@ zero_extendqisi2
	mov	ip, #0
	strb	ip, [r1, #785]
	and	r2, r2, #1
	strb	ip, [r1, #786]
	strb	r2, [r1, #2]
.L154:
	cmp	r3, #3
	add	r0, r0, #61440
	moveq	r3, #0
	streqb	r3, [r1, #706]
	streqb	r3, [r1, #705]
	mov	r3, #0
	mov	r2, r3
	strb	r3, [r1, #2]
	ldr	r1, [r1, #656]
	ldr	r0, [r0, #2680]
	sub	sp, fp, #12
	ldmia	sp, {fp, sp, lr}
	b	FSP_SetRef
	UNWIND(.fnend)
	.size	UnMarkFrameStoreRef, .-UnMarkFrameStoreRef
	.align	2
	.global	InitOldSlice
	.type	InitOldSlice, %function
InitOldSlice:
	UNWIND(.fnstart)
	@ args = 0, pretend = 0, frame = 0
	@ frame_needed = 1, uses_anonymous_args = 0
	UNWIND(.movsp ip)
	mov	ip, sp
	stmfd	sp!, {fp, ip, lr, pc}
	UNWIND(.pad #4)
	UNWIND(.save {fp, ip, lr})
	UNWIND(.setfp fp, ip, #-4)
	sub	fp, ip, #4
	add	r2, r0, #12288
	add	r0, r0, #20480
	movw	r3, #23352
	ldr	r1, [r2, #1292]
	movt	r3, 1
	mov	r2, #2
	str	r3, [r0, #1864]
	strb	r2, [r0, #1849]
	mov	r3, #32
	mov	r2, #7
	strb	r3, [r0, #1850]
	str	r2, [r0, #1860]
	mvn	r3, #0
	mov	r2, #3
	str	r3, [r0, #1876]
	str	r2, [r0, #1872]
	mov	r3, #0
	mov	r2, #262144
	str	r1, [r0, #1856]
	str	r2, [r0, #1888]
	strb	r3, [r0, #1848]
	str	r3, [r0, #1880]
	str	r3, [r0, #1884]
	ldmfd	sp, {fp, sp, pc}
	UNWIND(.fnend)
	.size	InitOldSlice, .-InitOldSlice
	.align	2
	.global	ClearAllSlice
	.type	ClearAllSlice, %function
ClearAllSlice:
	UNWIND(.fnstart)
	@ args = 0, pretend = 0, frame = 0
	@ frame_needed = 1, uses_anonymous_args = 0
	UNWIND(.movsp ip)
	mov	ip, sp
	stmfd	sp!, {r4, r5, r6, r7, fp, ip, lr, pc}
	UNWIND(.pad #4)
	UNWIND(.save {r4, r5, r6, r7, fp, ip, lr})
	UNWIND(.setfp fp, ip, #-4)
	sub	fp, ip, #4
	add	r4, r0, #61952
	add	r5, r0, #62720
	add	r4, r4, #236
	add	r5, r5, #12
	add	r6, r0, #61440
	mov	r7, #0
.L165:
	ldr	r1, [r4, #4]!
	cmp	r1, #0
	beq	.L164
	ldr	r0, [r6, #2680]
	bl	ReleaseNAL
	str	r7, [r4]
.L164:
	cmp	r4, r5
	bne	.L165
	mov	r0, #0
	str	r0, [r6, #2604]
	str	r0, [r6, #2664]
	ldmfd	sp, {r4, r5, r6, r7, fp, sp, pc}
	UNWIND(.fnend)
	.size	ClearAllSlice, .-ClearAllSlice
	.align	2
	.global	H264_IsEosNal
	.type	H264_IsEosNal, %function
H264_IsEosNal:
	UNWIND(.fnstart)
	@ args = 0, pretend = 0, frame = 0
	@ frame_needed = 1, uses_anonymous_args = 0
	UNWIND(.movsp ip)
	mov	ip, sp
	stmfd	sp!, {r4, r5, fp, ip, lr, pc}
	UNWIND(.pad #4)
	UNWIND(.save {r4, r5, fp, ip, lr})
	UNWIND(.setfp fp, ip, #-4)
	sub	fp, ip, #4
	add	r4, r0, #13504
	mov	r1, #32
	add	r4, r4, #24
	mov	r0, r4
	bl	BsGet
	mov	r1, #32
	mov	r5, r0
	mov	r0, r4
	bl	BsGet
	movw	r2, #20036
	movw	r3, #20553
	movt	r2, 17221
	movt	r3, 18515
	cmp	r0, r2
	cmpeq	r5, r3
	moveq	r0, #1
	movne	r0, #0
	ldmfd	sp, {r4, r5, fp, sp, pc}
	UNWIND(.fnend)
	.size	H264_IsEosNal, .-H264_IsEosNal
	.align	2
	.global	ClearCurrNal
	.type	ClearCurrNal, %function
ClearCurrNal:
	UNWIND(.fnstart)
	@ args = 0, pretend = 0, frame = 0
	@ frame_needed = 1, uses_anonymous_args = 0
	UNWIND(.movsp ip)
	mov	ip, sp
	stmfd	sp!, {r4, r5, fp, ip, lr, pc}
	UNWIND(.pad #4)
	UNWIND(.save {r4, r5, fp, ip, lr})
	UNWIND(.setfp fp, ip, #-4)
	sub	fp, ip, #4
	ldr	r1, [r0, #368]
	mov	r4, r0
	cmp	r1, #0
	beq	.L172
	add	r3, r0, #61440
	ldr	r0, [r3, #2680]
	bl	ReleaseNAL
	mov	r3, #0
	str	r3, [r4, #368]
.L172:
	mov	r0, #0
	ldmfd	sp, {r4, r5, fp, sp, pc}
	UNWIND(.fnend)
	.size	ClearCurrNal, .-ClearCurrNal
	.align	2
	.global	ClearAllNal
	.type	ClearAllNal, %function
ClearAllNal:
	UNWIND(.fnstart)
	@ args = 0, pretend = 0, frame = 0
	@ frame_needed = 1, uses_anonymous_args = 0
	UNWIND(.movsp ip)
	mov	ip, sp
	stmfd	sp!, {r4, r5, r6, r7, fp, ip, lr, pc}
	UNWIND(.pad #4)
	UNWIND(.save {r4, r5, r6, r7, fp, ip, lr})
	UNWIND(.setfp fp, ip, #-4)
	sub	fp, ip, #4
	add	r5, r0, #13504
	add	r4, r0, #376
	add	r5, r5, #24
	add	r6, r0, #61440
	b	.L178
.L177:
	add	r4, r4, #96
	cmp	r4, r5
	beq	.L180
.L178:
	ldrb	r3, [r4, #1]	@ zero_extendqisi2
	cmp	r3, #1
	bne	.L177
	mov	r1, r4
	ldr	r0, [r6, #2680]
	add	r4, r4, #96
	bl	ReleaseNAL
	cmp	r4, r5
	bne	.L178
.L180:
	mov	r0, #0
	ldmfd	sp, {r4, r5, r6, r7, fp, sp, pc}
	UNWIND(.fnend)
	.size	ClearAllNal, .-ClearAllNal
	.align	2
	.global	ClearCurrSlice
	.type	ClearCurrSlice, %function
ClearCurrSlice:
	UNWIND(.fnstart)
	@ args = 0, pretend = 0, frame = 0
	@ frame_needed = 1, uses_anonymous_args = 0
	UNWIND(.movsp ip)
	mov	ip, sp
	stmfd	sp!, {r4, r5, fp, ip, lr, pc}
	UNWIND(.pad #4)
	UNWIND(.save {r4, r5, fp, ip, lr})
	UNWIND(.setfp fp, ip, #-4)
	sub	fp, ip, #4
	ldr	r1, .L186
	mov	r5, r0
	mov	r0, #1
	add	r4, r5, #61440
	bl	dprint_vfmw
	ldr	r1, [r5, #368]
	cmp	r1, #0
	beq	.L182
	ldr	r0, [r4, #2680]
	bl	ReleaseNAL
	mov	r3, #0
	str	r3, [r5, #368]
.L182:
	ldr	r3, [r4, #2636]
	mov	r0, #0
	add	r3, r3, #1
	str	r3, [r4, #2636]
	ldmfd	sp, {r4, r5, fp, sp, pc}
.L187:
	.align	2
.L186:
	.word	.LC12
	UNWIND(.fnend)
	.size	ClearCurrSlice, .-ClearCurrSlice
	.align	2
	.global	H264_ClearCurrPic
	.type	H264_ClearCurrPic, %function
H264_ClearCurrPic:
	UNWIND(.fnstart)
	@ args = 0, pretend = 0, frame = 0
	@ frame_needed = 1, uses_anonymous_args = 0
	UNWIND(.movsp ip)
	mov	ip, sp
	stmfd	sp!, {r4, r5, fp, ip, lr, pc}
	UNWIND(.pad #4)
	UNWIND(.save {r4, r5, fp, ip, lr})
	UNWIND(.setfp fp, ip, #-4)
	sub	fp, ip, #4
	subs	r4, r0, #0
	beq	.L191
	bl	ClearAllSlice
	add	r1, r4, #12288
	add	r3, r4, #20480
	mov	r2, #0
	ldr	lr, [r1, #1292]
	movw	r1, #23352
	movt	r1, 1
	mov	ip, #2
	str	r1, [r3, #1864]
	mov	r0, r2
	mov	r1, #7
	strb	ip, [r3, #1849]
	str	r1, [r3, #1860]
	mov	ip, #32
	mov	r1, #3
	strb	ip, [r3, #1850]
	str	r1, [r3, #1872]
	mvn	ip, #0
	mov	r1, #262144
	str	lr, [r3, #1856]
	str	ip, [r3, #1876]
	str	r1, [r3, #1888]
	strb	r2, [r3, #1848]
	str	r2, [r3, #1880]
	str	r2, [r3, #1884]
	ldmfd	sp, {r4, r5, fp, sp, pc}
.L191:
	movw	r3, #737
	ldr	r2, .L192
	ldr	r1, .L192+4
	bl	dprint_vfmw
	mvn	r0, #0
	ldmfd	sp, {r4, r5, fp, sp, pc}
.L193:
	.align	2
.L192:
	.word	.LC8
	.word	.LC9
	UNWIND(.fnend)
	.size	H264_ClearCurrPic, .-H264_ClearCurrPic
	.align	2
	.global	GetMinPOCInDPB
	.type	GetMinPOCInDPB, %function
GetMinPOCInDPB:
	UNWIND(.fnstart)
	@ args = 0, pretend = 0, frame = 0
	@ frame_needed = 1, uses_anonymous_args = 0
	UNWIND(.movsp ip)
	mov	ip, sp
	stmfd	sp!, {r4, fp, ip, lr, pc}
	UNWIND(.pad #4)
	UNWIND(.save {r4, fp, ip, lr})
	UNWIND(.setfp fp, ip, #-4)
	sub	fp, ip, #4
	add	r4, r0, #24576
	mov	ip, #0
	mvn	r3, #-2147483648
	str	ip, [r2]
	str	r3, [r1]
	ldr	r3, [r4, #2140]
	ldr	ip, [r4, #2136]
	cmp	r3, ip
	strhi	ip, [r4, #2140]
	movhi	r3, ip
	cmp	r3, #0
	ldmeqfd	sp, {r4, fp, sp, pc}
	add	r0, r0, #26368
	mov	r3, #0
	add	r0, r0, #148
.L198:
	ldr	ip, [r0, #4]!
	ldr	lr, [r1]
	ldr	ip, [ip, #672]
	cmp	lr, ip
	strgt	ip, [r1]
	strgt	r3, [r2]
	add	r3, r3, #1
	ldr	ip, [r4, #2140]
	cmp	ip, r3
	bhi	.L198
	ldmfd	sp, {r4, fp, sp, pc}
	UNWIND(.fnend)
	.size	GetMinPOCInDPB, .-GetMinPOCInDPB
	.align	2
	.global	GetMaxPOC
	.type	GetMaxPOC, %function
GetMaxPOC:
	UNWIND(.fnstart)
	@ args = 0, pretend = 0, frame = 0
	@ frame_needed = 1, uses_anonymous_args = 0
	UNWIND(.movsp ip)
	mov	ip, sp
	stmfd	sp!, {r4, r5, fp, ip, lr, pc}
	UNWIND(.pad #4)
	UNWIND(.save {r4, r5, fp, ip, lr})
	UNWIND(.setfp fp, ip, #-4)
	sub	fp, ip, #4
	add	r5, r0, #24576
	mov	r3, #0
	str	r3, [r2]
	str	r3, [r1]
	ldr	r3, [r5, #2140]
	ldr	ip, [r5, #2136]
	cmp	r3, ip
	strhi	ip, [r5, #2140]
	movhi	r3, ip
	cmp	r3, #0
	ldmeqfd	sp, {r4, r5, fp, sp, pc}
	add	r0, r0, #26368
	mov	r3, #0
	add	r0, r0, #148
.L205:
	ldr	ip, [r0, #4]!
	ldr	r4, [r1]
	ldr	lr, [ip, #672]
	cmp	r4, lr
	bge	.L204
	ldrb	ip, [ip, #4]	@ zero_extendqisi2
	cmp	ip, #0
	strne	lr, [r1]
	strne	r3, [r2]
.L204:
	ldr	ip, [r5, #2140]
	add	r3, r3, #1
	cmp	ip, r3
	bhi	.L205
	ldmfd	sp, {r4, r5, fp, sp, pc}
	UNWIND(.fnend)
	.size	GetMaxPOC, .-GetMaxPOC
	.align	2
	.global	ShortTermRefFlg
	.type	ShortTermRefFlg, %function
ShortTermRefFlg:
	UNWIND(.fnstart)
	@ args = 0, pretend = 0, frame = 0
	@ frame_needed = 1, uses_anonymous_args = 0
	UNWIND(.movsp ip)
	mov	ip, sp
	stmfd	sp!, {fp, ip, lr, pc}
	UNWIND(.pad #4)
	UNWIND(.save {fp, ip, lr})
	UNWIND(.setfp fp, ip, #-4)
	sub	fp, ip, #4
	ldrb	r3, [r0, #2]	@ zero_extendqisi2
	cmp	r3, #3
	beq	.L226
	tst	r3, #1
	bne	.L227
.L215:
	and	r3, r3, #2
	ands	r3, r3, #255
	beq	.L219
.L216:
	ldr	r0, [r0, #784]
	bic	r0, r0, #-16777216
	bic	r0, r0, #255
	sub	r0, r0, #65536
	clz	r0, r0
	mov	r0, r0, lsr #5
	ldmfd	sp, {fp, sp, pc}
.L219:
	mov	r0, r3
	ldmfd	sp, {fp, sp, pc}
.L227:
	ldr	r2, [r0, #744]
	bic	r2, r2, #-16777216
	bic	r2, r2, #255
	cmp	r2, #65536
	bne	.L215
.L220:
	mov	r0, #1
	ldmfd	sp, {fp, sp, pc}
.L226:
	ldr	r3, [r0, #704]
	bic	r3, r3, #-16777216
	bic	r3, r3, #255
	cmp	r3, #65536
	beq	.L220
	ldr	r3, [r0, #744]
	bic	r3, r3, #-16777216
	bic	r3, r3, #255
	cmp	r3, #65536
	bne	.L216
	b	.L220
	UNWIND(.fnend)
	.size	ShortTermRefFlg, .-ShortTermRefFlg
	.align	2
	.global	LongTermRefFlg
	.type	LongTermRefFlg, %function
LongTermRefFlg:
	UNWIND(.fnstart)
	@ args = 0, pretend = 0, frame = 0
	@ frame_needed = 1, uses_anonymous_args = 0
	UNWIND(.movsp ip)
	mov	ip, sp
	stmfd	sp!, {fp, ip, lr, pc}
	UNWIND(.pad #4)
	UNWIND(.save {fp, ip, lr})
	UNWIND(.setfp fp, ip, #-4)
	sub	fp, ip, #4
	ldrb	r3, [r0, #2]	@ zero_extendqisi2
	cmp	r3, #3
	beq	.L243
	tst	r3, #1
	bne	.L244
.L232:
	and	r3, r3, #2
	ands	r3, r3, #255
	beq	.L236
.L233:
	ldr	r0, [r0, #784]
	bic	r0, r0, #-16777216
	bic	r0, r0, #255
	sub	r0, r0, #256
	clz	r0, r0
	mov	r0, r0, lsr #5
	ldmfd	sp, {fp, sp, pc}
.L236:
	mov	r0, r3
	ldmfd	sp, {fp, sp, pc}
.L244:
	ldr	r2, [r0, #744]
	bic	r2, r2, #-16777216
	bic	r2, r2, #255
	cmp	r2, #256
	bne	.L232
.L237:
	mov	r0, #1
	ldmfd	sp, {fp, sp, pc}
.L243:
	ldr	r3, [r0, #704]
	bic	r3, r3, #-16777216
	bic	r3, r3, #255
	cmp	r3, #256
	beq	.L237
	ldr	r3, [r0, #744]
	bic	r3, r3, #-16777216
	bic	r3, r3, #255
	cmp	r3, #256
	bne	.L233
	b	.L237
	UNWIND(.fnend)
	.size	LongTermRefFlg, .-LongTermRefFlg
	.align	2
	.global	UpdateLTReflist
	.type	UpdateLTReflist, %function
UpdateLTReflist:
	UNWIND(.fnstart)
	@ args = 0, pretend = 0, frame = 0
	@ frame_needed = 1, uses_anonymous_args = 0
	UNWIND(.movsp ip)
	mov	ip, sp
	stmfd	sp!, {r3, r4, r5, r6, r7, r8, r9, r10, fp, ip, lr, pc}
	UNWIND(.pad #4)
	UNWIND(.save {r3, r4, r5, r6, r7, r8, r9, r10, fp, ip, lr})
	UNWIND(.setfp fp, ip, #-4)
	sub	fp, ip, #4
	add	r9, r0, #24576
	mov	r6, r0
	ldr	r8, [r9, #2140]
	cmp	r8, #0
	beq	.L252
	add	r10, r0, #26368
	mov	r4, #0
	add	r10, r10, #148
	mov	r5, r4
.L248:
	ldr	r7, [r10, #4]!
	add	r5, r5, #1
	mov	r0, r7
	bl	LongTermRefFlg
	add	r3, r4, #6656
	add	r3, r3, #6
	cmp	r0, #0
	strne	r7, [r6, r3, asl #2]
	addne	r4, r4, #1
	cmp	r5, r8
	bne	.L248
.L246:
	ldr	r3, [r9, #2136]
	str	r4, [r9, #2148]
	cmp	r3, r4
	ldmlsfd	sp, {r3, r4, r5, r6, r7, r8, r9, r10, fp, sp, pc}
	add	r0, r4, #6656
	mov	r2, #0
	add	r0, r0, #5
	add	r0, r6, r0, lsl #2
.L250:
	add	r4, r4, #1
	str	r2, [r0, #4]!
	cmp	r4, r3
	bne	.L250
	ldmfd	sp, {r3, r4, r5, r6, r7, r8, r9, r10, fp, sp, pc}
.L252:
	mov	r4, r8
	b	.L246
	UNWIND(.fnend)
	.size	UpdateLTReflist, .-UpdateLTReflist
	.align	2
	.global	UpdateReflist
	.type	UpdateReflist, %function
UpdateReflist:
	UNWIND(.fnstart)
	@ args = 0, pretend = 0, frame = 0
	@ frame_needed = 1, uses_anonymous_args = 0
	UNWIND(.movsp ip)
	mov	ip, sp
	stmfd	sp!, {r3, r4, r5, r6, r7, r8, r9, r10, fp, ip, lr, pc}
	UNWIND(.pad #4)
	UNWIND(.save {r3, r4, r5, r6, r7, r8, r9, r10, fp, ip, lr})
	UNWIND(.setfp fp, ip, #-4)
	sub	fp, ip, #4
	add	r9, r0, #24576
	mov	r6, r0
	ldr	r8, [r9, #2140]
	cmp	r8, #0
	beq	.L265
	add	r10, r0, #26368
	mov	r4, #0
	add	r10, r10, #148
	mov	r5, r4
.L261:
	ldr	r7, [r10, #4]!
	add	r5, r5, #1
	mov	r0, r7
	bl	ShortTermRefFlg
	add	r3, r4, #6592
	add	r3, r3, #54
	cmp	r0, #0
	strne	r7, [r6, r3, asl #2]
	addne	r4, r4, #1
	cmp	r5, r8
	bne	.L261
.L259:
	ldr	r3, [r9, #2136]
	str	r4, [r9, #2144]
	cmp	r3, r4
	ldmlsfd	sp, {r3, r4, r5, r6, r7, r8, r9, r10, fp, sp, pc}
	add	r0, r4, #6592
	mov	r2, #0
	add	r0, r0, #53
	add	r0, r6, r0, lsl #2
.L263:
	add	r4, r4, #1
	str	r2, [r0, #4]!
	cmp	r4, r3
	bne	.L263
	ldmfd	sp, {r3, r4, r5, r6, r7, r8, r9, r10, fp, sp, pc}
.L265:
	mov	r4, r8
	b	.L259
	UNWIND(.fnend)
	.size	UpdateReflist, .-UpdateReflist
	.align	2
	.type	SlidingWinMark.part.8, %function
SlidingWinMark.part.8:
	UNWIND(.fnstart)
	@ args = 0, pretend = 0, frame = 0
	@ frame_needed = 1, uses_anonymous_args = 0
	UNWIND(.movsp ip)
	mov	ip, sp
	stmfd	sp!, {r4, r5, r6, r7, r8, r9, fp, ip, lr, pc}
	UNWIND(.pad #4)
	UNWIND(.save {r4, r5, r6, r7, r8, r9, fp, ip, lr})
	UNWIND(.setfp fp, ip, #-4)
	sub	fp, ip, #4
	add	r3, r0, #24576
	mov	r8, r0
	ldr	r7, [r3, #2140]
	cmp	r7, #0
	ldmeqfd	sp, {r4, r5, r6, r7, r8, r9, fp, sp, pc}
	add	r6, r0, #26368
	mov	r4, #0
	add	r6, r6, #148
.L274:
	ldr	r5, [r6, #4]!
	add	r4, r4, #1
	ldrb	r3, [r5, #2]	@ zero_extendqisi2
	mov	r0, r5
	cmp	r3, #0
	beq	.L273
	bl	ShortTermRefFlg
	cmp	r0, #0
	bne	.L285
.L273:
	cmp	r4, r7
	bne	.L274
	ldmfd	sp, {r4, r5, r6, r7, r8, r9, fp, sp, pc}
.L285:
	mov	r0, r8
	mov	r1, r5
	bl	UnMarkFrameStoreRef
	mov	r0, r8
	sub	sp, fp, #36
	ldmfd	sp, {r4, r5, r6, r7, r8, r9, fp, sp, lr}
	b	UpdateReflist
	UNWIND(.fnend)
	.size	SlidingWinMark.part.8, .-SlidingWinMark.part.8
	.align	2
	.global	GetPicNumX
	.type	GetPicNumX, %function
GetPicNumX:
	UNWIND(.fnstart)
	@ args = 0, pretend = 0, frame = 0
	@ frame_needed = 1, uses_anonymous_args = 0
	UNWIND(.movsp ip)
	mov	ip, sp
	stmfd	sp!, {fp, ip, lr, pc}
	UNWIND(.pad #4)
	UNWIND(.save {fp, ip, lr})
	UNWIND(.setfp fp, ip, #-4)
	sub	fp, ip, #4
	ldrb	r3, [r0, #3]	@ zero_extendqisi2
	cmp	r3, #0
	ldr	r3, [r0, #664]
	mvn	r0, r1
	movne	r3, r3, asl #1
	addne	r3, r3, #1
	add	r0, r0, r3
	ldmfd	sp, {fp, sp, pc}
	UNWIND(.fnend)
	.size	GetPicNumX, .-GetPicNumX
	.align	2
	.global	UnMarkLTFrmByFrmIdx
	.type	UnMarkLTFrmByFrmIdx, %function
UnMarkLTFrmByFrmIdx:
	UNWIND(.fnstart)
	@ args = 0, pretend = 0, frame = 0
	@ frame_needed = 1, uses_anonymous_args = 0
	UNWIND(.movsp ip)
	mov	ip, sp
	stmfd	sp!, {r4, fp, ip, lr, pc}
	UNWIND(.pad #4)
	UNWIND(.save {r4, fp, ip, lr})
	UNWIND(.setfp fp, ip, #-4)
	sub	fp, ip, #4
	add	r3, r0, #24576
	ldr	r4, [r3, #2148]
	cmp	r4, #0
	ldmeqfd	sp, {r4, fp, sp, pc}
	ldr	ip, [r3, #2072]
	ldr	r3, [ip, #668]
	cmp	r3, r1
	addne	r2, r0, #26624
	movne	r3, #0
	addne	r2, r2, #24
	bne	.L293
	b	.L291
.L294:
	ldr	ip, [r2, #4]!
	ldr	lr, [ip, #668]
	cmp	lr, r1
	beq	.L291
.L293:
	add	r3, r3, #1
	cmp	r3, r4
	bne	.L294
	ldmfd	sp, {r4, fp, sp, pc}
.L291:
	mov	r1, ip
	sub	sp, fp, #16
	ldmia	sp, {r4, fp, sp, lr}
	b	UnMarkFrameStoreRef
	UNWIND(.fnend)
	.size	UnMarkLTFrmByFrmIdx, .-UnMarkLTFrmByFrmIdx
	.align	2
	.global	UnMarkLTFldByFrmIdx
	.type	UnMarkLTFldByFrmIdx, %function
UnMarkLTFldByFrmIdx:
	UNWIND(.fnstart)
	@ args = 0, pretend = 0, frame = 0
	@ frame_needed = 1, uses_anonymous_args = 0
	UNWIND(.movsp ip)
	mov	ip, sp
	stmfd	sp!, {r4, r5, r6, fp, ip, lr, pc}
	UNWIND(.pad #4)
	UNWIND(.save {r4, r5, r6, fp, ip, lr})
	UNWIND(.setfp fp, ip, #-4)
	sub	fp, ip, #4
	add	ip, r0, #24576
	ldr	r6, [ip, #2148]
	cmp	r6, #0
	ldmeqfd	sp, {r4, r5, r6, fp, sp, pc}
	add	r4, r0, #26624
	mov	ip, #0
	add	r4, r4, #20
	b	.L304
.L302:
	cmp	ip, r6
	beq	.L318
.L304:
	ldr	lr, [r4, #4]!
	add	ip, ip, #1
	ldr	r5, [lr, #668]
	cmp	r5, r3
	bne	.L302
	cmp	r2, #1
	ldreqb	r5, [lr, #785]	@ zero_extendqisi2
	beq	.L317
	cmp	r2, #2
	bne	.L302
	ldrb	r5, [lr, #745]	@ zero_extendqisi2
.L317:
	clz	r5, r5
	mov	r5, r5, lsr #5
	cmp	lr, r1
	orrne	r5, r5, #1
	cmp	r5, #0
	beq	.L302
	mov	r1, lr
	sub	sp, fp, #24
	ldmfd	sp, {r4, r5, r6, fp, sp, lr}
	b	UnMarkFrameStoreRef
.L318:
	ldmfd	sp, {r4, r5, r6, fp, sp, pc}
	UNWIND(.fnend)
	.size	UnMarkLTFldByFrmIdx, .-UnMarkLTFldByFrmIdx
	.align	2
	.global	UnMarkSTRef
	.type	UnMarkSTRef, %function
UnMarkSTRef:
	UNWIND(.fnstart)
	@ args = 0, pretend = 0, frame = 0
	@ frame_needed = 1, uses_anonymous_args = 0
	UNWIND(.movsp ip)
	mov	ip, sp
	stmfd	sp!, {r4, r5, r6, fp, ip, lr, pc}
	UNWIND(.pad #4)
	UNWIND(.save {r4, r5, r6, fp, ip, lr})
	UNWIND(.setfp fp, ip, #-4)
	sub	fp, ip, #4
	ldrb	r3, [r1, #3]	@ zero_extendqisi2
	cmp	r3, #0
	bne	.L320
	add	ip, r0, #24576
	ldr	r1, [r1, #664]
	ldr	r4, [ip, #2144]
	sub	r1, r1, #1
	rsb	r2, r2, r1
	cmp	r4, #0
	beq	.L349
	add	ip, r0, #26368
	add	ip, ip, #212
	b	.L326
.L325:
	cmp	r3, r4
	beq	.L350
.L326:
	ldr	r1, [ip, #4]!
	add	r3, r3, #1
	ldr	lr, [r1, #712]
	cmp	lr, r2
	bne	.L325
	ldrb	lr, [r1, #2]	@ zero_extendqisi2
	cmp	lr, #3
	bne	.L325
	ldr	lr, [r1, #704]
	bic	lr, lr, #-16777216
	bic	lr, lr, #255
	cmp	lr, #65536
	bne	.L325
	sub	sp, fp, #24
	ldmfd	sp, {r4, r5, r6, fp, sp, lr}
	b	UnMarkFrameStoreRef
.L320:
	add	r3, r0, #24576
	ldr	r1, [r1, #664]
	ldr	r5, [r3, #2144]
	rsb	r2, r2, r1, lsl #1
	cmp	r5, #0
	beq	.L351
	add	r4, r0, #26368
	mov	ip, #0
	add	r4, r4, #212
	b	.L331
.L327:
	tst	r3, #2
	beq	.L329
	ldr	r3, [r1, #784]
	bic	r3, r3, #-16777216
	bic	r3, r3, #255
	cmp	r3, #65536
	beq	.L352
.L329:
	add	ip, ip, #1
	cmp	ip, r5
	beq	.L353
.L331:
	ldr	r1, [r4, #4]!
	ldrb	r3, [r1, #2]	@ zero_extendqisi2
	ands	r6, r3, #1
	beq	.L327
	ldr	lr, [r1, #744]
	bic	lr, lr, #-16777216
	bic	lr, lr, #255
	cmp	lr, #65536
	bne	.L327
	ldr	lr, [r1, #752]
	cmp	lr, r2
	bne	.L327
	add	r2, r0, ip, lsl #2
	and	r3, r3, #2
	add	r2, r2, #24576
	strb	r3, [r1, #2]
	mov	r1, #0
	ldr	r3, [r2, #2008]
	strb	r1, [r3, #746]
	ldr	r3, [r2, #2008]
	ldrb	ip, [r3, #704]	@ zero_extendqisi2
	cmp	ip, #3
	cmpne	ip, r1
	streqb	r1, [r3, #706]
	ldreq	r3, [r2, #2008]
	streqb	r1, [r3, #705]
	ldreq	r3, [r2, #2008]
	ldrb	r1, [r3, #2]	@ zero_extendqisi2
	cmp	r1, #0
	ldmnefd	sp, {r4, r5, r6, fp, sp, pc}
	ldr	ip, [r3, #692]
	mov	r2, r1
	add	lr, r0, #61440
	add	ip, ip, #15680
	add	ip, ip, #4
	str	r1, [r0, ip, asl #2]
	ldr	r1, [r3, #656]
.L346:
	ldr	r0, [lr, #2680]
	sub	sp, fp, #24
	ldmfd	sp, {r4, r5, r6, fp, sp, lr}
	b	FSP_SetRef
.L352:
	ldr	r3, [r1, #792]
	cmp	r3, r2
	bne	.L329
	add	r3, r0, ip, lsl #2
	strb	r6, [r1, #2]
	add	r3, r3, #24576
	mov	r2, #0
	ldr	r1, [r3, #2008]
	strb	r2, [r1, #786]
	ldr	r1, [r3, #2008]
	ldrb	ip, [r1, #704]	@ zero_extendqisi2
	cmp	ip, #3
	cmpne	ip, r2
	streqb	r2, [r1, #706]
	ldreq	r1, [r3, #2008]
	streqb	r2, [r1, #705]
	ldreq	r1, [r3, #2008]
	ldrb	r3, [r1, #2]	@ zero_extendqisi2
	cmp	r3, #0
	ldmnefd	sp, {r4, r5, r6, fp, sp, pc}
	ldr	ip, [r1, #692]
	add	lr, r0, #61440
	mov	r2, r3
	add	ip, ip, #15680
	add	ip, ip, #4
	str	r3, [r0, ip, asl #2]
	ldr	r1, [r1, #656]
	b	.L346
.L353:
	ldmfd	sp, {r4, r5, r6, fp, sp, pc}
.L350:
	ldmfd	sp, {r4, r5, r6, fp, sp, pc}
.L349:
	ldmfd	sp, {r4, r5, r6, fp, sp, pc}
.L351:
	ldmfd	sp, {r4, r5, r6, fp, sp, pc}
	UNWIND(.fnend)
	.size	UnMarkSTRef, .-UnMarkSTRef
	.align	2
	.global	UnMarkLTRef
	.type	UnMarkLTRef, %function
UnMarkLTRef:
	UNWIND(.fnstart)
	@ args = 0, pretend = 0, frame = 0
	@ frame_needed = 1, uses_anonymous_args = 0
	UNWIND(.movsp ip)
	mov	ip, sp
	stmfd	sp!, {r4, r5, r6, fp, ip, lr, pc}
	UNWIND(.pad #4)
	UNWIND(.save {r4, r5, r6, fp, ip, lr})
	UNWIND(.setfp fp, ip, #-4)
	sub	fp, ip, #4
	ldrb	r3, [r1, #3]	@ zero_extendqisi2
	cmp	r3, #0
	beq	.L355
	add	r3, r0, #24576
	ldr	r5, [r3, #2148]
	cmp	r5, #0
	beq	.L383
	add	r4, r0, #26624
	mov	ip, #0
	add	r4, r4, #20
	b	.L364
.L360:
	tst	r3, #2
	beq	.L362
	ldr	r3, [r1, #784]
	bic	r3, r3, #-16777216
	bic	r3, r3, #255
	cmp	r3, #256
	beq	.L384
.L362:
	add	ip, ip, #1
	cmp	ip, r5
	beq	.L385
.L364:
	ldr	r1, [r4, #4]!
	ldrb	r3, [r1, #2]	@ zero_extendqisi2
	ands	r6, r3, #1
	beq	.L360
	ldr	lr, [r1, #744]
	bic	lr, lr, #-16777216
	bic	lr, lr, #255
	cmp	lr, #256
	bne	.L360
	ldr	lr, [r1, #748]
	cmp	r2, lr
	bne	.L360
	add	r2, r0, ip, lsl #2
	and	r3, r3, #2
	add	r2, r2, #24576
	strb	r3, [r1, #2]
	mov	r1, #0
	ldr	r3, [r2, #2072]
	strb	r1, [r3, #745]
	ldr	r3, [r2, #2072]
	ldrb	ip, [r3, #704]	@ zero_extendqisi2
	cmp	ip, #3
	cmpne	ip, r1
	streqb	r1, [r3, #706]
	ldreq	r3, [r2, #2072]
	streqb	r1, [r3, #705]
	ldreq	r3, [r2, #2072]
	ldrb	r2, [r3, #2]	@ zero_extendqisi2
	cmp	r2, #0
	ldreq	r3, [r3, #692]
	addeq	r3, r3, #15680
	addeq	r3, r3, #4
	streq	r2, [r0, r3, asl #2]
	ldmfd	sp, {r4, r5, r6, fp, sp, pc}
.L355:
	add	r1, r0, #24576
	ldr	r4, [r1, #2148]
	cmp	r4, #0
	beq	.L386
	add	ip, r0, #26624
	add	ip, ip, #20
	b	.L366
.L365:
	cmp	r3, r4
	beq	.L387
.L366:
	ldr	r1, [ip, #4]!
	add	r3, r3, #1
	ldr	lr, [r1, #708]
	cmp	lr, r2
	bne	.L365
	ldrb	lr, [r1, #2]	@ zero_extendqisi2
	cmp	lr, #3
	bne	.L365
	ldr	lr, [r1, #704]
	bic	lr, lr, #-16777216
	bic	lr, lr, #255
	cmp	lr, #256
	bne	.L365
	sub	sp, fp, #24
	ldmfd	sp, {r4, r5, r6, fp, sp, lr}
	b	UnMarkFrameStoreRef
.L384:
	ldr	r3, [r1, #788]
	cmp	r2, r3
	bne	.L362
	add	r3, r0, ip, lsl #2
	strb	r6, [r1, #2]
	add	r3, r3, #24576
	mov	r1, #0
	ldr	r2, [r3, #2072]
	strb	r1, [r2, #785]
	ldr	r2, [r3, #2072]
	ldrb	ip, [r2, #704]	@ zero_extendqisi2
	cmp	ip, #3
	cmpne	ip, r1
	streqb	r1, [r2, #706]
	ldreq	r2, [r3, #2072]
	streqb	r1, [r2, #705]
	ldreq	r2, [r3, #2072]
	ldrb	r1, [r2, #2]	@ zero_extendqisi2
	cmp	r1, #0
	ldreq	r3, [r2, #692]
	addeq	r3, r3, #15680
	addeq	r3, r3, #4
	streq	r1, [r0, r3, asl #2]
	ldmfd	sp, {r4, r5, r6, fp, sp, pc}
.L387:
	ldmfd	sp, {r4, r5, r6, fp, sp, pc}
.L385:
	ldmfd	sp, {r4, r5, r6, fp, sp, pc}
.L386:
	ldmfd	sp, {r4, r5, r6, fp, sp, pc}
.L383:
	ldmfd	sp, {r4, r5, r6, fp, sp, pc}
	UNWIND(.fnend)
	.size	UnMarkLTRef, .-UnMarkLTRef
	.align	2
	.global	MarkPicLTRef
	.type	MarkPicLTRef, %function
MarkPicLTRef:
	UNWIND(.fnstart)
	@ args = 0, pretend = 0, frame = 0
	@ frame_needed = 1, uses_anonymous_args = 0
	UNWIND(.movsp ip)
	mov	ip, sp
	stmfd	sp!, {r4, r5, r6, r7, fp, ip, lr, pc}
	UNWIND(.pad #4)
	UNWIND(.save {r4, r5, r6, r7, fp, ip, lr})
	UNWIND(.setfp fp, ip, #-4)
	sub	fp, ip, #4
	ldrb	r5, [r3, #3]	@ zero_extendqisi2
	add	r3, r0, #24576
	cmp	r5, #0
	beq	.L389
	ldr	r7, [r3, #2144]
	cmp	r7, #0
	beq	.L418
	add	r6, r0, #26368
	mov	ip, #0
	add	r6, r6, #212
	b	.L403
.L395:
	tst	r4, #2
	beq	.L398
	ldr	lr, [r3, #784]
	bic	lr, lr, #-16777216
	bic	lr, lr, #255
	cmp	lr, #65536
	beq	.L419
.L398:
	add	ip, ip, #1
	cmp	ip, r7
	beq	.L420
.L403:
	ldr	r3, [r6, #4]!
	ldrb	r4, [r3, #2]	@ zero_extendqisi2
	tst	r4, #1
	beq	.L395
	ldr	lr, [r3, #744]
	bic	lr, lr, #-16777216
	bic	lr, lr, #255
	cmp	lr, #65536
	bne	.L395
	ldr	lr, [r3, #752]
	cmp	lr, r2
	bne	.L395
	ldrb	lr, [r3, #785]	@ zero_extendqisi2
	cmp	lr, #1
	bne	.L399
	ldr	lr, [r3, #668]
	cmp	lr, r1
	bne	.L398
.L399:
	str	r1, [r3, #668]
	sub	r3, r5, #1
	add	r2, r0, ip, lsl #2
	clz	r3, r3
	add	r2, r2, #24576
	mov	ip, #1
	mov	r3, r3, lsr #5
	mov	r0, #0
	add	r1, r3, r1, lsl #1
	ldr	r3, [r2, #2008]
	str	r1, [r3, #748]
	ldr	r3, [r2, #2008]
	strb	ip, [r3, #745]
	ldr	r3, [r2, #2008]
	strb	r0, [r3, #746]
	ldr	r3, [r2, #2008]
	ldrb	r1, [r3, #704]	@ zero_extendqisi2
	cmp	r1, #3
	cmpne	r1, r0
	bne	.L421
	ldrb	r1, [r3, #785]	@ zero_extendqisi2
	ldrb	r0, [r3, #745]	@ zero_extendqisi2
	cmp	r1, r0
	streqb	r1, [r3, #705]
	ldreq	r3, [r2, #2008]
	ldreqb	r2, [r3, #746]	@ zero_extendqisi2
	streqb	r2, [r3, #706]
	ldmfd	sp, {r4, r5, r6, r7, fp, sp, pc}
.L389:
	ldr	r6, [r3, #2144]
	cmp	r6, #0
	ldmeqfd	sp, {r4, r5, r6, r7, fp, sp, pc}
	add	lr, r0, #26368
	mov	r3, r5
	add	lr, lr, #212
	b	.L394
.L393:
	add	r3, r3, #1
	cmp	r3, r6
	beq	.L422
.L394:
	ldr	ip, [lr, #4]!
	ldrb	r4, [ip, #2]	@ zero_extendqisi2
	cmp	r4, #3
	bne	.L393
	ldr	r4, [ip, #704]
	bic	r4, r4, #-16777216
	bic	r4, r4, #255
	cmp	r4, #65536
	bne	.L393
	ldr	r4, [ip, #712]
	cmp	r4, r2
	bne	.L393
	add	r3, r0, r3, lsl #2
	str	r1, [ip, #668]
	add	r3, r3, #24576
	mov	r0, #1
	mov	r2, #0
	ldr	ip, [r3, #2008]
	str	r1, [ip, #708]
	ldr	r1, [r3, #2008]
	strb	r0, [r1, #705]
	ldr	r1, [r3, #2008]
	strb	r0, [r1, #745]
	ldr	r1, [r3, #2008]
	strb	r0, [r1, #785]
	ldr	r1, [r3, #2008]
	strb	r2, [r1, #706]
	ldr	r1, [r3, #2008]
	strb	r2, [r1, #746]
	ldr	r3, [r3, #2008]
	strb	r2, [r3, #786]
	ldmfd	sp, {r4, r5, r6, r7, fp, sp, pc}
.L419:
	ldr	lr, [r3, #792]
	cmp	lr, r2
	bne	.L398
	ldrb	lr, [r3, #745]	@ zero_extendqisi2
	cmp	lr, #1
	bne	.L402
	ldr	lr, [r3, #668]
	cmp	lr, r1
	bne	.L398
.L402:
	str	r1, [r3, #668]
	sub	r3, r5, #2
	add	r0, r0, ip, lsl #2
	clz	r3, r3
	add	r0, r0, #24576
	mov	ip, #1
	mov	r3, r3, lsr #5
	mov	r2, #0
	add	r1, r3, r1, lsl #1
	ldr	r3, [r0, #2008]
	str	r1, [r3, #788]
	ldr	r3, [r0, #2008]
	strb	ip, [r3, #785]
	ldr	r3, [r0, #2008]
	strb	r2, [r3, #786]
	ldr	r3, [r0, #2008]
	ldrb	r2, [r3, #704]	@ zero_extendqisi2
	cmp	r2, #3
	cmpne	r2, #0
	bne	.L423
	ldrb	r2, [r3, #785]	@ zero_extendqisi2
	ldrb	r1, [r3, #745]	@ zero_extendqisi2
	cmp	r2, r1
	streqb	r2, [r3, #705]
	ldreq	r3, [r0, #2008]
	ldreqb	r2, [r3, #786]	@ zero_extendqisi2
	streqb	r2, [r3, #706]
	ldmfd	sp, {r4, r5, r6, r7, fp, sp, pc}
.L420:
	ldmfd	sp, {r4, r5, r6, r7, fp, sp, pc}
.L422:
	ldmfd	sp, {r4, r5, r6, r7, fp, sp, pc}
.L421:
	ldmfd	sp, {r4, r5, r6, r7, fp, sp, pc}
.L423:
	ldmfd	sp, {r4, r5, r6, r7, fp, sp, pc}
.L418:
	ldmfd	sp, {r4, r5, r6, r7, fp, sp, pc}
	UNWIND(.fnend)
	.size	MarkPicLTRef, .-MarkPicLTRef
	.align	2
	.global	MarkSTToLTRef
	.type	MarkSTToLTRef, %function
MarkSTToLTRef:
	UNWIND(.fnstart)
	@ args = 0, pretend = 0, frame = 0
	@ frame_needed = 1, uses_anonymous_args = 0
	UNWIND(.movsp ip)
	mov	ip, sp
	stmfd	sp!, {r4, r5, r6, r7, fp, ip, lr, pc}
	UNWIND(.pad #4)
	UNWIND(.save {r4, r5, r6, r7, fp, ip, lr})
	UNWIND(.setfp fp, ip, #-4)
	sub	fp, ip, #4
	mov	r5, r1
	ldrb	r1, [r1, #3]	@ zero_extendqisi2
	mov	r7, r3
	mov	r6, r0
	cmp	r1, #0
	bne	.L425
	ldr	r4, [r5, #664]
	mov	r1, r3
	sub	r4, r4, #1
	rsb	r4, r2, r4
	bl	UnMarkLTFrmByFrmIdx
.L426:
	mov	r3, r5
	mov	r2, r4
	mov	r1, r7
	mov	r0, r6
	sub	sp, fp, #28
	ldmfd	sp, {r4, r5, r6, r7, fp, sp, lr}
	b	MarkPicLTRef
.L425:
	add	r3, r0, #24576
	ldr	r4, [r5, #664]
	ldr	lr, [r3, #2144]
	rsb	r4, r2, r4, lsl #1
	cmp	lr, #0
	beq	.L426
	add	ip, r0, #26368
	mov	r3, #0
	add	ip, ip, #212
	b	.L429
.L427:
	tst	r2, #2
	beq	.L428
	ldr	r2, [r1, #784]
	bic	r2, r2, #-16777216
	bic	r2, r2, #255
	cmp	r2, #65536
	beq	.L440
.L428:
	cmp	r3, lr
	beq	.L426
.L429:
	ldr	r1, [ip, #4]!
	add	r3, r3, #1
	ldrb	r2, [r1, #2]	@ zero_extendqisi2
	tst	r2, #1
	beq	.L427
	ldr	r0, [r1, #744]
	bic	r0, r0, #-16777216
	bic	r0, r0, #255
	cmp	r0, #65536
	bne	.L427
	ldr	r0, [r1, #752]
	cmp	r0, r4
	bne	.L427
	mov	r3, r7
	mov	r2, #1
	mov	r0, r6
	bl	UnMarkLTFldByFrmIdx
	b	.L426
.L440:
	ldr	r2, [r1, #792]
	cmp	r2, r4
	bne	.L428
	mov	r3, r7
	mov	r2, #2
	mov	r0, r6
	bl	UnMarkLTFldByFrmIdx
	b	.L426
	UNWIND(.fnend)
	.size	MarkSTToLTRef, .-MarkSTToLTRef
	.align	2
	.global	UpdateMaxLTFrmIdx
	.type	UpdateMaxLTFrmIdx, %function
UpdateMaxLTFrmIdx:
	UNWIND(.fnstart)
	@ args = 0, pretend = 0, frame = 0
	@ frame_needed = 1, uses_anonymous_args = 0
	UNWIND(.movsp ip)
	mov	ip, sp
	stmfd	sp!, {r4, r5, r6, r7, fp, ip, lr, pc}
	UNWIND(.pad #4)
	UNWIND(.save {r4, r5, r6, r7, fp, ip, lr})
	UNWIND(.setfp fp, ip, #-4)
	sub	fp, ip, #4
	add	r6, r0, #24576
	mov	r7, r0
	ldr	r3, [r6, #2148]
	str	r1, [r6, #2152]
	cmp	r3, #0
	ldmeqfd	sp, {r4, r5, r6, r7, fp, sp, pc}
	add	r5, r0, #26624
	mov	r3, r1
	add	r5, r5, #20
	mov	r4, #0
	b	.L445
.L443:
	ldr	r3, [r6, #2148]
	cmp	r3, r4
	ldmlsfd	sp, {r4, r5, r6, r7, fp, sp, pc}
	ldr	r3, [r6, #2152]
.L445:
	ldr	r1, [r5, #4]!
	add	r4, r4, #1
	ldr	r2, [r1, #668]
	cmp	r2, r3
	bcc	.L443
	mov	r0, r7
	bl	UnMarkFrameStoreRef
	b	.L443
	UNWIND(.fnend)
	.size	UpdateMaxLTFrmIdx, .-UpdateMaxLTFrmIdx
	.align	2
	.global	UnMarkAllSTRef
	.type	UnMarkAllSTRef, %function
UnMarkAllSTRef:
	UNWIND(.fnstart)
	@ args = 0, pretend = 0, frame = 0
	@ frame_needed = 1, uses_anonymous_args = 0
	UNWIND(.movsp ip)
	mov	ip, sp
	stmfd	sp!, {r4, r5, r6, r7, fp, ip, lr, pc}
	UNWIND(.pad #4)
	UNWIND(.save {r4, r5, r6, r7, fp, ip, lr})
	UNWIND(.setfp fp, ip, #-4)
	sub	fp, ip, #4
	add	r7, r0, #24576
	mov	r6, r0
	ldr	r3, [r7, #2144]
	cmp	r3, #0
	ldmeqfd	sp, {r4, r5, r6, r7, fp, sp, pc}
	add	r5, r0, #26368
	mov	r4, #0
	add	r5, r5, #212
.L448:
	ldr	r1, [r5, #4]!
	mov	r0, r6
	bl	UnMarkFrameStoreRef
	ldr	r3, [r7, #2144]
	add	r4, r4, #1
	cmp	r3, r4
	bhi	.L448
	ldmfd	sp, {r4, r5, r6, r7, fp, sp, pc}
	UNWIND(.fnend)
	.size	UnMarkAllSTRef, .-UnMarkAllSTRef
	.align	2
	.global	MarkCurrPicLT
	.type	MarkCurrPicLT, %function
MarkCurrPicLT:
	UNWIND(.fnstart)
	@ args = 0, pretend = 0, frame = 0
	@ frame_needed = 1, uses_anonymous_args = 0
	UNWIND(.movsp ip)
	mov	ip, sp
	stmfd	sp!, {r4, r5, fp, ip, lr, pc}
	UNWIND(.pad #4)
	UNWIND(.save {r4, r5, fp, ip, lr})
	UNWIND(.setfp fp, ip, #-4)
	sub	fp, ip, #4
	mov	r5, r2
	ldrb	r2, [r1, #3]	@ zero_extendqisi2
	mov	r4, r1
	cmp	r2, #0
	beq	.L454
	mov	r3, r5
	ldr	r1, [r1, #656]
	bl	UnMarkLTFldByFrmIdx
.L453:
	mov	r2, #1
	mov	r3, #0
	str	r5, [r4, #668]
	strb	r2, [r4, #4]
	strb	r3, [r4, #5]
	ldmfd	sp, {r4, r5, fp, sp, pc}
.L454:
	mov	r1, r5
	bl	UnMarkLTFrmByFrmIdx
	b	.L453
	UNWIND(.fnend)
	.size	MarkCurrPicLT, .-MarkCurrPicLT
	.align	2
	.global	H264_Sei_Get_Dpb_Output_Time
	.type	H264_Sei_Get_Dpb_Output_Time, %function
H264_Sei_Get_Dpb_Output_Time:
	UNWIND(.fnstart)
	@ args = 0, pretend = 0, frame = 0
	@ frame_needed = 1, uses_anonymous_args = 0
	UNWIND(.movsp ip)
	mov	ip, sp
	stmfd	sp!, {r4, r5, r6, r7, r8, fp, ip, lr, pc}
	UNWIND(.pad #4)
	UNWIND(.save {r4, r5, r6, r7, r8, fp, ip, lr})
	UNWIND(.setfp fp, ip, #-4)
	sub	fp, ip, #4
	subs	r3, r0, #0
	beq	.L464
	add	r0, r3, #12288
	add	r1, r3, #20480
	mov	r4, #2208
	add	r3, r3, #24576
	ldr	lr, [r0, #1304]
	mov	r2, #4000
	ldr	r1, [r1, #216]
	ldr	r5, [r0, #1300]
	ldr	r0, [r3, #1864]
	mla	r4, r4, r1, lr
	ldr	r1, [r3, #1860]
	ldr	ip, [r3, #1848]
	add	r0, r0, #1
	add	r1, r1, #1
	ldr	lr, [r3, #1852]
	ldr	r4, [r4, #28]
	str	r0, [r3, #1864]
	subs	r0, r1, #1
	str	ip, [r3, #1868]
	mla	r2, r2, r4, r5
	movne	r0, #1
	cmp	ip, #0
	str	r1, [r3, #1860]
	str	lr, [r3, #1876]
	movne	r0, #0
	cmp	r0, #0
	ldr	r0, [r2, #3344]
	ldrne	ip, [r3, #1872]
	str	r0, [r3, #1912]
	addne	ip, ip, #2
	ldr	r0, [r2, #3348]
	strne	ip, [r3, #1868]
	cmp	r1, #1
	str	r0, [r3, #1916]
	beq	.L465
	ldrb	r1, [r3, #1936]	@ zero_extendqisi2
	add	r4, r3, #1856
	cmp	r1, #1
	ldrd	r0, [r4, #48]
	beq	.L466
	adds	r0, r0, ip
	adc	r1, r1, #0
	strd	r0, [r4, #40]
.L459:
	adds	r0, r0, lr
	mov	lr, #0
	adc	r1, r1, #0
	strb	lr, [r3, #1936]
	ldr	r4, [r2, #3368]
	movs	r1, r1, lsr #1
	mov	r0, r0, rrx
	ldr	r8, [r2, #3344]
	add	lr, r3, #1856
	subs	r6, r0, r4
	sbc	r7, r1, #0
	umull	r4, r5, r6, r8
	mla	r5, r8, r7, r5
	strd	r4, [lr, #24]
	ldr	r2, [r2, #3368]
	subs	r0, r0, r2
	sbc	r1, r1, #0
	strd	r0, [lr, #32]
	str	ip, [r3, #1872]
	ldmfd	sp, {r4, r5, r6, r7, r8, fp, sp, pc}
.L465:
	mov	r6, #0
	str	r6, [r3, #1896]
	mov	r0, r6
	mov	r1, r6
	str	r6, [r3, #1904]
	str	r6, [r3, #1900]
	str	r6, [r3, #1908]
	b	.L459
.L466:
	adds	r0, r0, ip
	adc	r1, r1, #0
	strd	r0, [r4, #40]
	strd	r0, [r4, #48]
	b	.L459
.L464:
	movw	r3, #1475
	ldr	r2, .L467
	ldr	r1, .L467+4
	sub	sp, fp, #32
	ldmfd	sp, {r4, r5, r6, r7, r8, fp, sp, lr}
	b	dprint_vfmw
.L468:
	.align	2
.L467:
	.word	.LC8
	.word	.LC9
	UNWIND(.fnend)
	.size	H264_Sei_Get_Dpb_Output_Time, .-H264_Sei_Get_Dpb_Output_Time
	.align	2
	.global	H264_Get_Last_IDR_Frame_Info
	.type	H264_Get_Last_IDR_Frame_Info, %function
H264_Get_Last_IDR_Frame_Info:
	UNWIND(.fnstart)
	@ args = 0, pretend = 0, frame = 0
	@ frame_needed = 1, uses_anonymous_args = 0
	UNWIND(.movsp ip)
	mov	ip, sp
	stmfd	sp!, {r4, r5, fp, ip, lr, pc}
	UNWIND(.pad #4)
	UNWIND(.save {r4, r5, fp, ip, lr})
	UNWIND(.setfp fp, ip, #-4)
	sub	fp, ip, #4
	subs	r3, r0, #0
	beq	.L472
	cmp	r1, #5
	ldmnefd	sp, {r4, r5, fp, sp, pc}
	ldr	r2, [r3]
	mvn	r5, #0
	mvn	r4, #0
	ldrd	r0, [r2, #64]
	cmp	r1, r5
	cmpeq	r0, r4
	ldmeqfd	sp, {r4, r5, fp, sp, pc}
	movw	ip, #26464
	add	r2, r3, #26368
	ldrd	r4, [r3, ip]
	movw	ip, #26496
	strd	r0, [r3, ip]
	strd	r4, [r2, #136]
	ldmfd	sp, {r4, r5, fp, sp, pc}
.L472:
	movw	r3, #1543
	ldr	r2, .L473
	ldr	r1, .L473+4
	sub	sp, fp, #20
	ldmfd	sp, {r4, r5, fp, sp, lr}
	b	dprint_vfmw
.L474:
	.align	2
.L473:
	.word	.LC8
	.word	.LC9
	UNWIND(.fnend)
	.size	H264_Get_Last_IDR_Frame_Info, .-H264_Get_Last_IDR_Frame_Info
	.global	__aeabi_uidivmod
	.global	__aeabi_uidiv
	.align	2
	.global	H264_Sei_Get_Frame_Pts
	.type	H264_Sei_Get_Frame_Pts, %function
H264_Sei_Get_Frame_Pts:
	UNWIND(.fnstart)
	@ args = 0, pretend = 0, frame = 16
	@ frame_needed = 1, uses_anonymous_args = 0
	UNWIND(.movsp ip)
	mov	ip, sp
	stmfd	sp!, {r4, r5, r6, r7, r8, r9, r10, fp, ip, lr, pc}
	UNWIND(.pad #4)
	UNWIND(.save {r4, r5, r6, r7, r8, r9, r10, fp, ip, lr})
	UNWIND(.setfp fp, ip, #-4)
	sub	fp, ip, #4
	UNWIND(.pad #20)
	sub	sp, sp, #20
	subs	r4, r0, #0
	beq	.L481
	add	r2, r4, #26368
	add	r3, r4, #24576
	add	r2, r2, #144
	movw	r0, #26496
	ldr	r5, [r3, #1912]
	movw	r1, #26464
	ldr	r10, [r3, #1916]
	ldrd	r2, [r2, #-8]
	cmp	r5, #0
	ldrd	r6, [r4, r1]
	strd	r2, [fp, #-60]
	ldrd	r2, [r4, r0]
	strd	r2, [fp, #-52]
	beq	.L479
	mov	r9, r5
	mov	r0, r10
	b	.L478
.L480:
	mov	r9, r1
.L478:
	mov	r1, r9
	bl	__aeabi_uidivmod
	mov	r0, r9
	cmp	r1, #0
	bne	.L480
.L477:
	ldrd	r2, [fp, #-60]
	mov	r1, r9
	mov	r0, r5
	mov	r8, #1000
	subs	r2, r6, r2
	add	r4, r4, #61184
	mul	r6, r8, r2
	bl	__aeabi_uidiv
	mov	r1, r9
	mul	r6, r0, r6
	mov	r0, r10
	bl	__aeabi_uidiv
	mov	r1, r0
	mov	r0, r6
	bl	__aeabi_uidiv
	ldrd	r2, [fp, #-52]
	adds	r2, r2, r0
	adc	r3, r3, #0
	mov	r0, r2
	mov	r1, r3
	strd	r0, [r4, #88]
	sub	sp, fp, #40
	ldmfd	sp, {r4, r5, r6, r7, r8, r9, r10, fp, sp, pc}
.L479:
	mov	r9, r10
	b	.L477
.L481:
	movw	r3, #1565
	ldr	r2, .L482
	ldr	r1, .L482+4
	sub	sp, fp, #40
	ldmfd	sp, {r4, r5, r6, r7, r8, r9, r10, fp, sp, lr}
	b	dprint_vfmw
.L483:
	.align	2
.L482:
	.word	.LC8
	.word	.LC9
	UNWIND(.fnend)
	.size	H264_Sei_Get_Frame_Pts, .-H264_Sei_Get_Frame_Pts
	.align	2
	.global	CheckFrameStore
	.type	CheckFrameStore, %function
CheckFrameStore:
	UNWIND(.fnstart)
	@ args = 0, pretend = 0, frame = 0
	@ frame_needed = 1, uses_anonymous_args = 0
	UNWIND(.movsp ip)
	mov	ip, sp
	stmfd	sp!, {r4, r5, fp, ip, lr, pc}
	UNWIND(.pad #4)
	UNWIND(.save {r4, r5, fp, ip, lr})
	UNWIND(.setfp fp, ip, #-4)
	sub	fp, ip, #4
	UNWIND(.pad #8)
	sub	sp, sp, #8
	add	r3, r0, #61440
	mov	r5, r0
	mov	r4, r1
	ldr	r2, [r3, #1380]
	cmp	r2, #0
	bne	.L485
	ldr	r2, [r1, #824]
	cmp	r2, #1
	beq	.L486
	ldr	r2, [r3, #2608]
	cmp	r2, #0
	beq	.L511
.L486:
	mov	r2, #1
	str	r2, [r3, #1380]
.L485:
	ldr	r0, [r3, #2680]
	ldr	r1, [r4, #656]
	bl	FSP_GetLogicFs
	cmp	r0, #0
	beq	.L488
	ldrsb	r3, [r0, #1]
	cmp	r3, #3
	cmpne	r3, #0
	beq	.L512
	ldrb	r2, [r4, #1]	@ zero_extendqisi2
	ldrb	r3, [r4]	@ zero_extendqisi2
	cmp	r2, #0
	beq	.L496
	cmp	r3, #1
	beq	.L496
	ldr	r3, [r4]
	mov	r1, #768
	movt	r1, 768
	bic	r3, r3, #16711680
	bic	r3, r3, #255
	cmp	r3, r1
	beq	.L513
	cmp	r2, #1
	beq	.L514
	cmp	r2, #2
	beq	.L515
.L494:
	ldr	r1, [r5]
	ldr	r2, [r0, #192]
	ldr	r3, [r1, #4]
	cmp	r2, r3
	bls	.L500
	ldr	r1, [r1, #644]
	cmp	r1, #0
	beq	.L516
.L500:
	mov	r0, #0
.L510:
	sub	sp, fp, #20
	ldmfd	sp, {r4, r5, fp, sp, pc}
.L511:
	ldr	r2, [r0]
	ldr	r2, [r2, #24]
	cmp	r2, #0
	bne	.L486
	mvn	r0, #0
	b	.L510
.L512:
	ldr	r2, [r4, #656]
	mov	r0, #1
	ldr	r1, .L517
	bl	dprint_vfmw
.L490:
	ldr	r3, [r4, #824]
	cmp	r3, #1
	beq	.L497
	mvn	r0, #2
	sub	sp, fp, #20
	ldmfd	sp, {r4, r5, fp, sp, pc}
.L514:
	ldrb	r3, [r4, #3]	@ zero_extendqisi2
	tst	r3, #1
	beq	.L494
	mov	r0, r2
	ldr	r1, .L517+4
	bl	dprint_vfmw
	mvn	r0, #0
	b	.L510
.L515:
	ldrb	r3, [r4, #3]	@ zero_extendqisi2
	tst	r3, #2
	beq	.L494
	ldr	r1, .L517+8
	mov	r0, #1
	bl	dprint_vfmw
	mvn	r0, #0
	b	.L510
.L497:
	mov	r3, #2
	mvn	r0, #2
	str	r3, [r4, #824]
	b	.L510
.L488:
	ldr	ip, [r4, #656]
	mov	r2, r4
	ldr	r3, [r4, #824]
	mov	r0, #1
	ldr	r1, .L517+12
	str	ip, [sp]
	bl	dprint_vfmw
	b	.L490
.L496:
	ldr	r1, .L517+16
	mov	r0, #1
	bl	dprint_vfmw
	mvn	r0, #0
	b	.L510
.L516:
	ldr	r1, .L517+20
	mov	r0, #1
	bl	dprint_vfmw
	mvn	r0, #0
	b	.L510
.L513:
	ldrb	r3, [r4, #3]	@ zero_extendqisi2
	mov	r0, #1
	ldr	r1, .L517+24
	bl	dprint_vfmw
	mvn	r0, #0
	b	.L510
.L518:
	.align	2
.L517:
	.word	.LC13
	.word	.LC17
	.word	.LC18
	.word	.LC14
	.word	.LC15
	.word	.LC19
	.word	.LC16
	UNWIND(.fnend)
	.size	CheckFrameStore, .-CheckFrameStore
	.align	2
	.global	GetImagePara
	.type	GetImagePara, %function
GetImagePara:
	UNWIND(.fnstart)
	@ args = 0, pretend = 0, frame = 24
	@ frame_needed = 1, uses_anonymous_args = 0
	UNWIND(.movsp ip)
	mov	ip, sp
	stmfd	sp!, {r4, r5, r6, r7, r8, r9, r10, fp, ip, lr, pc}
	UNWIND(.pad #4)
	UNWIND(.save {r4, r5, r6, r7, r8, r9, r10, fp, ip, lr})
	UNWIND(.setfp fp, ip, #-4)
	sub	fp, ip, #4
	UNWIND(.pad #36)
	sub	sp, sp, #36
	add	r3, r0, #12288
	add	ip, r0, #20480
	mov	r4, r1
	ldr	r2, [r3, #1304]
	mov	r6, r0
	ldr	r1, [ip, #216]
	mov	r0, #2208
	ldrb	ip, [r4, #81]	@ zero_extendqisi2
	add	r7, r6, #61440
	ldr	r5, [r3, #1300]
	mov	r8, #4000
	mla	r2, r0, r1, r2
	ldrb	r1, [r4, #80]	@ zero_extendqisi2
	bfc	ip, #0, #2
	ldr	lr, [r4, #8]
	bfc	r1, #0, #2
	ldrb	r0, [r4, #82]	@ zero_extendqisi2
	ldr	r3, [r2, #28]
	strb	ip, [r4, #81]
	strb	r1, [r4, #80]
	ldr	r1, [r7, #1388]
	ldrb	r2, [r4, #5]	@ zero_extendqisi2
	mla	r3, r8, r3, r5
	str	r1, [r4, #124]
	ldrb	r1, [r4, #1]	@ zero_extendqisi2
	bfi	r0, r2, #1, #1
	str	lr, [r4, #136]
	strb	r0, [r4, #82]
	cmp	r1, #3
	ldrls	pc, [pc, r1, asl #2]
	b	.L565
.L522:
	.word	.L521
	.word	.L523
	.word	.L524
	.word	.L521
.L524:
	ldr	r0, [r4, #688]
	mov	ip, #3
	ldrb	r2, [r4, #81]	@ zero_extendqisi2
	add	r5, r6, #24576
	str	ip, [r4, #72]
	str	r0, [r4, #168]
	and	r2, r2, #240
	ldr	ip, [r4, #804]
	orr	r2, r2, #11
	ldr	r0, [r4, #820]
	strb	r2, [r4, #81]
	ldr	lr, [r4, #684]
	ldrb	r2, [r4, #80]	@ zero_extendqisi2
	str	ip, [r4, #76]
	bfi	r2, lr, #0, #2
	strb	r2, [r4, #80]
	ldr	r2, [r0, #700]
	str	r2, [r4, #736]
.L520:
	ldrb	r2, [r3, #18]	@ zero_extendqisi2
	str	r2, [r4, #412]
	str	r2, [r4, #416]
	ldrb	r2, [r3, #22]	@ zero_extendqisi2
	cmp	r2, #0
	ldrne	r2, [r3, #3332]
	mov	r3, #1
	str	r3, [r4, #420]
	str	r2, [r4, #424]
	ldr	r3, [r6]
	ldr	r3, [r3, #604]
	str	r3, [r4, #140]
	ldr	r3, [r6]
	ldr	r3, [r3, #608]
	str	r3, [r4, #144]
	ldr	r3, [r6]
	ldr	r3, [r3, #612]
	str	r3, [r4, #148]
	ldr	r3, [r6]
	ldr	r3, [r3, #24]
	cmp	r3, #0
	beq	.L541
	ldrb	r3, [r4, #704]	@ zero_extendqisi2
	cmp	r3, #0
	bne	.L541
	cmp	r1, #3
	ldreqb	r2, [r4, #81]	@ zero_extendqisi2
	bfieq	r2, r3, #0, #2
	streqb	r2, [r4, #81]
.L541:
	add	r9, r4, #608
	mvn	r1, #0
	mvn	r0, #0
	ldrd	r2, [r9, #-8]
	cmp	r3, r1
	cmpeq	r2, r0
	beq	.L543
	ldr	r3, [r5, #2140]
	cmp	r3, #0
	beq	.L543
	add	r8, r6, #26368
	mvn	r2, #1
	add	r8, r8, #148
	mvn	r3, #0
	str	r4, [fp, #-60]
	mov	r10, #0
	mov	r4, r8
	str	r9, [fp, #-52]
	mov	r8, r2
	mov	r9, r3
	mvn	r1, #0
	str	r1, [fp, #-48]
.L546:
	ldr	r1, [r4, #4]!
	cmp	r1, #0
	beq	.L545
	ldr	r1, [r1, #656]
	ldr	r0, [r7, #2680]
	bl	FSP_GetLogicFs
	cmp	r0, #0
	beq	.L545
	ldrsb	r1, [r0, #1]
	cmp	r1, #3
	cmpne	r1, #0
	beq	.L545
	ldr	r1, [r4]
	add	r1, r1, #608
	ldrd	r0, [r1, #-8]
	cmp	r1, r9
	cmpeq	r0, r8
	strcc	r10, [fp, #-48]
	movcc	r8, r0
	movcc	r9, r1
.L545:
	ldr	r1, [r5, #2140]
	add	r10, r10, #1
	cmp	r10, r1
	bcc	.L546
	ldr	r3, [fp, #-48]
	mov	r1, r9
	mov	r0, r8
	ldr	r4, [fp, #-60]
	cmn	r3, #1
	strd	r0, [fp, #-68]
	ldr	r9, [fp, #-52]
	beq	.L543
	ldrd	r2, [r9, #-8]
	cmp	r3, r1
	cmpeq	r2, r8
	bhi	.L584
.L543:
	ldrb	r3, [r5, #1808]	@ zero_extendqisi2
	cmp	r3, #0
	beq	.L547
	ldr	r3, [r5, #1824]
	cmp	r3, #3
	moveq	r3, #1
	streq	r3, [r4, #292]
	beq	.L547
	cmp	r3, #4
	moveq	r3, #2
	streq	r3, [r4, #292]
	beq	.L547
	cmp	r3, #5
	moveq	r3, #3
	streq	r3, [r4, #292]
	beq	.L547
	mov	r0, #0
	ldr	r1, .L587
	str	r0, [r4, #292]
	ldr	r2, [r5, #1824]
	bl	dprint_vfmw
.L547:
	ldr	r0, [r7, #2680]
	ldr	r1, [r4, #656]
	bl	FSP_GetFsImagePtr
	subs	r5, r0, #0
	beq	.L519
	ldr	r3, .L587+4
	mov	r2, #640
	add	r1, r4, #16
	ldr	r3, [r3, #52]
	blx	r3
	mov	r3, #0
	str	r3, [r5, #296]
	mov	r2, #1
	ldrb	r3, [r4, #704]	@ zero_extendqisi2
	strb	r2, [r5, #291]
	cmp	r3, #0
	movne	r3, #4
	strb	r3, [r5, #284]
	ldr	r3, [r4, #728]
	strb	r2, [r5, #289]
	str	r3, [r5, #300]
	str	r3, [r5, #308]
	str	r3, [r5, #304]
	ldr	r3, [r4, #736]
	str	r3, [r5, #236]
.L519:
	sub	sp, fp, #40
	ldmfd	sp, {r4, r5, r6, r7, r8, r9, r10, fp, sp, pc}
.L523:
	ldr	r0, [r4, #688]
	mov	ip, #3
	ldrb	r2, [r4, #81]	@ zero_extendqisi2
	add	r5, r6, #24576
	str	ip, [r4, #76]
	str	r0, [r4, #168]
	and	r2, r2, #240
	ldr	ip, [r4, #764]
	orr	r2, r2, #7
	ldr	r0, [r4, #780]
	strb	r2, [r4, #81]
	ldr	lr, [r4, #684]
	ldrb	r2, [r4, #80]	@ zero_extendqisi2
	str	ip, [r4, #72]
	bfi	r2, lr, #0, #2
	strb	r2, [r4, #80]
	ldr	r2, [r0, #700]
	str	r2, [r4, #736]
	b	.L520
.L521:
	ldrb	r2, [r4, #704]	@ zero_extendqisi2
	cmp	r2, #0
	bne	.L525
	ldr	r0, [r4, #680]
	ldr	r2, [r4, #688]
	cmp	r0, #0
	ldr	ip, [r4, #684]
	ldreq	r9, [r4, #764]
	movne	lr, #3
	ldreq	r8, [r4, #804]
	moveq	lr, #2
	ldrne	r9, [r4, #764]
	moveq	r0, #3
	ldrne	r8, [r4, #804]
	movne	r0, lr
	str	r2, [r4, #168]
.L527:
	ldr	r5, [r4, #756]
	ldr	r2, [r4, #796]
	cmp	r5, r2
	beq	.L585
	movle	r10, #1
	movgt	r10, #0
.L538:
	add	r5, r6, #24576
	ldrb	r2, [r5, #1844]	@ zero_extendqisi2
	cmp	r2, #3
	moveq	r10, #1
	beq	.L539
	cmp	r2, #4
	moveq	r10, #0
.L539:
	ldrb	r2, [r4, #81]	@ zero_extendqisi2
	str	r9, [r4, #72]
	bfi	r2, r10, #4, #2
	ldrb	r9, [r4, #80]	@ zero_extendqisi2
	bfi	r2, r0, #2, #2
	str	r8, [r4, #76]
	bfi	r9, ip, #0, #2
	bfi	r2, lr, #0, #2
	strb	r9, [r4, #80]
	strb	r2, [r4, #81]
	b	.L520
.L584:
	ldr	ip, [r7, #2680]
	strd	r0, [sp]
	mov	r0, ip
	bl	IsPtsRewind
	cmp	r0, #0
	bne	.L543
	ldrd	r2, [r9, #-8]
	mov	r0, #29
	ldr	r1, .L587+8
	strd	r2, [fp, #-60]
	ldrd	r2, [fp, #-68]
	strd	r2, [sp]
	ldrd	r2, [fp, #-60]
	bl	dprint_vfmw
	ldr	r3, [fp, #-48]
	add	r8, r3, #6592
	ldrd	r2, [r9, #-8]
	add	r8, r8, #38
	ldr	r1, [r6, r8, asl #2]
	add	r1, r1, #608
	strd	r2, [r1, #-8]
	ldrd	r2, [fp, #-68]
	strd	r2, [r9, #-8]
	b	.L543
.L525:
	ldr	r8, [r4, #760]
	ldr	r2, [r7, #2676]
	ldr	r9, [r4, #800]
	cmp	r8, r2
	bhi	.L586
	cmp	r2, r9
	bcc	.L531
.L529:
	ldr	r2, [r4, #688]
	mov	r0, #3
	ldr	ip, [r4, #684]
	ldr	lr, [r4, #764]
	ldr	r5, [r4, #804]
	str	r2, [r4, #168]
.L532:
	ldrb	r2, [r4, #3]	@ zero_extendqisi2
	cmp	r2, #1
	streq	r9, [r4, #168]
	moveq	ip, r5
	moveq	r0, #2
	beq	.L534
	cmp	r2, #2
	streq	r8, [r4, #168]
	moveq	ip, lr
	moveq	r0, #1
.L534:
	ldr	r2, [r4, #776]
	mov	r9, lr
	ldr	r10, [r4, #816]
	mov	r8, r5
	str	lr, [r4, #72]
	mov	lr, #3
	add	r2, r2, r10
	str	r5, [r4, #76]
	add	r2, r2, r2, lsr #31
	mov	r2, r2, asr #1
	str	r2, [r4, #736]
	b	.L527
.L531:
	ldr	ip, [r4, #764]
	mov	r0, #1
	ldr	r5, [r4, #804]
	str	r8, [r4, #168]
	mov	lr, ip
	b	.L532
.L585:
	ldr	r2, [r4, #84]
	cmp	r2, #720
	movne	r10, #1
	bne	.L538
	ldr	r10, [r4, #88]
	subs	r10, r10, #480
	movne	r10, #1
	b	.L538
.L586:
	cmp	r2, r9
	bcc	.L529
	ldr	ip, [r4, #804]
	mov	r0, #2
	str	r9, [r4, #168]
	ldr	lr, [r4, #764]
	mov	r5, ip
	b	.L532
.L565:
	add	r5, r6, #24576
	b	.L520
.L588:
	.align	2
.L587:
	.word	.LC21
	.word	vfmw_Osal_Func_Ptr_S
	.word	.LC20
	UNWIND(.fnend)
	.size	GetImagePara, .-GetImagePara
	.align	2
	.global	SetFrmRepeatCount
	.type	SetFrmRepeatCount, %function
SetFrmRepeatCount:
	UNWIND(.fnstart)
	@ args = 0, pretend = 0, frame = 0
	@ frame_needed = 1, uses_anonymous_args = 0
	UNWIND(.movsp ip)
	mov	ip, sp
	stmfd	sp!, {fp, ip, lr, pc}
	UNWIND(.pad #4)
	UNWIND(.save {fp, ip, lr})
	UNWIND(.setfp fp, ip, #-4)
	sub	fp, ip, #4
	ldr	r3, [r0]
	ldr	r3, [r3, #620]
	add	r3, r3, #2032
	add	r3, r3, #15
	cmp	r3, #4096
	movcc	r3, #0
	strcc	r3, [r1, #16]
	ldmccfd	sp, {fp, sp, pc}
	sub	sp, fp, #12
	ldmia	sp, {fp, sp, lr}
	b	SetFrmRepeatCount.part.7
	UNWIND(.fnend)
	.size	SetFrmRepeatCount, .-SetFrmRepeatCount
	.align	2
	.global	SplitFrmToFlds
	.type	SplitFrmToFlds, %function
SplitFrmToFlds:
	UNWIND(.fnstart)
	@ args = 0, pretend = 0, frame = 0
	@ frame_needed = 1, uses_anonymous_args = 0
	UNWIND(.movsp ip)
	mov	ip, sp
	stmfd	sp!, {r4, r5, fp, ip, lr, pc}
	UNWIND(.pad #4)
	UNWIND(.save {r4, r5, fp, ip, lr})
	UNWIND(.setfp fp, ip, #-4)
	sub	fp, ip, #4
	ldrb	lr, [r0, #705]	@ zero_extendqisi2
	mov	r5, #1
	ldrb	ip, [r0, #706]	@ zero_extendqisi2
	mov	r4, #2
	ldr	r1, [r0, #720]
	ldr	r2, [r0, #724]
	ldr	r3, [r0, #740]
	strb	r5, [r0, #744]
	strb	r4, [r0, #784]
	strb	lr, [r0, #745]
	strb	lr, [r0, #785]
	strb	ip, [r0, #746]
	strb	ip, [r0, #786]
	str	r1, [r0, #760]
	str	r1, [r0, #800]
	str	r2, [r0, #764]
	str	r2, [r0, #804]
	str	r3, [r0, #780]
	str	r3, [r0, #820]
	ldmfd	sp, {r4, r5, fp, sp, pc}
	UNWIND(.fnend)
	.size	SplitFrmToFlds, .-SplitFrmToFlds
	.align	2
	.global	CombineFldsToFrm
	.type	CombineFldsToFrm, %function
CombineFldsToFrm:
	UNWIND(.fnstart)
	@ args = 0, pretend = 0, frame = 0
	@ frame_needed = 1, uses_anonymous_args = 0
	UNWIND(.movsp ip)
	mov	ip, sp
	stmfd	sp!, {r4, r5, fp, ip, lr, pc}
	UNWIND(.pad #4)
	UNWIND(.save {r4, r5, fp, ip, lr})
	UNWIND(.setfp fp, ip, #-4)
	sub	fp, ip, #4
	ldr	r2, [r0, #796]
	mov	lr, #3
	ldr	r1, [r0, #756]
	ldr	r3, [r0, #800]
	cmp	r2, r1
	ldr	r5, [r0, #760]
	ldrb	r4, [r0, #785]	@ zero_extendqisi2
	ldr	ip, [r0, #780]
	movge	r2, r1
	add	r3, r3, r5
	cmp	r4, #0
	strb	lr, [r0, #704]
	mov	r3, r3, lsr #1
	str	ip, [r0, #740]
	str	r2, [r0, #716]
	str	r2, [r0, #672]
	str	r3, [r0, #720]
	beq	.L593
	ldrb	r2, [r0, #745]	@ zero_extendqisi2
	cmp	r2, #0
	bne	.L594
.L593:
	ldr	r2, [r0, #784]
	mov	r1, #0
	strb	r1, [r0, #705]
	bic	r2, r2, #-16777216
	bic	r2, r2, #255
	cmp	r2, r1
	beq	.L600
	ldr	r2, [r0, #744]
	bic	r2, r2, #-16777216
	bic	r2, r2, #255
	cmp	r2, #0
	movne	r1, #1
	beq	.L600
.L596:
	ldr	r2, [r0, #764]
	strb	r1, [r0, #706]
	cmp	r2, #0
	beq	.L598
	ldr	r1, [r0, #804]
	cmp	r1, #0
	moveq	r2, r1
	beq	.L598
	cmp	r2, r1
	movcc	r2, r1
.L598:
	str	r2, [r0, #724]
	str	r2, [r0, #684]
	str	r3, [r0, #688]
	ldmfd	sp, {r4, r5, fp, sp, pc}
.L594:
	mov	r1, #1
	strb	r1, [r0, #705]
.L600:
	mov	r1, #0
	b	.L596
	UNWIND(.fnend)
	.size	CombineFldsToFrm, .-CombineFldsToFrm
	.align	2
	.global	GetAPC
	.type	GetAPC, %function
GetAPC:
	UNWIND(.fnstart)
	@ args = 0, pretend = 0, frame = 0
	@ frame_needed = 1, uses_anonymous_args = 0
	UNWIND(.movsp ip)
	mov	ip, sp
	stmfd	sp!, {r4, r5, r6, r7, r8, r9, fp, ip, lr, pc}
	UNWIND(.pad #4)
	UNWIND(.save {r4, r5, r6, r7, r8, r9, fp, ip, lr})
	UNWIND(.setfp fp, ip, #-4)
	sub	fp, ip, #4
	UNWIND(.pad #8)
	sub	sp, sp, #8
	subs	r7, r1, #0
	mov	r5, r0
	beq	.L634
	cmp	r2, #1
	beq	.L615
	cmp	r2, #2
	beq	.L616
	ldr	r8, [r7, #756]
	ldr	r9, [r7, #796]
.L617:
	add	r6, r5, #24576
	ldr	r1, [r6, #2412]
	cmp	r1, #0
	beq	.L626
	ldr	r4, [r6, #2156]
	cmp	r4, #0
	addne	r3, r5, #26624
	movne	r4, #0
	addne	r3, r3, #108
	bne	.L620
	b	.L618
.L624:
	ldr	r2, [r3, #4]!
	cmp	r2, #0
	beq	.L618
.L620:
	add	r4, r4, #1
	cmp	r4, r1
	bne	.L624
.L626:
	mvn	r0, #0
.L630:
	sub	sp, fp, #36
	ldmfd	sp, {r4, r5, r6, r7, r8, r9, fp, sp, pc}
.L616:
	ldr	r8, [r7, #796]
	mov	r9, r8
	b	.L617
.L618:
	add	r3, r5, #61440
	ldr	r1, [r7, #656]
	ldr	r0, [r3, #2680]
	bl	FSP_GetLogicFs
	cmp	r0, #0
	beq	.L621
	ldr	r3, [r0, #28]
	cmp	r3, #0
	beq	.L621
	add	r5, r5, r4, lsl #2
	mov	r3, #1
	add	r5, r5, #24576
	ldr	r1, .L635
	str	r3, [r5, #2156]
	ldr	r3, [r0, #28]
	mov	r0, #13
	ldr	r3, [r3, #4]
	str	r8, [r5, #2284]
	str	r9, [r5, #2348]
	str	r3, [r5, #2220]
	ldr	r3, [r6, #2416]
	cmp	r3, #15
	addls	r3, r3, #1
	movhi	r3, #16
	str	r3, [r6, #2416]
	mov	r3, r4
	ldr	r2, [r7, #164]
	bl	dprint_vfmw
	mov	r0, #0
	str	r4, [r7, #696]
	sub	sp, fp, #36
	ldmfd	sp, {r4, r5, r6, r7, r8, r9, fp, sp, pc}
.L615:
	ldr	r8, [r7, #756]
	mov	r9, r8
	b	.L617
.L621:
	mov	r1, #0
	ldr	r2, [r7, #656]
	ldrb	r3, [r7, #2]	@ zero_extendqisi2
	stmia	sp, {r0, r1}
	mov	r0, r1
	ldr	r1, .L635+4
	bl	dprint_vfmw
	mvn	r0, #0
	b	.L630
.L634:
	mov	r0, r7
	movw	r3, #2539
	ldr	r2, .L635+8
	ldr	r1, .L635+12
	bl	dprint_vfmw
	mvn	r0, #0
	b	.L630
.L636:
	.align	2
.L635:
	.word	.LC22
	.word	.LC23
	.word	.LC8
	.word	.LC9
	UNWIND(.fnend)
	.size	GetAPC, .-GetAPC
	.align	2
	.global	SlidingWinMark
	.type	SlidingWinMark, %function
SlidingWinMark:
	UNWIND(.fnstart)
	@ args = 0, pretend = 0, frame = 0
	@ frame_needed = 1, uses_anonymous_args = 0
	UNWIND(.movsp ip)
	mov	ip, sp
	stmfd	sp!, {fp, ip, lr, pc}
	UNWIND(.pad #4)
	UNWIND(.save {fp, ip, lr})
	UNWIND(.setfp fp, ip, #-4)
	sub	fp, ip, #4
	add	r2, r0, #24576
	add	r3, r0, #16384
	ldr	r1, [r2, #2148]
	ldr	r3, [r3, #456]
	ldr	r2, [r2, #2144]
	rsb	r3, r1, r3
	cmp	r2, r3
	ldmnefd	sp, {fp, sp, pc}
	sub	sp, fp, #12
	ldmia	sp, {fp, sp, lr}
	b	SlidingWinMark.part.8
	UNWIND(.fnend)
	.size	SlidingWinMark, .-SlidingWinMark
	.align	2
	.global	DumpDPB
	.type	DumpDPB, %function
DumpDPB:
	UNWIND(.fnstart)
	@ args = 0, pretend = 0, frame = 0
	@ frame_needed = 1, uses_anonymous_args = 0
	UNWIND(.movsp ip)
	mov	ip, sp
	stmfd	sp!, {r4, r5, r6, r7, fp, ip, lr, pc}
	UNWIND(.pad #4)
	UNWIND(.save {r4, r5, r6, r7, fp, ip, lr})
	UNWIND(.setfp fp, ip, #-4)
	sub	fp, ip, #4
	UNWIND(.pad #8)
	sub	sp, sp, #8
	ldr	r3, .L649
	mov	r5, r0
	ldr	r3, [r3]
	tst	r3, #16384
	beq	.L639
	add	r6, r0, #24576
	ldr	r3, [r6, #2140]
	cmp	r3, #0
	addne	r7, r0, #26368
	movne	r4, #0
	addne	r7, r7, #148
	beq	.L645
.L644:
	ldr	ip, [r7, #4]!
	mov	r2, r4
	ldr	r1, .L649+4
	mov	r0, #14
	add	r4, r4, #1
	ldrb	lr, [ip, #2]	@ zero_extendqisi2
	ldr	r3, [ip, #660]
	str	lr, [sp, #4]
	ldr	ip, [ip, #672]
	str	ip, [sp]
	bl	dprint_vfmw
	ldr	r3, [r6, #2140]
	cmp	r3, r4
	bhi	.L644
.L645:
	ldr	r1, .L649+8
	mov	r0, #14
	bl	dprint_vfmw
	ldr	r3, [r6, #2144]
	cmp	r3, #0
	addne	r5, r5, #26368
	movne	r4, #0
	addne	r5, r5, #212
	beq	.L643
.L646:
	ldr	ip, [r5, #4]!
	mov	r2, r4
	ldr	r1, .L649+12
	mov	r0, #14
	ldrb	lr, [ip, #2]	@ zero_extendqisi2
	ldr	r3, [ip, #660]
	str	lr, [sp, #4]
	ldr	ip, [ip, #672]
	str	ip, [sp]
	bl	dprint_vfmw
	ldr	r3, [r5]
	mov	r2, r4
	ldr	r1, .L649+16
	mov	r0, #14
	add	r4, r4, #1
	ldr	r3, [r3, #716]
	bl	dprint_vfmw
	ldr	r3, [r6, #2144]
	cmp	r3, r4
	bhi	.L646
.L643:
	ldr	r1, .L649+8
	mov	r0, #14
	sub	sp, fp, #28
	ldmfd	sp, {r4, r5, r6, r7, fp, sp, lr}
	b	dprint_vfmw
.L639:
	sub	sp, fp, #28
	ldmfd	sp, {r4, r5, r6, r7, fp, sp, pc}
.L650:
	.align	2
.L649:
	.word	g_PrintEnable
	.word	.LC24
	.word	.LC2
	.word	.LC25
	.word	.LC26
	UNWIND(.fnend)
	.size	DumpDPB, .-DumpDPB
	.align	2
	.global	UpdateCurrFrameInfo
	.type	UpdateCurrFrameInfo, %function
UpdateCurrFrameInfo:
	UNWIND(.fnstart)
	@ args = 0, pretend = 0, frame = 0
	@ frame_needed = 1, uses_anonymous_args = 0
	UNWIND(.movsp ip)
	mov	ip, sp
	stmfd	sp!, {r4, r5, r6, r7, r8, r9, fp, ip, lr, pc}
	UNWIND(.pad #4)
	UNWIND(.save {r4, r5, r6, r7, r8, r9, fp, ip, lr})
	UNWIND(.setfp fp, ip, #-4)
	sub	fp, ip, #4
	add	r3, r0, #57344
	ldrb	r2, [r3, #3330]	@ zero_extendqisi2
	ldr	r4, [r3, #3984]
	strb	r2, [r4]
	ldrb	r2, [r3, #3332]	@ zero_extendqisi2
	cmp	r2, #0
	movne	r2, #3
	bne	.L652
	ldrb	r2, [r3, #3333]	@ zero_extendqisi2
	cmp	r2, #0
	movne	r2, #3
.L652:
	strb	r2, [r4, #2]
	ldr	r2, [r3, #3992]
	str	r2, [r4, #660]
	ldr	r2, [r3, #4028]
	str	r2, [r4, #688]
	ldr	r2, [r3, #4020]
	str	r2, [r4, #684]
	ldr	r2, [r3, #4004]
	str	r2, [r4, #672]
	ldr	r2, [r3, #4052]
	str	r2, [r4, #692]
	ldr	r2, [r3, #3996]
	str	r2, [r4, #668]
	ldrb	r2, [r3, #3337]	@ zero_extendqisi2
	str	r2, [r4, #680]
	ldrb	r2, [r3, #3335]	@ zero_extendqisi2
	cmp	r2, #1
	moveq	r1, #3
	movne	r1, #0
	strb	r1, [r4, #3]
	ldrb	r2, [r3, #3331]	@ zero_extendqisi2
	cmp	r2, #1
	beq	.L655
	bcc	.L656
	cmp	r2, #2
	ldmnefd	sp, {r4, r5, r6, r7, r8, r9, fp, sp, pc}
	str	r4, [r4, #820]
	mov	ip, #1
	strb	ip, [r4, #784]
	mov	r6, #0
	ldrb	ip, [r3, #3332]	@ zero_extendqisi2
	strb	ip, [r4, #785]
	ldrb	ip, [r3, #3333]	@ zero_extendqisi2
	strb	ip, [r4, #786]
	ldr	ip, [r3, #4012]
	str	ip, [r4, #796]
	ldr	ip, [r3, #4020]
	str	ip, [r4, #804]
	ldr	lr, [r3, #4028]
	str	r6, [r4, #680]
	str	lr, [r4, #800]
	ldrb	r5, [r3, #3329]	@ zero_extendqisi2
	cmp	r5, r6
	beq	.L673
	ldr	r2, [r4, #760]
	mov	r5, #3
	strb	r5, [r4, #1]
	add	r0, r0, #61184
	add	lr, lr, r2
	str	lr, [r4, #688]
	str	lr, [r4, #720]
	mvn	r7, #0
	ldrb	r2, [r3, #3335]	@ zero_extendqisi2
	cmp	r2, #1
	orreq	r6, r1, #2
	strb	r6, [r4, #3]
	ldrd	r8, [r0, #88]
	mvn	r6, #0
	cmp	r9, r7
	cmpeq	r8, r6
	beq	.L664
	add	r2, r4, #608
	ldrd	r0, [r2, #-8]
	cmp	r1, r7
	cmpeq	r0, r6
	beq	.L674
.L664:
	ldr	r2, [r4, #764]
.L671:
	cmp	r2, ip
	mov	r0, r4
	movcc	r2, ip
	str	r2, [r4, #684]
	ldr	r3, [r3, #4004]
	str	r3, [r4, #672]
	sub	sp, fp, #36
	ldmfd	sp, {r4, r5, r6, r7, r8, r9, fp, sp, lr}
	b	CombineFldsToFrm
.L656:
	str	r4, [r4, #740]
	mov	r1, #3
	mov	r2, #0
	strb	r1, [r4, #1]
	strb	r2, [r4, #704]
	add	r1, r3, #3344
	ldrb	r5, [r3, #3332]	@ zero_extendqisi2
	mov	r2, #640
	add	r0, r4, #16
	strb	r5, [r4, #705]
	ldrb	r6, [r3, #3333]	@ zero_extendqisi2
	strb	r6, [r4, #706]
	ldr	ip, [r3, #4008]
	str	ip, [r4, #716]
	ldr	r7, [r3, #4020]
	str	r7, [r4, #724]
	ldr	r8, [r3, #4028]
	str	r8, [r4, #720]
	ldr	ip, [r3, #4012]
	str	ip, [r4, #756]
	ldr	r3, [r3, #4016]
	str	r3, [r4, #796]
	bl	memcpy
	mov	r2, #1
	mov	r3, #2
	str	r8, [r4, #760]
	str	r8, [r4, #800]
	str	r7, [r4, #764]
	str	r7, [r4, #804]
	strb	r6, [r4, #746]
	strb	r6, [r4, #786]
	strb	r5, [r4, #745]
	strb	r5, [r4, #785]
	str	r4, [r4, #780]
	str	r4, [r4, #820]
	strb	r2, [r4, #744]
	strb	r3, [r4, #784]
	ldmfd	sp, {r4, r5, r6, r7, r8, r9, fp, sp, pc}
.L655:
	strb	r2, [r4, #744]
	mov	r5, #0
	str	r4, [r4, #780]
	ldrb	ip, [r3, #3332]	@ zero_extendqisi2
	strb	ip, [r4, #745]
	ldrb	ip, [r3, #3333]	@ zero_extendqisi2
	strb	ip, [r4, #746]
	ldr	ip, [r3, #4012]
	str	ip, [r4, #756]
	ldr	ip, [r3, #4020]
	str	ip, [r4, #764]
	ldr	lr, [r3, #4028]
	str	r5, [r4, #680]
	str	lr, [r4, #760]
	ldrb	r6, [r3, #3329]	@ zero_extendqisi2
	cmp	r6, r5
	beq	.L675
	ldr	r2, [r4, #800]
	mov	r6, #3
	strb	r6, [r4, #1]
	add	r0, r0, #61184
	add	lr, lr, r2
	str	lr, [r4, #688]
	str	lr, [r4, #720]
	mvn	r7, #0
	ldrb	r2, [r3, #3335]	@ zero_extendqisi2
	mvn	r6, #0
	cmp	r2, #1
	orreq	r5, r1, #1
	strb	r5, [r4, #3]
	ldrd	r8, [r0, #88]
	cmp	r9, r7
	cmpeq	r8, r6
	beq	.L660
	add	r2, r4, #608
	ldrd	r0, [r2, #-8]
	cmp	r1, r7
	cmpeq	r0, r6
	streqd	r8, [r2, #-8]
.L660:
	ldr	r2, [r4, #804]
	b	.L671
.L673:
	strb	r2, [r4, #1]
	add	r1, r3, #3344
	str	lr, [r4, #688]
	add	r0, r4, #16
	str	lr, [r4, #720]
	mov	r2, #640
	ldrb	r3, [r3, #3335]	@ zero_extendqisi2
	cmp	r3, #1
	moveq	r5, #2
	strb	r5, [r4, #3]
	bl	memcpy
	ldmfd	sp, {r4, r5, r6, r7, r8, r9, fp, sp, pc}
.L675:
	strb	r2, [r4, #1]
	add	r1, r3, #3344
	str	lr, [r4, #688]
	add	r0, r4, #16
	str	lr, [r4, #720]
	mov	r2, #640
	ldrb	r3, [r3, #3335]	@ zero_extendqisi2
	sub	r3, r3, #1
	clz	r3, r3
	mov	r3, r3, lsr #5
	strb	r3, [r4, #3]
	bl	memcpy
	ldmfd	sp, {r4, r5, r6, r7, r8, r9, fp, sp, pc}
.L674:
	strd	r8, [r2, #-8]
	b	.L664
	UNWIND(.fnend)
	.size	UpdateCurrFrameInfo, .-UpdateCurrFrameInfo
	.align	2
	.global	SimpleSlideDPB
	.type	SimpleSlideDPB, %function
SimpleSlideDPB:
	UNWIND(.fnstart)
	@ args = 0, pretend = 0, frame = 0
	@ frame_needed = 1, uses_anonymous_args = 0
	UNWIND(.movsp ip)
	mov	ip, sp
	stmfd	sp!, {r4, r5, fp, ip, lr, pc}
	UNWIND(.pad #4)
	UNWIND(.save {r4, r5, fp, ip, lr})
	UNWIND(.setfp fp, ip, #-4)
	sub	fp, ip, #4
	add	r3, r0, #24576
	mov	r4, r0
	ldr	r1, [r3, #2140]
	ldr	r2, [r3, #2136]
	cmp	r1, r2
	bcs	.L682
.L677:
	add	r0, r4, #57344
	mov	r2, #0
	ldr	r3, [r0, #4000]
	strb	r2, [r0, #3332]
	cmp	r3, r2
	movne	r3, #1
	strneb	r3, [r0, #3333]
	ldmfd	sp, {r4, r5, fp, sp, pc}
.L682:
	ldr	r1, [r3, #1944]
	bl	UnMarkFrameStoreRef
	mov	r1, #0
	mov	r0, r4
	bl	RemoveFrameStoreOutDPB
	b	.L677
	UNWIND(.fnend)
	.size	SimpleSlideDPB, .-SimpleSlideDPB
	.align	2
	.global	H264_ArrangeVahbMem
	.type	H264_ArrangeVahbMem, %function
H264_ArrangeVahbMem:
	UNWIND(.fnstart)
	@ args = 4, pretend = 0, frame = 24
	@ frame_needed = 1, uses_anonymous_args = 0
	UNWIND(.movsp ip)
	mov	ip, sp
	stmfd	sp!, {r4, r5, r6, r7, fp, ip, lr, pc}
	UNWIND(.pad #4)
	UNWIND(.save {r4, r5, r6, r7, fp, ip, lr})
	UNWIND(.setfp fp, ip, #-4)
	sub	fp, ip, #4
	UNWIND(.pad #24)
	sub	sp, sp, #24
	mov	r5, r2
	sub	r2, r1, #32
	sub	r3, r5, #32
	mov	r4, r1
	movw	r1, #8160
	cmp	r3, r1
	cmpls	r2, r1
	mov	r6, r0
	movhi	r1, #1
	movls	r1, #0
	bhi	.L695
	ldr	r3, .L699
	mov	r2, #20
	sub	r0, fp, #48
	ldr	r3, [r3, #48]
	blx	r3
	ldr	r3, [r6]
	str	r4, [fp, #-44]
	str	r5, [fp, #-40]
	ldr	r3, [r3, #28]
	str	r4, [fp, #-36]
	cmp	r3, #24
	str	r5, [fp, #-32]
	beq	.L686
	add	r2, r6, #24576
	ldrb	r3, [fp, #4]	@ zero_extendqisi2
	mov	r1, #5
	strb	r1, [fp, #-46]
	ldr	r2, [r2, #2136]
	add	r2, r2, #1
	strb	r2, [fp, #-47]
.L692:
	cmp	r5, #63
	cmphi	r4, #63
	strb	r3, [fp, #-45]
	movls	r7, #1
	movhi	r7, #0
	bls	.L696
	add	r4, r6, #61440
	sub	r1, fp, #48
	ldr	r0, [r4, #2680]
	bl	FSP_ConfigInstance
	subs	r5, r0, #0
	bne	.L688
	ldr	r1, [r6]
	sub	r3, fp, #52
	ldr	r0, [r4, #2680]
	ldr	r2, [r1, #20]
	ldr	r1, [r1, #16]
	bl	FSP_ConfigFrameBuf
	cmp	r0, #2
	beq	.L697
	cmp	r0, #0
	moveq	r0, #1
	bne	.L698
.L693:
	sub	sp, fp, #28
	ldmfd	sp, {r4, r5, r6, r7, fp, sp, pc}
.L686:
	mov	r3, #1
	mov	r2, #5
	strb	r3, [fp, #-47]
	strb	r2, [fp, #-46]
	b	.L692
.L695:
	mov	r3, r5
	mov	r2, r4
	ldr	r1, .L699+4
	mov	r0, #0
	bl	dprint_vfmw
	mvn	r0, #19
	sub	sp, fp, #28
	ldmfd	sp, {r4, r5, r6, r7, fp, sp, pc}
.L696:
	mov	r3, r5
	mov	r2, r4
	ldr	r1, .L699+8
	mov	r0, #0
	bl	dprint_vfmw
	mvn	r0, #19
	b	.L693
.L688:
	mov	r0, r7
	ldr	r1, .L699+12
	bl	dprint_vfmw
.L694:
	mvn	r0, #19
	b	.L693
.L698:
	mov	r0, r5
	ldr	r1, .L699+16
	bl	dprint_vfmw
	b	.L694
.L697:
	add	r0, r6, #8
	bl	ResetVoQueue
	b	.L694
.L700:
	.align	2
.L699:
	.word	vfmw_Osal_Func_Ptr_S
	.word	.LC27
	.word	.LC28
	.word	.LC30
	.word	.LC29
	UNWIND(.fnend)
	.size	H264_ArrangeVahbMem, .-H264_ArrangeVahbMem
	.align	2
	.global	RepairList
	.type	RepairList, %function
RepairList:
	UNWIND(.fnstart)
	@ args = 0, pretend = 0, frame = 0
	@ frame_needed = 1, uses_anonymous_args = 0
	UNWIND(.movsp ip)
	mov	ip, sp
	stmfd	sp!, {r3, r4, r5, r6, r7, r8, r9, r10, fp, ip, lr, pc}
	UNWIND(.pad #4)
	UNWIND(.save {r3, r4, r5, r6, r7, r8, r9, r10, fp, ip, lr})
	UNWIND(.setfp fp, ip, #-4)
	sub	fp, ip, #4
	subs	r4, r0, #0
	beq	.L728
	add	r3, r4, #20480
	ldrb	r2, [r3, #208]	@ zero_extendqisi2
	cmp	r2, #1
	beq	.L705
	bcc	.L719
	cmp	r2, #2
	bne	.L729
.L720:
	mov	r0, #0
	ldmfd	sp, {r3, r4, r5, r6, r7, r8, r9, r10, fp, sp, pc}
.L729:
	ldr	r1, .L733
	mov	r0, #1
	bl	dprint_vfmw
	mov	r0, r4
	bl	ClearCurrSlice
	mvn	r0, #0
	ldmfd	sp, {r3, r4, r5, r6, r7, r8, r9, r10, fp, sp, pc}
.L719:
	mov	r6, #1
.L706:
	add	lr, r4, #20480
	add	ip, r4, #26880
	add	lr, lr, #244
	mov	r5, #0
	add	ip, ip, #244
	add	r7, r4, #57344
	ldr	r3, [lr, #4]!
	mov	r2, r5
	mov	r8, #1
	cmp	r3, #0
	beq	.L707
.L731:
	ldr	r10, [ip]
	cmp	r10, #0
	bne	.L721
	mov	r0, ip
	mov	r1, r10
	b	.L709
.L710:
	ldr	r9, [r0, #4]!
	cmp	r9, #0
	bne	.L708
.L709:
	add	r1, r1, #1
	cmp	r1, r3
	bne	.L710
	ldr	r1, [r4]
	ldr	r1, [r1, #24]
	cmp	r1, #2
	bne	.L730
	ldr	r5, [r7, #3984]
	add	r5, r5, #704
.L712:
	mov	r9, r10
	mov	r0, ip
	mov	r1, #0
	b	.L718
.L714:
	ldr	r9, [r0, #4]!
.L718:
	add	r1, r1, #1
	cmp	r9, #0
	streq	r5, [r0]
	cmp	r1, r3
	bne	.L714
	add	r2, r2, #1
	add	ip, ip, #132
	cmp	r6, r2
	bls	.L720
.L727:
	ldr	r3, [lr, #4]!
	cmp	r3, #0
	bne	.L731
.L707:
	ldr	r1, [r4]
	ldr	r1, [r1, #24]
	cmp	r1, #2
	bne	.L732
	add	r2, r2, #1
	str	r8, [lr]
	cmp	r6, r2
	ldr	r3, [r7, #3984]
	add	ip, ip, #132
	add	r3, r3, #704
	str	r3, [ip, #-132]
	bhi	.L727
	b	.L720
.L721:
	mov	r9, r10
.L708:
	mov	r5, r9
	b	.L712
.L705:
	mov	r6, #2
	b	.L706
.L732:
	ldr	r1, .L733+4
.L725:
	mov	r0, #1
	bl	dprint_vfmw
	mov	r0, r4
	bl	ClearCurrSlice
	mvn	r0, #0
	ldmfd	sp, {r3, r4, r5, r6, r7, r8, r9, r10, fp, sp, pc}
.L730:
	mov	r2, r5
	mov	r3, #0
	ldr	r1, .L733+8
	b	.L725
.L728:
	movw	r3, #4333
	ldr	r2, .L733+12
	ldr	r1, .L733+16
	bl	dprint_vfmw
	mvn	r0, #0
	ldmfd	sp, {r3, r4, r5, r6, r7, r8, r9, r10, fp, sp, pc}
.L734:
	.align	2
.L733:
	.word	.LC31
	.word	.LC33
	.word	.LC32
	.word	.LC8
	.word	.LC9
	UNWIND(.fnend)
	.size	RepairList, .-RepairList
	.align	2
	.global	GetShortTermPicPoint
	.type	GetShortTermPicPoint, %function
GetShortTermPicPoint:
	UNWIND(.fnstart)
	@ args = 0, pretend = 0, frame = 0
	@ frame_needed = 1, uses_anonymous_args = 0
	UNWIND(.movsp ip)
	mov	ip, sp
	stmfd	sp!, {r4, r5, fp, ip, lr, pc}
	UNWIND(.pad #4)
	UNWIND(.save {r4, r5, fp, ip, lr})
	UNWIND(.setfp fp, ip, #-4)
	sub	fp, ip, #4
	add	r3, r0, #20480
	ldrb	r4, [r3, #209]	@ zero_extendqisi2
	cmp	r4, #0
	beq	.L736
	ldrb	r3, [r3, #210]	@ zero_extendqisi2
	cmp	r3, #0
	movne	r4, #2
	moveq	r4, #1
.L736:
	add	r3, r0, #24576
	ldr	r5, [r3, #2144]
	cmp	r5, #0
	beq	.L744
	add	r3, r0, #26368
	mov	r2, #0
	add	r3, r3, #216
	b	.L741
.L754:
	ldrb	ip, [r0, #2]	@ zero_extendqisi2
	cmp	ip, #3
	beq	.L752
.L739:
	add	r2, r2, #1
	add	r3, r3, #4
	cmp	r2, r5
	beq	.L753
.L741:
	cmp	r4, #0
	ldr	r0, [r3]
	beq	.L754
	ldrb	lr, [r0, #2]	@ zero_extendqisi2
	tst	lr, #1
	beq	.L740
	ldr	ip, [r0, #744]
	bic	ip, ip, #-16777216
	bic	ip, ip, #255
	cmp	ip, #65536
	beq	.L755
.L740:
	tst	lr, #2
	beq	.L739
	ldr	ip, [r0, #784]
	bic	ip, ip, #-16777216
	bic	ip, ip, #255
	cmp	ip, #65536
	bne	.L739
	ldr	ip, [r0, #792]
	cmp	ip, r1
	bne	.L739
	add	r0, r0, #784
	ldmfd	sp, {r4, r5, fp, sp, pc}
.L752:
	ldr	ip, [r0, #704]
	bic	ip, ip, #-16777216
	bic	ip, ip, #255
	cmp	ip, #65536
	bne	.L739
	ldr	ip, [r0, #712]
	cmp	ip, r1
	bne	.L739
	add	r0, r0, #704
	ldmfd	sp, {r4, r5, fp, sp, pc}
.L755:
	ldr	ip, [r0, #752]
	cmp	ip, r1
	bne	.L740
	add	r0, r0, #744
	ldmfd	sp, {r4, r5, fp, sp, pc}
.L753:
	mov	r0, #0
	ldmfd	sp, {r4, r5, fp, sp, pc}
.L744:
	mov	r0, r5
	ldmfd	sp, {r4, r5, fp, sp, pc}
	UNWIND(.fnend)
	.size	GetShortTermPicPoint, .-GetShortTermPicPoint
	.align	2
	.global	GetLongTermPicPoint
	.type	GetLongTermPicPoint, %function
GetLongTermPicPoint:
	UNWIND(.fnstart)
	@ args = 0, pretend = 0, frame = 0
	@ frame_needed = 1, uses_anonymous_args = 0
	UNWIND(.movsp ip)
	mov	ip, sp
	stmfd	sp!, {r4, r5, fp, ip, lr, pc}
	UNWIND(.pad #4)
	UNWIND(.save {r4, r5, fp, ip, lr})
	UNWIND(.setfp fp, ip, #-4)
	sub	fp, ip, #4
	add	r3, r0, #20480
	ldrb	r4, [r3, #209]	@ zero_extendqisi2
	cmp	r4, #0
	beq	.L757
	ldrb	r3, [r3, #210]	@ zero_extendqisi2
	cmp	r3, #0
	movne	r4, #2
	moveq	r4, #1
.L757:
	add	r3, r0, #24576
	ldr	r5, [r3, #2148]
	cmp	r5, #0
	beq	.L765
	add	r3, r0, #26624
	mov	r2, #0
	add	r3, r3, #24
	b	.L762
.L775:
	ldrb	ip, [r0, #2]	@ zero_extendqisi2
	cmp	ip, #3
	beq	.L773
.L760:
	add	r2, r2, #1
	add	r3, r3, #4
	cmp	r2, r5
	beq	.L774
.L762:
	cmp	r4, #0
	ldr	r0, [r3]
	beq	.L775
	ldrb	lr, [r0, #2]	@ zero_extendqisi2
	tst	lr, #1
	beq	.L761
	ldr	ip, [r0, #744]
	bic	ip, ip, #-16777216
	bic	ip, ip, #255
	cmp	ip, #256
	beq	.L776
.L761:
	tst	lr, #2
	beq	.L760
	ldr	ip, [r0, #784]
	bic	ip, ip, #-16777216
	bic	ip, ip, #255
	cmp	ip, #256
	bne	.L760
	ldr	ip, [r0, #788]
	cmp	ip, r1
	bne	.L760
	add	r0, r0, #784
	ldmfd	sp, {r4, r5, fp, sp, pc}
.L773:
	ldr	ip, [r0, #704]
	bic	ip, ip, #-16777216
	bic	ip, ip, #255
	cmp	ip, #256
	bne	.L760
	ldr	ip, [r0, #708]
	cmp	ip, r1
	bne	.L760
	add	r0, r0, #704
	ldmfd	sp, {r4, r5, fp, sp, pc}
.L776:
	ldr	ip, [r0, #748]
	cmp	ip, r1
	bne	.L761
	add	r0, r0, #744
	ldmfd	sp, {r4, r5, fp, sp, pc}
.L774:
	mov	r0, #0
	ldmfd	sp, {r4, r5, fp, sp, pc}
.L765:
	mov	r0, r5
	ldmfd	sp, {r4, r5, fp, sp, pc}
	UNWIND(.fnend)
	.size	GetLongTermPicPoint, .-GetLongTermPicPoint
	.align	2
	.global	ReorderSTList
	.type	ReorderSTList, %function
ReorderSTList:
	UNWIND(.fnstart)
	@ args = 4, pretend = 0, frame = 0
	@ frame_needed = 1, uses_anonymous_args = 0
	UNWIND(.movsp ip)
	mov	ip, sp
	stmfd	sp!, {r4, r5, r6, r7, fp, ip, lr, pc}
	UNWIND(.pad #4)
	UNWIND(.save {r4, r5, r6, r7, fp, ip, lr})
	UNWIND(.setfp fp, ip, #-4)
	sub	fp, ip, #4
	ldr	r6, [fp, #4]
	mov	r4, r1
	mov	r1, r3
	mov	r7, r2
	mov	r5, r3
	bl	GetShortTermPicPoint
	ldr	lr, [r6]
	add	r2, r7, #1
	cmp	r2, lr
	ble	.L778
	add	ip, r4, r2, lsl #2
	mov	r1, r2
.L779:
	ldr	r3, [ip, #-4]!
	sub	r1, r1, #1
	str	r3, [ip, #4]
	ldr	lr, [r6]
	cmp	lr, r1
	blt	.L779
.L778:
	add	r3, lr, #1
	str	r3, [r6]
	str	r0, [r4, lr, asl #2]
	ldr	r0, [r6]
	cmp	r2, r0
	ldmltfd	sp, {r4, r5, r6, r7, fp, sp, pc}
	add	r2, r7, #2
	add	r3, r4, r0, lsl #2
	mov	ip, r0
.L783:
	ldr	r1, [r3], #4
	add	r0, r0, #1
	cmp	r1, #0
	beq	.L781
	ldrb	lr, [r1, #1]	@ zero_extendqisi2
	cmp	lr, #0
	bne	.L782
	ldr	lr, [r1, #8]
	cmp	lr, r5
	beq	.L781
.L782:
	str	r1, [r4, ip, asl #2]
	add	ip, ip, #1
.L781:
	cmp	r0, r2
	bne	.L783
	ldmfd	sp, {r4, r5, r6, r7, fp, sp, pc}
	UNWIND(.fnend)
	.size	ReorderSTList, .-ReorderSTList
	.align	2
	.global	ReorderLTList
	.type	ReorderLTList, %function
ReorderLTList:
	UNWIND(.fnstart)
	@ args = 4, pretend = 0, frame = 0
	@ frame_needed = 1, uses_anonymous_args = 0
	UNWIND(.movsp ip)
	mov	ip, sp
	stmfd	sp!, {r4, r5, r6, r7, fp, ip, lr, pc}
	UNWIND(.pad #4)
	UNWIND(.save {r4, r5, r6, r7, fp, ip, lr})
	UNWIND(.setfp fp, ip, #-4)
	sub	fp, ip, #4
	ldr	r6, [fp, #4]
	mov	r4, r1
	mov	r1, r3
	mov	r7, r2
	mov	r5, r3
	bl	GetLongTermPicPoint
	ldr	lr, [r6]
	add	r2, r7, #1
	cmp	r2, lr
	ble	.L791
	add	ip, r4, r2, lsl #2
	mov	r1, r2
.L792:
	ldr	r3, [ip, #-4]!
	sub	r1, r1, #1
	str	r3, [ip, #4]
	ldr	lr, [r6]
	cmp	lr, r1
	blt	.L792
.L791:
	add	r3, lr, #1
	str	r3, [r6]
	str	r0, [r4, lr, asl #2]
	ldr	r0, [r6]
	cmp	r2, r0
	ldmltfd	sp, {r4, r5, r6, r7, fp, sp, pc}
	add	r2, r7, #2
	add	r3, r4, r0, lsl #2
	mov	ip, r0
.L796:
	ldr	r1, [r3], #4
	add	r0, r0, #1
	cmp	r1, #0
	beq	.L794
	ldrb	lr, [r1, #1]	@ zero_extendqisi2
	cmp	lr, #0
	beq	.L795
	ldr	lr, [r1, #4]
	cmp	lr, r5
	beq	.L794
.L795:
	str	r1, [r4, ip, asl #2]
	add	ip, ip, #1
.L794:
	cmp	r0, r2
	bne	.L796
	ldmfd	sp, {r4, r5, r6, r7, fp, sp, pc}
	UNWIND(.fnend)
	.size	ReorderLTList, .-ReorderLTList
	.align	2
	.global	ReorderRefPiclist
	.type	ReorderRefPiclist, %function
ReorderRefPiclist:
	UNWIND(.fnstart)
	@ args = 12, pretend = 0, frame = 24
	@ frame_needed = 1, uses_anonymous_args = 0
	UNWIND(.movsp ip)
	mov	ip, sp
	stmfd	sp!, {r4, r5, r6, r7, r8, r9, r10, fp, ip, lr, pc}
	UNWIND(.pad #4)
	UNWIND(.save {r4, r5, r6, r7, r8, r9, r10, fp, ip, lr})
	UNWIND(.setfp fp, ip, #-4)
	sub	fp, ip, #4
	UNWIND(.pad #36)
	sub	sp, sp, #36
	add	r2, r0, #20480
	str	r1, [fp, #-56]
	mov	r9, r3
	ldrb	r1, [r2, #209]	@ zero_extendqisi2
	mov	r3, #0
	mov	r8, r0
	str	r3, [fp, #-48]
	cmp	r1, r3
	ldr	r7, [fp, #4]
	add	r3, r0, #12288
	ldr	r1, [r2, #216]
	mov	lr, #2208
	beq	.L807
	ldr	r0, [r2, #224]
	mov	ip, #4000
	ldr	r2, [r3, #1304]
	ldr	r3, [r3, #1300]
	mov	r0, r0, asl #1
	mla	r2, lr, r1, r2
	mov	r1, #2
	add	r0, r0, #1
	str	r0, [fp, #-64]
	ldr	r2, [r2, #28]
	mla	r3, ip, r2, r3
	ldr	r3, [r3, #2196]
	add	r3, r3, #4
	mov	r3, r1, asl r3
	str	r3, [fp, #-60]
.L817:
	adds	r10, r9, #2
	beq	.L806
	ldr	r3, [r7]
	cmp	r3, #3
	beq	.L806
	ldr	r6, [fp, #8]
	mov	r4, #0
	ldr	r5, [fp, #-64]
	b	.L810
.L811:
	ldr	r3, [fp, #12]
	sub	r1, fp, #48
	mov	r2, r9
	mov	r0, r8
	ldr	r3, [r3, r4, asl #2]
	add	r4, r4, #1
	str	r1, [sp]
	ldr	r1, [fp, #-56]
	bl	ReorderLTList
	cmp	r4, r10
	beq	.L806
.L816:
	ldr	r3, [r7, #4]!
	add	r6, r6, #4
	cmp	r3, #3
	beq	.L806
.L810:
	cmp	r3, #1
	bhi	.L811
	cmp	r3, #0
	ldr	r3, [r6]
	bne	.L812
	mvn	r3, r3
	adds	r5, r5, r3
	ldrmi	r3, [fp, #-60]
	addmi	r5, r5, r3
.L813:
	ldr	r3, [fp, #-64]
	sub	r2, fp, #48
	ldr	r1, [fp, #-56]
	mov	r0, r8
	cmp	r3, r5
	str	r2, [sp]
	add	r4, r4, #1
	mov	r2, r9
	ldrlt	r3, [fp, #-60]
	movge	r3, r5
	rsblt	r3, r3, r5
	bl	ReorderSTList
	cmp	r4, r10
	bne	.L816
.L806:
	sub	sp, fp, #40
	ldmfd	sp, {r4, r5, r6, r7, r8, r9, r10, fp, sp, pc}
.L812:
	add	r3, r3, #1
	add	r5, r5, r3
	ldr	r3, [fp, #-60]
	cmp	r3, r5
	rsble	r5, r3, r5
	b	.L813
.L807:
	ldr	r2, [r2, #224]
	mov	ip, #4000
	mov	r0, #1
	str	r2, [fp, #-64]
	ldr	r2, [r3, #1304]
	ldr	r3, [r3, #1300]
	mla	r2, lr, r1, r2
	ldr	r2, [r2, #28]
	mla	r3, ip, r2, r3
	ldr	r3, [r3, #2196]
	add	r3, r3, #4
	mov	r3, r0, asl r3
	str	r3, [fp, #-60]
	b	.L817
	UNWIND(.fnend)
	.size	ReorderRefPiclist, .-ReorderRefPiclist
	.align	2
	.global	ReorderListX
	.type	ReorderListX, %function
ReorderListX:
	UNWIND(.fnstart)
	@ args = 0, pretend = 0, frame = 0
	@ frame_needed = 1, uses_anonymous_args = 0
	UNWIND(.movsp ip)
	mov	ip, sp
	stmfd	sp!, {r4, r5, r6, fp, ip, lr, pc}
	UNWIND(.pad #4)
	UNWIND(.save {r4, r5, r6, fp, ip, lr})
	UNWIND(.setfp fp, ip, #-4)
	sub	fp, ip, #4
	UNWIND(.pad #20)
	sub	sp, sp, #20
	add	r4, r0, #20480
	mov	r5, r0
	ldrb	r3, [r4, #208]	@ zero_extendqisi2
	cmp	r3, #2
	beq	.L825
	add	r6, r0, #16384
	ldrb	r2, [r6, #3512]	@ zero_extendqisi2
	cmp	r2, #0
	bne	.L837
.L828:
	cmp	r3, #1
	ldr	r3, [r4, #260]
	add	r3, r3, #1
	str	r3, [r4, #248]
	bne	.L825
	ldrb	r3, [r6, #3513]	@ zero_extendqisi2
	cmp	r3, #0
	bne	.L838
.L830:
	ldr	r3, [r4, #264]
	add	r3, r3, #1
	str	r3, [r4, #252]
.L825:
	sub	sp, fp, #24
	ldmfd	sp, {r4, r5, r6, fp, sp, pc}
.L837:
	add	r1, r0, #19968
	ldr	r3, [r4, #260]
	add	r2, r0, #20224
	add	ip, r0, #19712
	add	r1, r1, #196
	str	r1, [sp, #4]
	add	r1, r0, #26880
	add	r2, r2, #204
	add	ip, ip, #188
	str	r2, [sp, #8]
	str	ip, [sp]
	add	r2, r4, #248
	add	r1, r1, #244
	bl	ReorderRefPiclist
	ldrb	r3, [r4, #208]	@ zero_extendqisi2
	b	.L828
.L838:
	add	lr, r5, #20480
	add	ip, r5, #20224
	add	r0, r5, #19968
	add	r1, r5, #27136
	ldr	r3, [r4, #264]
	mov	r2, lr
	add	ip, ip, #72
	add	lr, lr, #76
	add	r0, r0, #64
	str	lr, [sp, #8]
	stmia	sp, {r0, ip}
	add	r2, r2, #252
	add	r1, r1, #120
	mov	r0, r5
	bl	ReorderRefPiclist
	b	.L830
	UNWIND(.fnend)
	.size	ReorderListX, .-ReorderListX
	.align	2
	.global	GenPiclistfromFrmlist
	.type	GenPiclistfromFrmlist, %function
GenPiclistfromFrmlist:
	UNWIND(.fnstart)
	@ args = 8, pretend = 0, frame = 8
	@ frame_needed = 1, uses_anonymous_args = 0
	UNWIND(.movsp ip)
	mov	ip, sp
	stmfd	sp!, {r4, r5, r6, r7, r8, r9, r10, fp, ip, lr, pc}
	UNWIND(.pad #4)
	UNWIND(.save {r4, r5, r6, r7, r8, r9, r10, fp, ip, lr})
	UNWIND(.setfp fp, ip, #-4)
	sub	fp, ip, #4
	UNWIND(.pad #12)
	sub	sp, sp, #12
	cmp	r2, #31
	ldr	r6, [fp, #8]
	mov	r7, r1
	ldr	lr, .L902
	movcc	r4, r2
	ldr	ip, .L902+4
	movcs	r4, #31
	cmp	r6, #0
	str	r3, [fp, #-52]
	movne	r6, lr
	moveq	r6, ip
	cmp	r0, #1
	moveq	r5, #0
	moveq	r10, r5
	beq	.L842
	cmp	r0, #2
	moveq	r5, #0
	moveq	r10, r5
	bne	.L850
.L851:
	cmp	r10, r4
	movcs	r3, #0
	movcc	r3, #1
	cmp	r5, r4
	str	r3, [fp, #-48]
	movcs	r2, #0
	movcc	r2, #1
	orrs	r3, r2, r3
	beq	.L850
	cmp	r2, #0
	beq	.L856
	add	r8, r7, r5, lsl #2
	b	.L855
.L852:
	add	r5, r5, #1
	cmp	r4, r5
	bls	.L856
.L855:
	mov	r9, r8
	ldr	r0, [r8], #4
	ldrb	ip, [r0, #1]	@ zero_extendqisi2
	tst	ip, #2
	beq	.L852
	add	r0, r0, #784
	blx	r6
	cmp	r0, #0
	beq	.L852
	ldr	r3, [fp, #4]
	add	r5, r5, #1
	ldr	r2, [r9]
	ldr	r0, [r3]
	add	r2, r2, #784
	ldr	r3, [fp, #-52]
	str	r2, [r3, r0, asl #2]
	ldr	r3, [fp, #4]
	ldr	r2, [r3]
	add	r2, r2, #1
	str	r2, [r3]
.L856:
	ldr	r3, [fp, #-48]
	cmp	r3, #0
	addne	r8, r7, r10, lsl #2
	bne	.L858
	b	.L851
.L857:
	add	r10, r10, #1
	cmp	r4, r10
	bls	.L851
.L858:
	mov	r9, r8
	ldr	r0, [r8], #4
	ldrb	r1, [r0, #1]	@ zero_extendqisi2
	tst	r1, #1
	beq	.L857
	add	r0, r0, #744
	blx	r6
	cmp	r0, #0
	beq	.L857
	ldr	r3, [fp, #4]
	add	r10, r10, #1
	ldr	r2, [r9]
	ldr	r1, [r3]
	add	r2, r2, #744
	ldr	r3, [fp, #-52]
	str	r2, [r3, r1, asl #2]
	ldr	r3, [fp, #4]
	ldr	r2, [r3]
	add	r2, r2, #1
	str	r2, [r3]
	b	.L851
.L901:
	add	r0, r0, #744
	blx	r6
	cmp	r0, #0
	beq	.L843
	ldr	r3, [fp, #4]
	add	r10, r10, #1
	ldr	r2, [r8]
	ldr	r0, [r3]
	add	r2, r2, #744
	ldr	r3, [fp, #-52]
	str	r2, [r3, r0, asl #2]
	ldr	r3, [fp, #4]
	ldr	r2, [r3]
	add	r2, r2, #1
	str	r2, [r3]
.L847:
	ldr	r3, [fp, #-48]
	cmp	r3, #0
	addne	r8, r7, r5, lsl #2
	bne	.L849
	b	.L842
.L848:
	add	r5, r5, #1
	cmp	r4, r5
	bls	.L842
.L849:
	mov	r9, r8
	ldr	r0, [r8], #4
	ldrb	r1, [r0, #1]	@ zero_extendqisi2
	tst	r1, #2
	beq	.L848
	add	r0, r0, #784
	blx	r6
	cmp	r0, #0
	beq	.L848
	ldr	r3, [fp, #4]
	add	r5, r5, #1
	ldr	r2, [r9]
	ldr	r1, [r3]
	add	r2, r2, #784
	ldr	r3, [fp, #-52]
	str	r2, [r3, r1, asl #2]
	ldr	r3, [fp, #4]
	ldr	r2, [r3]
	add	r2, r2, #1
	str	r2, [r3]
.L842:
	cmp	r10, r4
	movcs	r2, #0
	movcc	r2, #1
	cmp	r5, r4
	movcs	r3, #0
	movcc	r3, #1
	str	r3, [fp, #-48]
	orrs	r3, r3, r2
	beq	.L850
	cmp	r2, #0
	beq	.L847
	add	r9, r7, r10, lsl #2
	b	.L846
.L843:
	add	r10, r10, #1
	cmp	r4, r10
	bls	.L847
.L846:
	mov	r8, r9
	ldr	r0, [r9], #4
	ldrb	ip, [r0, #1]	@ zero_extendqisi2
	tst	ip, #1
	beq	.L843
	b	.L901
.L850:
	mov	r0, #0
	sub	sp, fp, #40
	ldmfd	sp, {r4, r5, r6, r7, r8, r9, r10, fp, sp, pc}
.L903:
	.align	2
.L902:
	.word	IsLTRefFlg
	.word	IsSTRefFlg
	UNWIND(.fnend)
	.size	GenPiclistfromFrmlist, .-GenPiclistfromFrmlist
	.align	2
	.global	InitListX
	.type	InitListX, %function
InitListX:
	UNWIND(.fnstart)
	@ args = 0, pretend = 0, frame = 208
	@ frame_needed = 1, uses_anonymous_args = 0
	UNWIND(.movsp ip)
	mov	ip, sp
	stmfd	sp!, {r4, r5, r6, r7, r8, r9, r10, fp, ip, lr, pc}
	UNWIND(.pad #4)
	UNWIND(.save {r4, r5, r6, r7, r8, r9, r10, fp, ip, lr})
	UNWIND(.setfp fp, ip, #-4)
	sub	fp, ip, #4
	UNWIND(.pad #220)
	sub	sp, sp, #220
	subs	r4, r0, #0
	beq	.L1030
	add	r7, r4, #20480
	add	r9, r4, #57344
	ldrb	r3, [r7, #208]	@ zero_extendqisi2
	cmp	r3, #0
	beq	.L1031
	ldrb	r5, [r9, #3331]	@ zero_extendqisi2
	add	r3, r4, #24576
	str	r3, [fp, #-240]
	cmp	r5, #0
	ldr	r10, [r3, #2144]
	beq	.L927
	cmp	r10, #0
	beq	.L1032
	add	r6, r4, #26368
	mov	r5, #0
	add	r6, r6, #212
	mov	r3, r5
	mov	r1, r6
.L946:
	ldr	r2, [r1, #4]!
	add	r3, r3, #1
	ldrb	r0, [r2, #1]	@ zero_extendqisi2
	cmp	r0, #0
	beq	.L945
	sub	r0, fp, #44
	ldr	ip, [r9, #4004]
	add	lr, r0, r5, lsl #2
	ldr	r0, [r2, #672]
	cmp	ip, r0
	strge	r2, [lr, #-192]
	addge	r5, r5, #1
.L945:
	cmp	r3, r10
	bne	.L946
	sub	r3, fp, #236
	mov	r2, #4
	str	r3, [fp, #-244]
	mov	r1, r5
	mov	r0, r3
	ldr	r3, .L1039
	bl	qsort
	ldr	r3, [fp, #-240]
	ldr	r8, [r3, #2144]
	cmp	r8, #0
	beq	.L1027
.L971:
	mov	r10, r5
	mov	r3, #0
.L949:
	ldr	r2, [r6, #4]!
	add	r3, r3, #1
	ldrb	r1, [r2, #1]	@ zero_extendqisi2
	cmp	r1, #0
	beq	.L948
	sub	r1, fp, #44
	ldr	r0, [r9, #4004]
	add	ip, r1, r10, lsl #2
	ldr	r1, [r2, #672]
	cmp	r0, r1
	strlt	r2, [ip, #-192]
	addlt	r10, r10, #1
.L948:
	cmp	r3, r8
	bne	.L949
	ldr	r2, [fp, #-244]
	rsb	r8, r5, r10
	mov	r3, r5, asl #2
	str	r3, [fp, #-248]
	add	r0, r2, r3
	mov	r1, r8
	ldr	r3, .L1039+4
	mov	r2, #4
	bl	qsort
	cmp	r5, #0
	subeq	r6, fp, #172
	beq	.L950
.L968:
	sub	r6, fp, #172
	ldr	r2, [fp, #-244]
	add	r8, r6, r8, lsl #2
	mov	r3, #0
.L951:
	add	r3, r3, #1
	ldr	r1, [r2], #4
	cmp	r3, r5
	str	r1, [r8], #4
	bcc	.L951
.L950:
	cmp	r10, r5
	bls	.L952
	ldr	r3, [fp, #-244]
	ldr	r2, [fp, #-248]
	add	r2, r3, r2
	mov	r3, r6
.L953:
	add	r5, r5, #1
	ldr	r1, [r2], #4
	cmp	r5, r10
	str	r1, [r3], #4
	bne	.L953
.L952:
	add	r2, r4, #20480
	add	r3, r4, #26880
	add	r2, r2, #248
	mov	r5, #0
	add	r3, r3, #244
	str	r5, [r7, #248]
	str	r5, [r7, #252]
	mov	ip, r2
	ldrb	r0, [r9, #3331]	@ zero_extendqisi2
	add	r8, r4, #27136
	ldr	r1, [fp, #-244]
	add	r8, r8, #120
	str	r2, [fp, #-244]
	mov	r2, r10
	str	ip, [sp]
	str	r5, [sp, #4]
	str	r3, [fp, #-248]
	bl	GenPiclistfromFrmlist
	add	r3, r4, #20480
	ldrb	r0, [r9, #3331]	@ zero_extendqisi2
	mov	r2, r10
	mov	r1, r6
	mov	ip, r3
	str	r5, [sp, #4]
	add	ip, ip, #252
	mov	r3, r8
	str	ip, [sp]
	str	ip, [fp, #-252]
	bl	GenPiclistfromFrmlist
	ldr	r3, [fp, #-240]
	ldr	r6, [r3, #2148]
	cmp	r6, r5
	subeq	r10, fp, #108
	beq	.L954
	add	r3, r4, #26624
	sub	r10, fp, #108
	add	r3, r3, #20
	mov	r2, r10
.L955:
	add	r5, r5, #1
	ldr	r1, [r3, #4]!
	cmp	r5, r6
	str	r1, [r2], #4
	bne	.L955
.L954:
	ldr	r3, .L1039+8
	mov	r2, #4
	mov	r1, r6
	mov	r0, r10
	bl	qsort
	ldr	r3, [fp, #-244]
	ldrb	r0, [r9, #3331]	@ zero_extendqisi2
	mov	r5, #1
	mov	r2, r6
	mov	r1, r10
	stmia	sp, {r3, r5}
	ldr	r3, [fp, #-248]
	bl	GenPiclistfromFrmlist
	ldr	r2, [fp, #-252]
	ldrb	r0, [r9, #3331]	@ zero_extendqisi2
	mov	r3, r8
	mov	r1, r10
	str	r5, [sp, #4]
	str	r2, [sp]
	mov	r2, r6
	bl	GenPiclistfromFrmlist
	ldr	r2, [r7, #248]
	ldr	r3, [r7, #252]
	rsb	r1, r3, r2
	clz	r1, r1
	mov	r1, r1, lsr #5
.L944:
	cmp	r2, #1
	movls	r1, #0
	andhi	r1, r1, #1
	cmp	r1, #0
	beq	.L956
	cmp	r2, #0
	ldr	r1, [fp, #-240]
	beq	.L957
	ldr	r6, [r1, #2548]
	ldr	r1, [r1, #2680]
	cmp	r6, r1
	bne	.L956
	add	r0, r4, #27136
	ldr	ip, [fp, #-248]
	add	r0, r0, #120
	mov	r1, #0
	b	.L958
.L959:
	ldr	r5, [ip, #4]!
	ldr	lr, [r0, #4]!
	cmp	r5, lr
	bne	.L956
.L958:
	add	r1, r1, #1
	cmp	r1, r2
	bne	.L959
.L960:
	ldr	r0, [fp, #-240]
	ldr	r1, [r0, #2684]
	str	r6, [r0, #2684]
	str	r1, [r0, #2680]
.L956:
	orrs	r1, r2, r3
	beq	.L1033
.L922:
	ldr	r0, [r7, #260]
	ldr	r1, [r7, #264]
	add	r0, r0, #1
	cmp	r2, r0
	add	r1, r1, #1
	movcs	r2, r0
	cmp	r3, r1
	str	r2, [r7, #248]
	movcs	r3, r1
	cmp	r2, #32
	str	r3, [r7, #252]
	bhi	.L965
	add	r2, r2, #6720
	add	r1, r4, #27136
	add	r2, r2, #60
	add	r1, r1, #116
	mov	r0, #0
	add	r2, r4, r2, lsl #2
.L964:
	str	r0, [r2, #4]!
	cmp	r2, r1
	bne	.L964
.L965:
	cmp	r3, #32
	bhi	.L963
	add	r3, r3, #6784
	add	r2, r4, #27136
	add	r3, r3, #29
	add	r2, r2, #248
	mov	r1, #0
	add	r4, r4, r3, lsl #2
.L966:
	str	r1, [r4, #4]!
	cmp	r4, r2
	bne	.L966
.L963:
	mov	r0, #0
.L1015:
	sub	sp, fp, #40
	ldmfd	sp, {r4, r5, r6, r7, r8, r9, r10, fp, sp, pc}
.L1031:
	ldrb	r6, [r9, #3331]	@ zero_extendqisi2
	cmp	r6, #0
	beq	.L908
	add	r2, r4, #24576
	str	r2, [fp, #-240]
	ldr	lr, [r2, #2144]
	cmp	lr, #0
	moveq	r6, lr
	beq	.L910
	add	r1, r4, #26368
	mov	r6, r3
	add	r1, r1, #212
.L919:
	ldr	r2, [r1, #4]!
	sub	r0, fp, #44
	add	ip, r0, r6, lsl #2
	add	r3, r3, #1
	ldrb	r0, [r2, #2]	@ zero_extendqisi2
	cmp	r0, #0
	strne	r2, [ip, #-192]
	addne	r6, r6, #1
	cmp	r3, lr
	bne	.L919
.L910:
	mov	r1, r6
	ldr	r3, .L1039+12
	mov	r2, #4
	sub	r0, fp, #236
	bl	qsort
	add	r8, r4, #20480
	add	r3, r4, #26880
	mov	r5, #0
	add	r3, r3, #244
	str	r5, [r7, #248]
	mov	r2, r6
	ldrb	r0, [r9, #3331]	@ zero_extendqisi2
	sub	r1, fp, #236
	str	r5, [sp, #4]
	add	r8, r8, #248
	str	r8, [sp]
	str	r3, [fp, #-244]
	bl	GenPiclistfromFrmlist
	ldr	r3, [fp, #-240]
	ldr	r6, [r3, #2148]
	cmp	r6, r5
	subeq	r10, fp, #108
	beq	.L920
	add	r3, r4, #26624
	sub	r10, fp, #108
	add	r3, r3, #20
	mov	r2, r10
.L921:
	add	r5, r5, #1
	ldr	r1, [r3, #4]!
	cmp	r5, r6
	str	r1, [r2], #4
	bne	.L921
.L920:
	ldr	r3, .L1039+8
	mov	r2, #4
	mov	r1, r6
	mov	r0, r10
	bl	qsort
	ldrb	r0, [r9, #3331]	@ zero_extendqisi2
	mov	r2, r6
	mov	ip, #1
	ldr	r3, [fp, #-244]
	mov	r1, r10
	str	r8, [sp]
	str	ip, [sp, #4]
	bl	GenPiclistfromFrmlist
	ldr	r2, [r7, #248]
.L917:
	cmp	r2, #0
	mov	r3, #0
	str	r3, [r7, #252]
	bne	.L922
	ldr	r3, [r4]
	ldr	r3, [r3, #24]
	cmp	r3, #2
	bne	.L923
	ldrb	r3, [r9, #3331]	@ zero_extendqisi2
	cmp	r3, #0
	beq	.L1034
	cmp	r3, #1
	ldr	r2, [fp, #-240]
	ldr	r3, [r9, #3984]
	addeq	r3, r3, #744
	addne	r3, r3, #784
	str	r3, [r2, #2548]
.L925:
	mov	r3, #0
	mov	r2, #1
	b	.L922
.L908:
	add	r3, r4, #24576
	str	r3, [fp, #-240]
	ldr	ip, [r3, #2144]
	cmp	ip, #0
	beq	.L973
	add	r1, r4, #26368
	mov	r3, r6
	add	r1, r1, #212
	b	.L913
.L912:
	cmp	r3, ip
	beq	.L911
.L913:
	ldr	r2, [r1, #4]!
	add	r3, r3, #1
	ldrb	r0, [r2, #2]	@ zero_extendqisi2
	cmp	r0, #3
	bne	.L912
	ldr	r0, [r2, #704]
	bic	r0, r0, #-16777216
	bic	r0, r0, #255
	cmp	r0, #65536
	bne	.L912
	add	r0, r6, #6720
	cmp	r3, ip
	add	r0, r0, #60
	add	r2, r2, #704
	add	r6, r6, #1
	add	r0, r4, r0, lsl #2
	str	r2, [r0, #4]
	bne	.L913
.L911:
	add	r0, r4, #26880
	ldr	r3, .L1039+16
	mov	r1, r6
	add	r0, r0, #244
	mov	r2, #4
	bl	qsort
	ldr	r3, [fp, #-240]
	str	r6, [r7, #248]
	ldr	r1, [r3, #2148]
	cmp	r1, #0
	beq	.L974
	add	r0, r4, #26624
	mov	r5, r6
	add	r0, r0, #20
	mov	r3, #0
	b	.L916
.L915:
	cmp	r3, r1
	beq	.L1035
.L916:
	ldr	r2, [r0, #4]!
	add	r3, r3, #1
	ldrb	ip, [r2, #2]	@ zero_extendqisi2
	cmp	ip, #3
	bne	.L915
	ldr	ip, [r2, #704]
	bic	ip, ip, #-16777216
	bic	ip, ip, #255
	cmp	ip, #256
	bne	.L915
	add	ip, r5, #6720
	cmp	r3, r1
	add	ip, ip, #60
	add	r2, r2, #704
	add	r5, r5, #1
	add	ip, r4, ip, lsl #2
	str	r2, [ip, #4]
	bne	.L916
.L1035:
	rsb	r1, r6, r5
.L914:
	add	r0, r4, r6, lsl #2
	mov	r2, #4
	add	r0, r0, #26880
	ldr	r3, .L1039+20
	add	r0, r0, #244
	bl	qsort
	str	r5, [r7, #248]
	mov	r2, r5
	b	.L917
.L927:
	cmp	r10, #0
	beq	.L930
	add	r6, r4, #26368
	mov	r3, r5
	add	r6, r6, #212
	mov	r1, r6
	b	.L932
.L931:
	cmp	r3, r10
	beq	.L1036
.L932:
	ldr	r2, [r1, #4]!
	add	r3, r3, #1
	ldrb	r0, [r2, #2]	@ zero_extendqisi2
	cmp	r0, #3
	bne	.L931
	add	r0, r5, #6720
	ldr	ip, [r2, #716]
	add	r0, r0, #60
	ldr	lr, [r9, #4008]
	add	r2, r2, #704
	add	r0, r4, r0, lsl #2
	cmp	lr, ip
	addge	r5, r5, #1
	strge	r2, [r0, #4]
	cmp	r3, r10
	bne	.L932
.L1036:
	add	r3, r4, #26880
	mov	r1, r5
	mov	r2, r3
	add	r2, r2, #244
	ldr	r3, .L1039+24
	mov	r0, r2
	str	r2, [fp, #-248]
	mov	r2, #4
	bl	qsort
	ldr	r3, [fp, #-240]
	ldr	r8, [r3, #2144]
	cmp	r8, #0
	beq	.L1026
.L969:
	mov	r10, r5
	mov	r3, #0
	b	.L935
.L934:
	cmp	r3, r8
	beq	.L1037
.L935:
	ldr	r2, [r6, #4]!
	add	r3, r3, #1
	ldrb	r1, [r2, #2]	@ zero_extendqisi2
	cmp	r1, #3
	bne	.L934
	add	r1, r10, #6720
	ldr	r0, [r2, #716]
	add	r1, r1, #60
	ldr	ip, [r9, #4008]
	add	r2, r2, #704
	add	r1, r4, r1, lsl #2
	cmp	ip, r0
	addlt	r10, r10, #1
	strlt	r2, [r1, #4]
	cmp	r3, r8
	bne	.L935
.L1037:
	add	r6, r5, #6720
	rsb	r8, r5, r10
	add	r6, r6, #60
	mov	r2, #4
	ldr	r3, .L1039+28
	mov	r1, r8
	add	r0, r4, r6, lsl #2
	add	r9, r4, r10, lsl #2
	add	r0, r0, r2
	add	r9, r9, #26880
	bl	qsort
	cmp	r5, #0
	add	r9, r9, #244
	beq	.L937
.L967:
	add	r8, r8, #6784
	add	r2, r4, #26880
	add	r8, r8, #29
	add	r2, r2, #240
	mov	r3, #0
	add	r8, r4, r8, lsl #2
.L938:
	add	r3, r3, #1
	ldr	r1, [r2, #4]!
	cmp	r3, r5
	str	r1, [r8, #4]!
	bcc	.L938
.L937:
	cmp	r10, r5
	bls	.L939
	add	r3, r4, #27136
	add	r6, r4, r6, lsl #2
	add	r3, r3, #116
.L940:
	add	r5, r5, #1
	ldr	r2, [r6, #4]!
	cmp	r5, r10
	str	r2, [r3, #4]!
	bne	.L940
.L939:
	ldr	r3, [fp, #-240]
	str	r10, [r7, #252]
	str	r10, [r7, #248]
	ldr	r1, [r3, #2148]
	cmp	r1, #0
	beq	.L976
	add	r0, r4, #26624
	mov	r5, r10
	add	r0, r0, #20
	mov	r3, #0
	b	.L943
.L942:
	cmp	r3, r1
	beq	.L1038
.L943:
	ldr	r2, [r0, #4]!
	add	r3, r3, #1
	ldrb	ip, [r2, #1]	@ zero_extendqisi2
	cmp	ip, #3
	bne	.L942
	ldrb	ip, [r2, #705]	@ zero_extendqisi2
	cmp	ip, #1
	bne	.L942
	add	ip, r4, r5, lsl #2
	cmp	r3, r1
	add	ip, ip, #24576
	add	r2, r2, #704
	add	r5, r5, #1
	str	r2, [ip, #2548]
	str	r2, [ip, #2680]
	bne	.L943
.L1038:
	rsb	r1, r10, r5
.L941:
	mov	r0, r9
	ldr	r3, .L1039+20
	mov	r2, #4
	bl	qsort
	ldr	r0, [r7, #248]
	ldr	r3, .L1039+20
	mov	r2, #4
	rsb	r1, r0, r5
	add	r0, r4, r0, lsl #2
	add	r0, r0, #27136
	add	r0, r0, #120
	bl	qsort
	mov	r3, r5
	str	r5, [r7, #252]
	mov	r2, r5
	str	r5, [r7, #248]
	mov	r1, #1
	b	.L944
.L1034:
	ldr	r2, [fp, #-240]
	ldr	r3, [r9, #3984]
	add	r3, r3, #704
	str	r3, [r2, #2548]
	b	.L925
.L1033:
	ldr	r1, .L1039+32
.L1022:
	mov	r0, #1
	bl	dprint_vfmw
	mov	r0, r4
	bl	ClearCurrSlice
	mvn	r0, #0
	b	.L1015
.L957:
	ldr	r6, [r1, #2680]
	b	.L960
.L973:
	mov	r6, ip
	b	.L911
.L1026:
	add	r6, r5, #6720
	mov	r2, #4
	add	r6, r6, #60
	ldr	r3, .L1039+28
	mov	r1, r8
	add	r9, r4, r6, lsl #2
	add	r9, r9, r2
	mov	r0, r9
	bl	qsort
	subs	r10, r5, #0
	bne	.L967
	b	.L939
.L976:
	mov	r5, r10
	b	.L941
.L1032:
	sub	r3, fp, #236
	mov	r2, #4
	str	r3, [fp, #-244]
	mov	r1, r10
	mov	r0, r3
	ldr	r3, .L1039
	bl	qsort
	ldr	r3, [fp, #-240]
	ldr	r8, [r3, #2144]
	cmp	r8, #0
	addne	r6, r4, #26368
	movne	r5, r10
	addne	r6, r6, #212
	bne	.L971
	ldr	r3, .L1039+4
	mov	r2, #4
	mov	r1, r8
	ldr	r0, [fp, #-244]
	mov	r10, r8
	bl	qsort
.L1023:
	sub	r6, fp, #172
	b	.L952
.L1027:
	mov	r3, r5, asl #2
	ldr	r1, [fp, #-244]
	str	r3, [fp, #-248]
	mov	r2, r3
	ldr	r3, .L1039+4
	add	r0, r1, r2
	mov	r2, #4
	mov	r1, r8
	bl	qsort
	subs	r10, r5, #0
	bne	.L968
	b	.L1023
.L974:
	mov	r5, r6
	b	.L914
.L930:
	add	r3, r4, #26880
	mov	r1, r10
	mov	r2, r3
	add	r2, r2, #244
	ldr	r3, .L1039+24
	mov	r0, r2
	str	r2, [fp, #-248]
	mov	r2, #4
	bl	qsort
	ldr	r3, [fp, #-240]
	ldr	r8, [r3, #2144]
	cmp	r8, #0
	addne	r6, r4, #26368
	movne	r5, r10
	addne	r6, r6, #212
	bne	.L969
	ldr	r9, [fp, #-248]
	mov	r2, #4
	ldr	r3, .L1039+28
	mov	r1, r8
	mov	r10, r8
	mov	r0, r9
	bl	qsort
	b	.L939
.L923:
	ldr	r1, .L1039+36
	b	.L1022
.L1030:
	movw	r3, #5091
	ldr	r2, .L1039+40
	ldr	r1, .L1039+44
	bl	dprint_vfmw
	mvn	r0, #0
	b	.L1015
.L1040:
	.align	2
.L1039:
	.word	compare_fs_by_poc_desc
	.word	compare_fs_by_poc_asc
	.word	compare_fs_by_lt_pic_idx_asc
	.word	compare_fs_by_frame_num_desc
	.word	compare_pic_by_pic_num_desc
	.word	compare_pic_by_lt_pic_num_asc
	.word	compare_pic_by_poc_desc
	.word	compare_pic_by_poc_asc
	.word	.LC35
	.word	.LC34
	.word	.LC8
	.word	.LC9
	UNWIND(.fnend)
	.size	InitListX, .-InitListX
	.align	2
	.global	DumpList
	.type	DumpList, %function
DumpList:
	UNWIND(.fnstart)
	@ args = 0, pretend = 0, frame = 0
	@ frame_needed = 1, uses_anonymous_args = 0
	UNWIND(.movsp ip)
	mov	ip, sp
	stmfd	sp!, {fp, ip, lr, pc}
	UNWIND(.pad #4)
	UNWIND(.save {fp, ip, lr})
	UNWIND(.setfp fp, ip, #-4)
	sub	fp, ip, #4
	ldr	r3, .L1043
	ldr	r3, [r3]
	tst	r3, #8192
	ldmeqfd	sp, {fp, sp, pc}
	sub	sp, fp, #12
	ldmia	sp, {fp, sp, lr}
	b	DumpList.part.10
.L1044:
	.align	2
.L1043:
	.word	g_PrintEnable
	UNWIND(.fnend)
	.size	DumpList, .-DumpList
	.align	2
	.global	FindNearestPOCPicId
	.type	FindNearestPOCPicId, %function
FindNearestPOCPicId:
	UNWIND(.fnstart)
	@ args = 0, pretend = 0, frame = 0
	@ frame_needed = 1, uses_anonymous_args = 0
	UNWIND(.movsp ip)
	mov	ip, sp
	stmfd	sp!, {r4, r5, fp, ip, lr, pc}
	UNWIND(.pad #4)
	UNWIND(.save {r4, r5, fp, ip, lr})
	UNWIND(.setfp fp, ip, #-4)
	sub	fp, ip, #4
	add	r3, r0, #24576
	ldr	r4, [r3, #2140]
	cmp	r4, #0
	beq	.L1050
	ldr	r3, [r3, #1944]
	add	r2, r0, #57344
	ldr	r5, [r2, #4004]
	ldr	lr, [r3, #672]
	rsb	lr, lr, r5
	cmp	lr, #0
	rsblt	lr, lr, #0
	cmp	r4, #1
	bls	.L1051
	add	r1, r0, #26368
	mov	r2, #1
	add	r1, r1, #152
	mov	r0, #0
.L1049:
	ldr	ip, [r1, #4]!
	add	r2, r2, #1
	ldr	r3, [ip, #672]
	rsb	r3, r3, r5
	cmp	r3, #0
	rsblt	r3, r3, #0
	cmp	r3, lr
	ldrlt	r0, [ip, #164]
	movlt	lr, r3
	cmp	r2, r4
	bne	.L1049
	ldmfd	sp, {r4, r5, fp, sp, pc}
.L1051:
	mov	r0, #0
	ldmfd	sp, {r4, r5, fp, sp, pc}
.L1050:
	mvn	r0, #0
	ldmfd	sp, {r4, r5, fp, sp, pc}
	UNWIND(.fnend)
	.size	FindNearestPOCPicId, .-FindNearestPOCPicId
	.align	2
	.global	FindMinRefIdx
	.type	FindMinRefIdx, %function
FindMinRefIdx:
	UNWIND(.fnstart)
	@ args = 0, pretend = 0, frame = 0
	@ frame_needed = 1, uses_anonymous_args = 0
	UNWIND(.movsp ip)
	mov	ip, sp
	stmfd	sp!, {r4, r5, r6, r7, r8, fp, ip, lr, pc}
	UNWIND(.pad #4)
	UNWIND(.save {r4, r5, r6, r7, r8, fp, ip, lr})
	UNWIND(.setfp fp, ip, #-4)
	sub	fp, ip, #4
	add	r3, r0, #20480
	ldrb	r2, [r3, #208]	@ zero_extendqisi2
	cmp	r2, #2
	ldmeqfd	sp, {r4, r5, r6, r7, r8, fp, sp, pc}
	add	r2, r0, #57344
	add	r5, r0, #26880
	ldrb	ip, [r2, #3331]	@ zero_extendqisi2
	cmp	ip, #0
	bne	.L1083
	ldr	lr, [r3, #248]
	mov	r4, r5
	mov	r6, r5
	mov	r7, ip
	cmp	lr, #0
	add	r5, r5, #116
	add	r4, r4, #120
	add	r6, r6, #240
	beq	.L1061
.L1085:
	mov	r2, r6
	mov	r0, #32
	mov	r3, #0
	b	.L1059
.L1058:
	add	r3, r3, #1
	cmp	r3, lr
	beq	.L1084
.L1059:
	ldr	r1, [r2, #4]!
	ldr	r1, [r1, #36]
	ldr	r1, [r1, #696]
	cmp	r1, ip
	bne	.L1058
	cmp	r0, r3
	movcs	r0, r3
	add	r3, r3, #1
	cmp	r3, lr
	str	r0, [r4, #-4]
	str	r0, [r5, #4]
	bne	.L1059
.L1084:
	cmp	r0, #31
	bhi	.L1061
.L1060:
	add	ip, ip, #1
	add	r5, r5, #8
	cmp	ip, #16
	add	r4, r4, #8
	ldmeqfd	sp, {r4, r5, r6, r7, r8, fp, sp, pc}
	cmp	lr, #0
	bne	.L1085
.L1061:
	str	r7, [r4, #-4]
	str	r7, [r5, #4]
	b	.L1060
.L1083:
	ldr	r4, [r3, #248]
	mov	ip, #0
	mov	r6, r5
	mov	r7, ip
	cmp	r4, #0
	add	r5, r5, #116
	add	r6, r6, #240
	beq	.L1065
.L1087:
	mov	r1, r6
	mov	lr, #32
	mov	r2, #0
	b	.L1063
.L1062:
	add	r2, r2, #1
	cmp	r2, r4
	beq	.L1086
.L1063:
	ldr	r3, [r1, #4]!
	ldr	r8, [r3, #36]
	ldrb	r0, [r3]	@ zero_extendqisi2
	ldr	r3, [r8, #696]
	mov	r3, r3, asl #1
	cmp	r0, #2
	orreq	r3, r3, #1
	cmp	r3, ip
	bne	.L1062
	cmp	lr, r2
	movcs	lr, r2
	add	r2, r2, #1
	cmp	r2, r4
	str	lr, [r5]
	bne	.L1063
.L1086:
	cmp	lr, #31
	bhi	.L1065
.L1064:
	add	ip, ip, #1
	add	r5, r5, #4
	cmp	ip, #32
	ldmeqfd	sp, {r4, r5, r6, r7, r8, fp, sp, pc}
	cmp	r4, #0
	bne	.L1087
.L1065:
	str	r7, [r5]
	b	.L1064
	UNWIND(.fnend)
	.size	FindMinRefIdx, .-FindMinRefIdx
	.align	2
	.global	UvmosDeleteList
	.type	UvmosDeleteList, %function
UvmosDeleteList:
	UNWIND(.fnstart)
	@ args = 0, pretend = 0, frame = 0
	@ frame_needed = 1, uses_anonymous_args = 0
	UNWIND(.movsp ip)
	mov	ip, sp
	stmfd	sp!, {r4, r5, r6, r7, r8, r9, fp, ip, lr, pc}
	UNWIND(.pad #4)
	UNWIND(.save {r4, r5, r6, r7, r8, r9, fp, ip, lr})
	UNWIND(.setfp fp, ip, #-4)
	sub	fp, ip, #4
	add	r3, r0, #20480
	mov	r4, r0
	ldrb	r2, [r3, #208]	@ zero_extendqisi2
	cmp	r2, #1
	beq	.L1090
	bcc	.L1097
	cmp	r2, #2
	bne	.L1107
.L1098:
	mov	r0, #0
	ldmfd	sp, {r4, r5, r6, r7, r8, r9, fp, sp, pc}
.L1107:
	ldr	r1, .L1109
	mov	r0, #1
	bl	dprint_vfmw
	mov	r0, r4
	bl	ClearCurrSlice
	mvn	r0, #0
	ldmfd	sp, {r4, r5, r6, r7, r8, r9, fp, sp, pc}
.L1097:
	mov	r8, #1
.L1091:
	add	r6, r4, #20480
	add	r5, r4, #26880
	add	r6, r6, #244
	add	r5, r5, #240
	add	lr, r4, #61440
	mov	r7, #0
.L1095:
	ldr	ip, [r6, #4]!
	cmp	ip, #0
	movne	r1, r5
	movne	r3, #0
	beq	.L1096
.L1094:
	ldr	r2, [r1, #4]!
	add	r3, r3, #1
	cmp	r2, #0
	beq	.L1093
	ldr	r0, [r2, #16]
	ldr	r2, [lr, #2672]
	cmp	r0, r2
	bls	.L1093
	ldr	r2, [r4]
	ldr	r2, [r2, #644]
	cmp	r2, #1
	beq	.L1108
.L1093:
	cmp	r3, ip
	bne	.L1094
.L1096:
	add	r7, r7, #1
	add	r5, r5, #132
	cmp	r7, r8
	bcc	.L1095
	b	.L1098
.L1108:
	mov	r0, r4
	bl	ClearCurrSlice
	mvn	r0, #0
	ldmfd	sp, {r4, r5, r6, r7, r8, r9, fp, sp, pc}
.L1090:
	mov	r8, #2
	b	.L1091
.L1110:
	.align	2
.L1109:
	.word	.LC31
	UNWIND(.fnend)
	.size	UvmosDeleteList, .-UvmosDeleteList
	.align	2
	.global	DecList
	.type	DecList, %function
DecList:
	UNWIND(.fnstart)
	@ args = 0, pretend = 0, frame = 0
	@ frame_needed = 1, uses_anonymous_args = 0
	UNWIND(.movsp ip)
	mov	ip, sp
	stmfd	sp!, {r4, r5, r6, r7, fp, ip, lr, pc}
	UNWIND(.pad #4)
	UNWIND(.save {r4, r5, r6, r7, fp, ip, lr})
	UNWIND(.setfp fp, ip, #-4)
	sub	fp, ip, #4
	subs	r5, r0, #0
	beq	.L1128
	bl	FindNearestPOCPicId
	add	r6, r5, #20480
	mvn	r4, #0
	ldrb	r3, [r6, #208]	@ zero_extendqisi2
	str	r4, [r6, #1832]
	cmp	r3, #2
	str	r0, [r6, #1836]
	beq	.L1129
	mov	r0, r5
	bl	InitListX
	cmp	r0, #0
	bne	.L1130
	ldr	r4, .L1132
	mov	r0, #13
	ldr	r1, .L1132+4
	bl	dprint_vfmw
	ldr	r3, [r4]
	tst	r3, #8192
	bne	.L1131
.L1116:
	mov	r0, r5
	bl	ReorderListX
	mov	r0, r5
	bl	RepairList
	cmp	r0, #0
	bne	.L1121
	mov	r0, r5
	bl	FindMinRefIdx
	ldr	r3, [r5]
	ldr	r3, [r3, #644]
	cmp	r3, #1
	beq	.L1118
.L1122:
	add	r3, r5, #24576
	ldr	r3, [r3, #2548]
	cmp	r3, #0
	mvneq	r3, #0
	ldrne	r3, [r3, #36]
	ldrne	r3, [r3, #164]
.L1120:
	str	r3, [r6, #1832]
	mov	r0, #13
	ldr	r1, .L1132+8
	bl	dprint_vfmw
	ldr	r0, [r4]
	ands	r0, r0, #8192
	ldmeqfd	sp, {r4, r5, r6, r7, fp, sp, pc}
	mov	r0, r5
	bl	DumpList.part.10
	mov	r0, #0
	ldmfd	sp, {r4, r5, r6, r7, fp, sp, pc}
.L1129:
	mov	r0, #0
	str	r0, [r6, #248]
	str	r0, [r6, #252]
	ldmfd	sp, {r4, r5, r6, r7, fp, sp, pc}
.L1131:
	mov	r0, r5
	bl	DumpList.part.10
	b	.L1116
.L1118:
	mov	r0, r5
	bl	UvmosDeleteList
	cmp	r0, #0
	beq	.L1122
.L1121:
	mvn	r0, #0
	ldmfd	sp, {r4, r5, r6, r7, fp, sp, pc}
.L1130:
	ldr	r1, .L1132+12
	mov	r0, #13
	bl	dprint_vfmw
	mov	r0, r4
	ldmfd	sp, {r4, r5, r6, r7, fp, sp, pc}
.L1128:
	movw	r3, #5609
	ldr	r2, .L1132+16
	ldr	r1, .L1132+20
	bl	dprint_vfmw
	mvn	r0, #0
	ldmfd	sp, {r4, r5, r6, r7, fp, sp, pc}
.L1133:
	.align	2
.L1132:
	.word	g_PrintEnable
	.word	.LC37
	.word	.LC38
	.word	.LC36
	.word	.LC8
	.word	.LC9
	UNWIND(.fnend)
	.size	DecList, .-DecList
	.align	2
	.global	NoPicOut
	.type	NoPicOut, %function
NoPicOut:
	UNWIND(.fnstart)
	@ args = 0, pretend = 0, frame = 0
	@ frame_needed = 1, uses_anonymous_args = 0
	UNWIND(.movsp ip)
	mov	ip, sp
	stmfd	sp!, {r4, fp, ip, lr, pc}
	UNWIND(.pad #4)
	UNWIND(.save {r4, fp, ip, lr})
	UNWIND(.setfp fp, ip, #-4)
	sub	fp, ip, #4
	add	r4, r0, #61440
	ldr	ip, [r4, #1364]
	cmp	ip, #0
	addne	r3, r0, #27904
	movne	r2, #0
	addne	r3, r3, #164
	movne	lr, r2
	bne	.L1140
	b	.L1141
.L1149:
	ldrb	r1, [r3, #-672]	@ zero_extendqisi2
	cmp	r1, #1
	beq	.L1138
	cmp	r2, ip
	add	r3, r3, #832
	beq	.L1141
.L1140:
	ldr	r1, [r3]
	add	r2, r2, #1
	cmp	r1, #1
	bne	.L1149
.L1138:
	cmp	r2, ip
	strb	lr, [r3, #-675]
	strb	lr, [r3, #-674]
	add	r3, r3, #832
	bne	.L1140
.L1141:
	ldr	r2, [r4, #1368]
	cmp	r2, #0
	beq	.L1150
	add	r0, r0, #62720
	mov	r3, #0
	add	r0, r0, #12
	mov	r1, r3
.L1142:
	add	r3, r3, #1
	str	r1, [r0, #4]!
	cmp	r3, r2
	bne	.L1142
	ldmfd	sp, {r4, fp, sp, pc}
.L1150:
	ldmfd	sp, {r4, fp, sp, pc}
	UNWIND(.fnend)
	.size	NoPicOut, .-NoPicOut
	.align	2
	.global	GetBackPicFromVOQueue
	.type	GetBackPicFromVOQueue, %function
GetBackPicFromVOQueue:
	UNWIND(.fnstart)
	@ args = 0, pretend = 0, frame = 0
	@ frame_needed = 1, uses_anonymous_args = 0
	UNWIND(.movsp ip)
	mov	ip, sp
	stmfd	sp!, {r3, r4, r5, r6, r7, r8, r9, r10, fp, ip, lr, pc}
	UNWIND(.pad #4)
	UNWIND(.save {r3, r4, r5, r6, r7, r8, r9, r10, fp, ip, lr})
	UNWIND(.setfp fp, ip, #-4)
	sub	fp, ip, #4
	add	r5, r0, #61440
	mov	r9, r0
	ldr	r0, [r5, #2680]
	bl	FSP_GetFspType
	cmp	r0, #0
	beq	.L1168
.L1152:
	ldr	r3, [r5, #1364]
	cmp	r3, #0
	beq	.L1159
	add	r10, r9, #27904
	mov	r6, #0
	add	r10, r10, #72
	mov	r7, #0
	mov	r8, #0
.L1158:
	sub	r4, r10, #32
	mov	r3, #0
	strb	r3, [r10, #-583]
	strb	r3, [r10, #-582]
.L1157:
	ldr	r1, [r4, #8]!
	cmp	r1, #0
	beq	.L1156
	ldr	r0, [r5, #2680]
	bl	FreeUsdByDec
	strd	r6, [r4]
.L1156:
	cmp	r4, r10
	bne	.L1157
	ldr	r3, [r5, #1364]
	add	r8, r8, #1
	add	r10, r10, #832
	cmp	r3, r8
	bhi	.L1158
.L1159:
	ldr	r2, [r5, #1368]
	cmp	r2, #0
	beq	.L1169
	add	r9, r9, #62720
	mov	r3, #0
	add	r9, r9, #12
	mov	r1, r3
.L1160:
	add	r3, r3, #1
	str	r1, [r9, #4]!
	cmp	r3, r2
	bne	.L1160
	ldmfd	sp, {r3, r4, r5, r6, r7, r8, r9, r10, fp, sp, pc}
.L1168:
	add	r0, r9, #8
	bl	ResetVoQueue
	b	.L1152
.L1169:
	ldmfd	sp, {r3, r4, r5, r6, r7, r8, r9, r10, fp, sp, pc}
	UNWIND(.fnend)
	.size	GetBackPicFromVOQueue, .-GetBackPicFromVOQueue
	.align	2
	.global	wait_vo
	.type	wait_vo, %function
wait_vo:
	UNWIND(.fnstart)
	@ args = 0, pretend = 0, frame = 0
	@ frame_needed = 1, uses_anonymous_args = 0
	UNWIND(.movsp ip)
	mov	ip, sp
	stmfd	sp!, {fp, ip, lr, pc}
	UNWIND(.pad #4)
	UNWIND(.save {fp, ip, lr})
	UNWIND(.setfp fp, ip, #-4)
	sub	fp, ip, #4
	ldmfd	sp, {fp, sp, pc}
	UNWIND(.fnend)
	.size	wait_vo, .-wait_vo
	.align	2
	.global	GetReRangeFlag
	.type	GetReRangeFlag, %function
GetReRangeFlag:
	UNWIND(.fnstart)
	@ args = 0, pretend = 0, frame = 8
	@ frame_needed = 1, uses_anonymous_args = 0
	UNWIND(.movsp ip)
	mov	ip, sp
	stmfd	sp!, {r4, r5, r6, r7, r8, fp, ip, lr, pc}
	UNWIND(.pad #4)
	UNWIND(.save {r4, r5, r6, r7, r8, fp, ip, lr})
	UNWIND(.setfp fp, ip, #-4)
	sub	fp, ip, #4
	UNWIND(.pad #12)
	sub	sp, sp, #12
	add	r6, r0, #12288
	add	r3, r0, #20480
	mov	r5, r0
	ldr	r0, [r6, #1304]
	mov	lr, #2208
	ldr	r3, [r3, #216]
	mov	r4, #4000
	ldr	r2, [r6, #1300]
	mov	r7, r1
	ldr	ip, [r6, #1276]
	mla	r3, lr, r3, r0
	ldr	r0, [r6, #1280]
	ldr	r3, [r3, #28]
	mla	r4, r4, r3, r2
	ldrb	r3, [r4, #18]	@ zero_extendqisi2
	ldr	r1, [r4, #3252]
	rsb	r3, r3, #2
	ldr	r2, [r4, #3248]
	mla	r3, r1, r3, r3
	add	r2, r2, #1
	cmp	r2, ip
	cmpeq	r3, r0
	movne	r1, #1
	moveq	r1, #0
	bne	.L1172
	add	lr, r5, #24576
	ldr	r8, [r4, #3272]
	ldr	lr, [lr, #2136]
	add	lr, lr, #1
	cmp	r8, lr
	moveq	r3, r1
	beq	.L1173
.L1172:
	ldr	r1, .L1177
	ldr	r8, [r1]
	cmp	r8, #0
	beq	.L1176
	add	r1, r5, #61440
	mov	r0, r0, asl #4
	mov	r2, r2, asl #4
	mov	r3, r3, asl #4
	mov	ip, ip, asl #4
	strh	r0, [fp, #-42]	@ movhi
	strh	r2, [fp, #-40]	@ movhi
	sub	r2, fp, #44
	strh	r3, [fp, #-38]	@ movhi
	mov	r3, #8
	ldr	r0, [r1, #2680]
	mov	r1, #2
	strh	ip, [fp, #-44]	@ movhi
	blx	r8
.L1176:
	ldr	lr, [r4, #3272]
	mov	r3, #1
.L1173:
	add	r5, r5, #16384
	ldr	r2, [r4, #36]
	ldr	ip, [r6, #1344]
	mov	r0, r3
	ldr	r1, [r5, #484]
	cmp	ip, r2
	cmpeq	r1, lr
	movne	r2, #1
	moveq	r2, #0
	orr	r3, r2, r3
	str	r3, [r7]
	sub	sp, fp, #32
	ldmfd	sp, {r4, r5, r6, r7, r8, fp, sp, pc}
.L1178:
	.align	2
.L1177:
	.word	g_event_report
	UNWIND(.fnend)
	.size	GetReRangeFlag, .-GetReRangeFlag
	.align	2
	.global	DecPOC
	.type	DecPOC, %function
DecPOC:
	UNWIND(.fnstart)
	@ args = 0, pretend = 0, frame = 0
	@ frame_needed = 1, uses_anonymous_args = 0
	UNWIND(.movsp ip)
	mov	ip, sp
	stmfd	sp!, {r4, r5, r6, r7, r8, r9, fp, ip, lr, pc}
	UNWIND(.pad #4)
	UNWIND(.save {r4, r5, r6, r7, r8, r9, fp, ip, lr})
	UNWIND(.setfp fp, ip, #-4)
	sub	fp, ip, #4
	add	r2, r0, #12288
	add	r6, r0, #20480
	mov	r4, #2208
	mov	r5, #4000
	ldr	r1, [r6, #216]
	mov	ip, #1
	ldr	r3, [r2, #1304]
	ldr	lr, [r2, #1300]
	ldrb	r2, [r6, #211]	@ zero_extendqisi2
	mla	r3, r4, r1, r3
	sub	r2, r2, #5
	clz	r2, r2
	mov	r2, r2, lsr #5
	ldr	r3, [r3, #28]
	mla	r5, r5, r3, lr
	ldr	r1, [r5, #2200]
	ldr	r3, [r5, #2196]
	cmp	r1, ip
	ldr	lr, [r5, #2204]
	add	r3, r3, #4
	mov	r3, ip, asl r3
	beq	.L1181
	bcc	.L1182
	cmp	r1, #2
	ldmnefd	sp, {r4, r5, r6, r7, r8, r9, fp, sp, pc}
	cmp	r2, #0
	add	r4, r0, #16384
	bne	.L1237
	ldr	r1, [r4, #3444]
	cmp	r1, #0
	bne	.L1215
	ldr	r2, [r4, #3484]
	ldr	r0, [r4, #3480]
	ldr	r1, [r4, #3492]
	cmp	r2, r0
	addcc	r1, r1, r3
	strcc	r1, [r4, #3488]
	bcs	.L1217
.L1218:
	add	r3, r1, r2
	str	r3, [r4, #3476]
	ldr	r0, [r6, #236]
	mov	r3, r3, asl #1
	cmp	r0, #0
	subeq	r3, r3, #1
	str	r3, [r4, #3464]
	ldrb	r0, [r6, #209]	@ zero_extendqisi2
	cmp	r0, #0
	bne	.L1221
	str	r3, [r4, #3460]
	str	r3, [r4, #3456]
	str	r3, [r4, #3452]
.L1214:
	str	r2, [r4, #3480]
	str	r1, [r4, #3492]
	ldmfd	sp, {r4, r5, r6, r7, r8, r9, fp, sp, pc}
.L1182:
	cmp	r2, #0
	add	lr, lr, #4
	add	r4, r0, #16384
	mov	ip, ip, asl lr
	bne	.L1188
	ldr	r3, [r4, #3444]
	cmp	r3, #0
	bne	.L1186
	ldr	lr, [r4, #3428]
	ldr	r1, [r4, #3432]
	mov	r2, lr
.L1187:
	ldr	r0, [r4, #3420]
	cmp	r0, r1
	bcs	.L1185
	rsb	r3, r0, r1
	cmp	r3, ip, lsr #1
	addcs	r2, r2, ip
	strcs	r2, [r4, #3436]
	bcc	.L1185
.L1189:
	ldrb	r3, [r6, #209]	@ zero_extendqisi2
	cmp	r3, #0
	bne	.L1191
.L1239:
	ldr	r3, [r4, #3424]
	add	r2, r2, r0
	str	r2, [r4, #3452]
	add	r3, r2, r3
	str	r3, [r4, #3456]
	cmp	r3, r2
	movge	r3, r2
	str	r3, [r4, #3464]
.L1192:
	ldr	r2, [r4, #3484]
	ldr	r1, [r4, #3480]
	str	r3, [r4, #3460]
	cmp	r2, r1
	strne	r2, [r4, #3480]
	ldr	r3, [r6, #236]
	cmp	r3, #0
	ldrne	r2, [r4, #3420]
	ldrne	r3, [r4, #3436]
	strne	r2, [r4, #3432]
	strne	r3, [r4, #3428]
	ldmfd	sp, {r4, r5, r6, r7, r8, r9, fp, sp, pc}
.L1181:
	cmp	r2, #0
	add	r4, r0, #16384
	movne	r3, #0
	strne	r3, [r4, #3488]
	bne	.L1196
	ldr	r1, [r4, #3444]
	cmp	r1, #0
	beq	.L1197
	mov	r3, r2
	str	r2, [r4, #3492]
	str	r2, [r4, #3480]
.L1198:
	str	r3, [r4, #3488]
.L1196:
	ldr	r3, [r5, #2216]
	cmp	r3, #0
	beq	.L1200
	ldr	r3, [r4, #3484]
	ldr	r0, [r4, #3488]
	add	r0, r3, r0
	str	r0, [r4, #3476]
	ldr	r7, [r6, #236]
	cmp	r7, #0
	bne	.L1202
	cmp	r0, #0
	beq	.L1203
	sub	r0, r0, #1
	str	r0, [r4, #3476]
.L1202:
	mov	r3, #0
	str	r3, [r4, #3508]
	ldr	r1, [r5, #2216]
	cmp	r1, r3
	bgt	.L1223
	cmp	r0, #0
	beq	.L1206
.L1240:
	sub	r8, r0, #1
	mov	r0, r8
	bl	__aeabi_uidiv
	mov	r9, r0
	mov	r0, r8
	str	r9, [r4, #3500]
	ldr	r1, [r5, #2216]
	bl	__aeabi_uidivmod
	ldr	r0, [r4, #3508]
	mul	r0, r0, r9
	str	r0, [r4, #3504]
	cmp	r1, #0
	str	r1, [r4, #3496]
	blt	.L1207
	add	r2, r5, #2208
	add	r1, r1, #1
	add	r2, r2, #8
	mov	r3, #0
.L1208:
	add	r3, r3, #1
	ldr	ip, [r2, #4]!
	cmp	r3, r1
	add	r0, r0, ip
	str	r0, [r4, #3504]
	bne	.L1208
.L1207:
	cmp	r7, #0
	ldreq	r3, [r5, #2208]
	addeq	r0, r0, r3
	streq	r0, [r4, #3504]
	ldrb	r3, [r6, #209]	@ zero_extendqisi2
	cmp	r3, #0
	bne	.L1210
	ldr	r2, [r4, #3468]
	ldr	r1, [r4, #3472]
	add	r2, r0, r2
	str	r2, [r4, #3452]
	ldr	r3, [r5, #2212]
	add	r3, r2, r3
	add	r0, r3, r1
	str	r0, [r4, #3456]
	cmp	r0, r2
	movge	r0, r2
	str	r0, [r4, #3464]
.L1211:
	ldr	r2, [r4, #3484]
	ldr	r3, [r4, #3488]
	str	r0, [r4, #3460]
	str	r2, [r4, #3480]
	str	r3, [r4, #3492]
	ldmfd	sp, {r4, r5, r6, r7, r8, r9, fp, sp, pc}
.L1186:
	ldr	lr, [r4, #3448]
	cmp	lr, #0
	beq	.L1238
.L1188:
	ldr	r0, [r4, #3420]
	mov	r3, #0
	mov	lr, r3
	mov	r2, r1
	str	r3, [r4, #3428]
	str	r3, [r4, #3432]
.L1185:
	cmp	r0, r1
	bls	.L1190
	rsb	r1, r1, r0
	cmp	r1, ip, lsr #1
	rsbhi	r2, ip, r2
	strhi	r2, [r4, #3436]
	bhi	.L1189
.L1190:
	str	lr, [r4, #3436]
	ldrb	r3, [r6, #209]	@ zero_extendqisi2
	cmp	r3, #0
	beq	.L1239
.L1191:
	ldrb	r3, [r6, #210]	@ zero_extendqisi2
	cmp	r3, #0
	add	r3, r2, r0
	streq	r3, [r4, #3452]
	strne	r3, [r4, #3456]
	str	r3, [r4, #3464]
	b	.L1192
.L1237:
	mov	r3, #0
	ldr	r2, [r4, #3484]
	mov	r1, r3
	str	r3, [r4, #3488]
	str	r3, [r4, #3456]
	str	r3, [r4, #3452]
	str	r3, [r4, #3460]
	str	r3, [r4, #3464]
	b	.L1214
.L1200:
	str	r3, [r4, #3476]
	ldr	r7, [r6, #236]
.L1203:
	mov	r0, #0
	str	r0, [r4, #3508]
	ldr	r3, [r5, #2216]
	cmp	r3, r0
	ble	.L1206
.L1223:
	add	ip, r5, #2208
	mov	r3, #0
	add	ip, ip, #8
	mov	r2, r3
.L1205:
	ldr	r1, [ip, #4]!
	add	r2, r2, #1
	add	r3, r3, r1
	str	r3, [r4, #3508]
	ldr	r1, [r5, #2216]
	cmp	r1, r2
	bgt	.L1205
	cmp	r0, #0
	bne	.L1240
.L1206:
	mov	r0, #0
	str	r0, [r4, #3504]
	b	.L1207
.L1210:
	ldrb	r3, [r6, #210]	@ zero_extendqisi2
	cmp	r3, #0
	ldrne	r2, [r5, #2212]
	ldreq	r3, [r4, #3468]
	ldrne	r3, [r4, #3468]
	addne	r0, r0, r2
	addeq	r0, r0, r3
	streq	r0, [r4, #3452]
	addne	r0, r0, r3
	strne	r0, [r4, #3456]
	str	r0, [r4, #3464]
	b	.L1211
.L1197:
	ldr	r1, [r4, #3484]
	ldr	r2, [r4, #3480]
	cmp	r1, r2
	bcs	.L1199
	ldr	r2, [r4, #3492]
	add	r3, r3, r2
	str	r3, [r4, #3488]
	b	.L1196
.L1221:
	ldrb	r0, [r6, #210]	@ zero_extendqisi2
	str	r3, [r4, #3460]
	cmp	r0, #0
	streq	r3, [r4, #3452]
	strne	r3, [r4, #3456]
	b	.L1214
.L1215:
	str	r2, [r4, #3480]
	mov	r1, r2
	str	r2, [r4, #3492]
	ldr	r2, [r4, #3484]
.L1217:
	str	r1, [r4, #3488]
	b	.L1218
.L1238:
	ldr	r3, [r4, #3452]
	mov	r2, r1
	str	lr, [r4, #3428]
	mov	r1, r3
	str	r3, [r4, #3432]
	b	.L1187
.L1199:
	ldr	r3, [r4, #3492]
	b	.L1198
	UNWIND(.fnend)
	.size	DecPOC, .-DecPOC
	.align	2
	.global	CalcPicNum
	.type	CalcPicNum, %function
CalcPicNum:
	UNWIND(.fnstart)
	@ args = 0, pretend = 0, frame = 0
	@ frame_needed = 1, uses_anonymous_args = 0
	UNWIND(.movsp ip)
	mov	ip, sp
	stmfd	sp!, {r4, r5, r6, r7, r8, fp, ip, lr, pc}
	UNWIND(.pad #4)
	UNWIND(.save {r4, r5, r6, r7, r8, fp, ip, lr})
	UNWIND(.setfp fp, ip, #-4)
	sub	fp, ip, #4
	add	r3, r0, #20480
	add	ip, r0, #12288
	mov	r4, #2208
	mov	lr, #4000
	ldr	r2, [r3, #216]
	add	r6, r0, #57344
	ldr	r1, [ip, #1304]
	mov	r7, #1
	ldr	r3, [ip, #1300]
	mla	r1, r4, r2, r1
	ldrb	r2, [r6, #3331]	@ zero_extendqisi2
	cmp	r2, #0
	ldr	r1, [r1, #28]
	mla	r3, lr, r1, r3
	ldr	r3, [r3, #2196]
	add	r3, r3, #4
	mov	r7, r7, asl r3
	add	r3, r0, #24576
	beq	.L1242
	sub	r5, r2, #1
	sub	r4, r2, #2
	ldr	r2, [r3, #2144]
	clz	r5, r5
	clz	r4, r4
	cmp	r2, #0
	mov	r5, r5, lsr #5
	addne	lr, r0, #26368
	mov	r4, r4, lsr #5
	movne	r1, #0
	addne	lr, lr, #212
	beq	.L1262
.L1261:
	ldr	ip, [lr, #4]!
	ldrb	r2, [ip, #2]	@ zero_extendqisi2
	cmp	r2, #0
	beq	.L1256
	ldr	r2, [ip, #660]
	ldr	r8, [r6, #3992]
	cmp	r2, r8
	rsbhi	r2, r7, r2
	str	r2, [ip, #664]
	ldr	r2, [lr]
	ldrb	ip, [r2, #2]	@ zero_extendqisi2
	tst	ip, #1
	beq	.L1259
	ldr	r8, [r2, #744]
	bic	r8, r8, #-16777216
	bic	r8, r8, #255
	cmp	r8, #65536
	ldreq	ip, [r2, #664]
	addeq	ip, r5, ip, lsl #1
	streq	ip, [r2, #752]
	ldreq	r2, [lr]
	ldreqb	ip, [r2, #2]	@ zero_extendqisi2
.L1259:
	tst	ip, #2
	beq	.L1256
	ldr	ip, [r2, #784]
	bic	ip, ip, #-16777216
	bic	ip, ip, #255
	cmp	ip, #65536
	ldreq	ip, [r2, #664]
	addeq	ip, r4, ip, lsl #1
	streq	ip, [r2, #792]
.L1256:
	ldr	r2, [r3, #2144]
	add	r1, r1, #1
	cmp	r2, r1
	bhi	.L1261
.L1262:
	ldr	r2, [r3, #2148]
	cmp	r2, #0
	beq	.L1286
	add	r0, r0, #26624
	mov	r2, #0
	add	r0, r0, #20
.L1267:
	ldr	ip, [r0, #4]!
	add	r2, r2, #1
	ldrb	r1, [ip, #2]	@ zero_extendqisi2
	cmp	r1, #0
	beq	.L1264
	tst	r1, #1
	beq	.L1265
	ldr	lr, [ip, #744]
	bic	lr, lr, #-16777216
	bic	lr, lr, #255
	cmp	lr, #256
	ldreq	r1, [ip, #668]
	addeq	r1, r5, r1, lsl #1
	streq	r1, [ip, #748]
	ldreq	ip, [r0]
	ldreqb	r1, [ip, #2]	@ zero_extendqisi2
.L1265:
	tst	r1, #2
	beq	.L1264
	ldr	r1, [ip, #784]
	bic	r1, r1, #-16777216
	bic	r1, r1, #255
	cmp	r1, #256
	ldreq	r1, [ip, #668]
	addeq	r1, r4, r1, lsl #1
	streq	r1, [ip, #788]
.L1264:
	ldr	r1, [r3, #2148]
	cmp	r1, r2
	bhi	.L1267
	ldmfd	sp, {r4, r5, r6, r7, r8, fp, sp, pc}
.L1242:
	ldr	r1, [r3, #2144]
	cmp	r1, #0
	addne	ip, r0, #26368
	addne	ip, ip, #212
	bne	.L1251
.L1252:
	ldr	r2, [r3, #2148]
	cmp	r2, #0
	beq	.L1287
	add	r0, r0, #26624
	mov	r2, #0
	add	r0, r0, #20
	b	.L1254
.L1253:
	ldr	r1, [r3, #2148]
	cmp	r1, r2
	bls	.L1288
.L1254:
	ldr	r1, [r0, #4]!
	add	r2, r2, #1
	ldrb	ip, [r1, #2]	@ zero_extendqisi2
	cmp	ip, #3
	bne	.L1253
	ldr	ip, [r1, #704]
	bic	ip, ip, #-16777216
	bic	ip, ip, #255
	cmp	ip, #256
	ldreq	ip, [r1, #668]
	streq	ip, [r1, #708]
	ldr	r1, [r3, #2148]
	cmp	r1, r2
	bhi	.L1254
.L1288:
	ldmfd	sp, {r4, r5, r6, r7, r8, fp, sp, pc}
.L1289:
	ldr	lr, [r1, #704]
	bic	lr, lr, #-16777216
	bic	lr, lr, #255
	cmp	lr, #65536
	bne	.L1248
	ldr	lr, [r1, #660]
	ldr	r4, [r6, #3992]
	rsb	r5, r7, lr
	cmp	lr, r4
	strhi	r5, [r1, #664]
	strls	lr, [r1, #664]
	ldr	r1, [ip]
	ldr	lr, [r1, #664]
	str	lr, [r1, #712]
.L1248:
	ldr	r1, [r3, #2144]
	add	r2, r2, #1
	cmp	r1, r2
	bls	.L1252
.L1251:
	ldr	r1, [ip, #4]!
	ldrb	lr, [r1, #2]	@ zero_extendqisi2
	cmp	lr, #3
	bne	.L1248
	b	.L1289
.L1287:
	ldmfd	sp, {r4, r5, r6, r7, r8, fp, sp, pc}
.L1286:
	ldmfd	sp, {r4, r5, r6, r7, r8, fp, sp, pc}
	UNWIND(.fnend)
	.size	CalcPicNum, .-CalcPicNum
	.align	2
	.global	IsOutDPB
	.type	IsOutDPB, %function
IsOutDPB:
	UNWIND(.fnstart)
	@ args = 0, pretend = 0, frame = 0
	@ frame_needed = 1, uses_anonymous_args = 0
	UNWIND(.movsp ip)
	mov	ip, sp
	stmfd	sp!, {fp, ip, lr, pc}
	UNWIND(.pad #4)
	UNWIND(.save {fp, ip, lr})
	UNWIND(.setfp fp, ip, #-4)
	sub	fp, ip, #4
	cmp	r1, #0
	beq	.L1295
	add	r3, r0, #24576
	ldr	ip, [r3, #2140]
	cmp	ip, #0
	beq	.L1295
	ldr	r3, [r3, #1944]
	cmp	r3, r1
	beq	.L1297
	add	r0, r0, #26368
	mov	r3, #0
	add	r0, r0, #152
	b	.L1292
.L1293:
	ldr	r2, [r0, #4]!
	cmp	r2, r1
	beq	.L1297
.L1292:
	add	r3, r3, #1
	cmp	r3, ip
	bne	.L1293
.L1295:
	mov	r0, #1
	ldmfd	sp, {fp, sp, pc}
.L1297:
	mov	r0, #0
	ldmfd	sp, {fp, sp, pc}
	UNWIND(.fnend)
	.size	IsOutDPB, .-IsOutDPB
	.align	2
	.global	WritePicMsg
	.type	WritePicMsg, %function
WritePicMsg:
	UNWIND(.fnstart)
	@ args = 0, pretend = 0, frame = 8
	@ frame_needed = 1, uses_anonymous_args = 0
	UNWIND(.movsp ip)
	mov	ip, sp
	stmfd	sp!, {r4, r5, r6, r7, r8, r9, r10, fp, ip, lr, pc}
	UNWIND(.pad #4)
	UNWIND(.save {r4, r5, r6, r7, r8, r9, r10, fp, ip, lr})
	UNWIND(.setfp fp, ip, #-4)
	sub	fp, ip, #4
	UNWIND(.pad #20)
	sub	sp, sp, #20
	subs	r4, r0, #0
	beq	.L1333
	add	r9, r4, #57344
	add	lr, r4, #12288
	ldr	r1, .L1336
	mov	r0, #2
	ldr	ip, [r9, #4052]
	add	r5, r4, #61440
	ldrb	r3, [r9, #3331]	@ zero_extendqisi2
	mov	r6, lr
	ldr	r2, [r9, #4000]
	mov	r7, #0
	str	ip, [sp, #4]
	add	r8, r4, #16384
	ldr	ip, [r9, #3492]
	str	lr, [fp, #-52]
	str	ip, [sp]
	bl	dprint_vfmw
	add	r3, r4, #61184
	str	r7, [r5, #2604]
	movw	r2, #62880
	ldrd	r0, [r3, #88]
	strd	r0, [r4, r2]
	ldr	r3, [r5, #2600]
	str	r3, [r5, #2360]
	ldr	r3, [r9, #3456]
	str	r3, [r5, #2136]
	ldr	r3, [r9, #3460]
	str	r3, [r5, #2140]
	ldr	r3, [r9, #3480]
	str	r3, [r5, #2144]
	ldr	r3, [r9, #3484]
	str	r3, [r5, #2148]
	ldr	r3, [r9, #4000]
	str	r3, [r5, #1448]
	ldrb	r3, [r9, #3331]	@ zero_extendqisi2
	strb	r3, [r5, #1416]
	ldrb	r3, [r6, #1327]	@ zero_extendqisi2
	str	r3, [r5, #1464]
	ldr	r3, [r9, #4036]
	str	r3, [r5, #1452]
	ldr	r3, [r9, #4040]
	str	r3, [r5, #1456]
	ldr	r3, [r8, #460]
	add	r3, r3, #1
	str	r3, [r5, #1460]
	ldrb	r3, [r6, #1326]	@ zero_extendqisi2
	strb	r3, [r5, #1419]
	ldr	r3, [r8, #1272]
	str	r3, [r5, #1468]
	ldrb	r3, [r8, #1212]	@ zero_extendqisi2
	str	r3, [r5, #1472]
	ldr	r3, [r6, #1348]
	strb	r3, [r5, #1417]
	ldrb	r3, [r8, #1216]	@ zero_extendqisi2
	ldr	r0, [r5, #2680]
	str	r3, [r5, #1476]
	ldr	r3, [r8, #3464]
	str	r3, [r5, #1480]
	ldr	r3, [r8, #3452]
	str	r3, [r5, #1484]
	ldr	r3, [r8, #3456]
	str	r3, [r5, #1488]
	ldr	r3, [r9, #3984]
	ldr	r1, [r3, #656]
	bl	FSP_GetLogicFs
	subs	r10, r0, #0
	beq	.L1334
	ldr	r2, [r10, #28]
	ldr	r3, [r10, #32]
	cmp	r2, #0
	beq	.L1303
	cmp	r3, #0
	beq	.L1303
	add	r3, r4, #63232
	add	r2, r4, #62976
	add	r2, r2, #204
	ldr	r0, [r5, #2680]
	mov	r1, r3
	add	r3, r3, #76
	add	r1, r1, #204
	add	r6, r4, #24576
	bl	FSP_GetDecFsAddrTab
	ldr	r3, [r10, #28]
	add	r2, r4, #63232
	add	r1, r4, #63488
	add	r2, r2, #208
	add	r1, r1, #80
	ldr	r3, [r3, #4]
	ldr	r0, [r5, #2680]
	str	r3, [r5, #1724]
	bl	FSP_GetPmvAddrTab
	ldr	r3, [r9, #4052]
	str	r3, [r5, #1732]
	ldr	r3, [r10, #12]
	str	r3, [r5, #2132]
	ldr	r3, [r10, #32]
	ldr	r3, [r3, #8]
	str	r3, [r5, #1728]
	ldr	r3, [r10, #32]
	ldr	r3, [r3, #60]
	str	r3, [r5, #1736]
	ldr	r3, [r6, #2412]
	cmp	r3, #0
	str	r3, [fp, #-48]
	str	r3, [r5, #2352]
	beq	.L1309
	add	lr, r4, #63488
	add	r9, r4, #26624
	add	r1, r4, #26880
	ldr	r10, [fp, #-48]
	mov	ip, r9
	mov	r0, lr
	mov	r2, lr
	add	r9, r9, #168
	add	lr, lr, #108
	add	ip, ip, #232
	add	r0, r0, #172
	add	r1, r1, #40
	add	r2, r2, #236
	mov	r3, r7
.L1308:
	ldr	r7, [r9, #4]!
	add	r3, r3, #1
	cmp	r3, r10
	str	r7, [lr, #4]!
	ldr	r7, [ip, #4]!
	str	r7, [r0, #4]!
	ldr	r7, [r1, #4]!
	str	r7, [r2, #4]!
	bne	.L1308
.L1309:
	ldr	r3, [fp, #-52]
	ldrb	r3, [r3, #1333]	@ zero_extendqisi2
	cmp	r3, #0
	bne	.L1335
	ldrb	r1, [r8, #1230]	@ zero_extendqisi2
	cmp	r1, #0
	bne	.L1310
	add	ip, r4, #62720
	ldr	r0, .L1336+4
	add	ip, ip, #208
.L1311:
	and	r3, r1, #3
	add	r1, r1, #1
	cmp	r1, #24
	ldr	r3, [r0, r3, asl #2]
	bic	r2, r3, #16711680
	ubfx	lr, r3, #8, #8
	bic	r2, r2, #65280
	mov	r3, r3, lsr #8
	orr	r2, r2, lr, asl #16
	and	r3, r3, #65280
	orr	r3, r2, r3
	str	r3, [ip, #4]!
	bne	.L1311
	add	r7, r4, #62976
	mov	lr, #0
	add	r7, r7, #52
.L1312:
	add	r3, lr, #1
	and	r2, lr, #14
	and	r3, r3, #15
	add	lr, lr, #2
	add	r2, r0, r2, lsl #2
	cmp	lr, #32
	add	r3, r0, r3, lsl #2
	ldr	r1, [r2, #16]
	ldr	ip, [r3, #16]
	ubfx	r3, r1, #8, #8
	mov	r2, r1, lsr #24
	uxtb	r10, r1
	uxtb	r9, ip
	mov	r8, ip, lsr #16
	orr	r3, r3, r2, asl #8
	mov	r1, r1, lsr #8
	mov	r9, r9, asl #16
	and	r2, ip, #-16777216
	orr	r8, r9, r8, asl #24
	ubfx	ip, ip, #8, #8
	orr	r3, r3, r2
	orr	r8, r8, r10
	and	r1, r1, #65280
	orr	r3, r3, ip, asl #16
	orr	r2, r8, r1
	stmia	r7, {r2, r3}
	add	r7, r7, #8
	bne	.L1312
.L1317:
	ldr	r3, [fp, #-48]
	cmp	r3, #0
	beq	.L1314
	add	r9, r4, #63744
	add	r7, r4, #26624
	add	r7, r7, #172
	mov	r8, #0
	mov	r4, r9
	add	r9, r9, #160
	add	r4, r4, #224
.L1320:
	ldr	r2, [r7]
	mov	r1, #0
	ldr	r0, [r5, #2680]
	add	r8, r8, #1
	bl	FSP_GetStoreType
	adds	r0, r0, #0
	movne	r0, #1
	str	r0, [r9, #4]!
	ldr	r3, [r7], #4
	str	r3, [r4, #4]!
	ldr	r3, [r6, #2412]
	cmp	r3, r8
	bhi	.L1320
.L1314:
	mov	r0, #0
.L1330:
	sub	sp, fp, #40
	ldmfd	sp, {r4, r5, r6, r7, r8, r9, r10, fp, sp, pc}
.L1335:
	ldrb	r1, [r8, #1230]	@ zero_extendqisi2
.L1310:
	cmp	r1, #1
	add	ip, r4, #62720
	mov	r0, #0
	add	ip, ip, #208
	beq	.L1315
.L1318:
	add	r3, r0, #3888
	add	r0, r0, #1
	add	r3, r3, #2
	cmp	r0, #24
	add	r3, r4, r3, lsl #2
	ldr	r3, [r3, #8]
	bic	r2, r3, #16711680
	ubfx	r1, r3, #8, #8
	bic	r2, r2, #65280
	mov	r3, r3, lsr #8
	orr	r2, r2, r1, asl #16
	and	r3, r3, #65280
	orr	r3, r2, r3
	str	r3, [ip, #4]!
	bne	.L1318
	add	r9, r4, #62976
	mov	r10, #1
	add	r9, r9, #52
	mov	r8, #0
.L1319:
	mov	r2, r8, lsr #3
	mov	r3, r8, asl #1
	and	r1, r10, #15
	and	r0, r3, #14
	mov	r3, r2, asl #4
	add	r8, r8, #1
	add	r2, r3, r1
	add	r3, r3, r0
	add	r2, r2, #3904
	add	r3, r3, #3904
	add	r2, r2, #10
	add	r3, r3, #10
	cmp	r8, #16
	add	r10, r10, #2
	add	r2, r4, r2, lsl #2
	add	r3, r4, r3, lsl #2
	ldr	r1, [r2, #8]
	ldr	r3, [r3, #8]
	ubfx	r7, r1, #8, #8
	and	r0, r1, #-16777216
	mov	r2, r1, lsr #16
	uxtb	r1, r1
	mov	ip, r3, lsr #24
	uxtb	lr, r3
	mov	r2, r2, asl #24
	mov	ip, ip, asl #8
	orr	r2, r2, r1, asl #16
	orr	ip, ip, r7, asl #16
	mov	r1, r3, lsr #8
	orr	r2, r2, lr
	and	r1, r1, #65280
	ubfx	r3, r3, #8, #8
	orr	r0, ip, r0
	orr	r2, r2, r1
	orr	r3, r0, r3
	stmia	r9, {r2, r3}
	add	r9, r9, #8
	bne	.L1319
	b	.L1317
.L1315:
	add	r3, r0, #4864
	add	r0, r0, #1
	add	r3, r3, #30
	cmp	r0, #24
	add	r3, r4, r3, lsl #2
	ldr	r3, [r3, #4]
	bic	r2, r3, #16711680
	ubfx	r1, r3, #8, #8
	bic	r2, r2, #65280
	mov	r3, r3, lsr #8
	orr	r2, r2, r1, asl #16
	and	r3, r3, #65280
	orr	r3, r2, r3
	str	r3, [ip, #4]!
	bne	.L1315
	add	ip, r4, #62976
	mov	lr, #1
	add	ip, ip, #52
	mov	r0, #0
.L1316:
	mov	r2, r0, lsr #3
	mov	r3, r0, asl #1
	and	r1, lr, #15
	and	r7, r3, #14
	mov	r3, r2, asl #4
	add	r0, r0, #1
	add	r2, r3, r1
	add	r3, r3, r7
	add	r2, r2, #4864
	add	r3, r3, #4864
	add	r2, r2, #54
	add	r3, r3, #54
	cmp	r0, #16
	add	lr, lr, #2
	add	r2, r4, r2, lsl #2
	add	r3, r4, r3, lsl #2
	ldr	r2, [r2, #4]
	ldr	r3, [r3, #4]
	ubfx	r10, r2, #8, #8
	and	r1, r2, #-16777216
	mov	r8, r2, lsr #16
	uxtb	r2, r2
	mov	r7, r3, lsr #24
	uxtb	r9, r3
	mov	r8, r8, asl #24
	mov	r7, r7, asl #8
	orr	r8, r8, r2, asl #16
	orr	r7, r7, r10, asl #16
	mov	r2, r3, lsr #8
	orr	r8, r8, r9
	and	r2, r2, #65280
	ubfx	r3, r3, #8, #8
	orr	r1, r7, r1
	orr	r2, r8, r2
	orr	r3, r1, r3
	stmia	ip, {r2, r3}
	add	ip, ip, #8
	bne	.L1316
	b	.L1317
.L1303:
	ldr	r1, .L1336+8
	mov	r0, #0
	bl	dprint_vfmw
	mvn	r0, #0
	b	.L1330
.L1333:
	movw	r3, #6919
	ldr	r2, .L1336+12
	ldr	r1, .L1336+16
	bl	dprint_vfmw
	mvn	r0, #0
	b	.L1330
.L1334:
	ldr	r3, [r9, #3984]
	ldr	r1, .L1336+20
	ldr	r2, [r3, #656]
	bl	dprint_vfmw
	mvn	r0, #0
	b	.L1330
.L1337:
	.align	2
.L1336:
	.word	.LC39
	.word	.LANCHOR1
	.word	.LC41
	.word	.LC8
	.word	.LC9
	.word	.LC40
	UNWIND(.fnend)
	.size	WritePicMsg, .-WritePicMsg
	.align	2
	.global	UpdatePicQpInf
	.type	UpdatePicQpInf, %function
UpdatePicQpInf:
	UNWIND(.fnstart)
	@ args = 0, pretend = 0, frame = 0
	@ frame_needed = 1, uses_anonymous_args = 0
	UNWIND(.movsp ip)
	mov	ip, sp
	stmfd	sp!, {fp, ip, lr, pc}
	UNWIND(.pad #4)
	UNWIND(.save {fp, ip, lr})
	UNWIND(.setfp fp, ip, #-4)
	sub	fp, ip, #4
	ldr	r2, [r1, #24]
	ldr	r3, [r1, #28]
	cmp	r2, r0
	movlt	r2, r0
	cmp	r3, r0
	str	r2, [r1, #24]
	movge	r3, r0
	str	r3, [r1, #28]
	ldmfd	sp, {fp, sp, pc}
	UNWIND(.fnend)
	.size	UpdatePicQpInf, .-UpdatePicQpInf
	.align	2
	.global	WriteSliceMsg
	.type	WriteSliceMsg, %function
WriteSliceMsg:
	UNWIND(.fnstart)
	@ args = 0, pretend = 0, frame = 24
	@ frame_needed = 1, uses_anonymous_args = 0
	UNWIND(.movsp ip)
	mov	ip, sp
	stmfd	sp!, {r4, r5, r6, r7, r8, r9, r10, fp, ip, lr, pc}
	UNWIND(.pad #4)
	UNWIND(.save {r4, r5, r6, r7, r8, r9, r10, fp, ip, lr})
	UNWIND(.setfp fp, ip, #-4)
	sub	fp, ip, #4
	UNWIND(.pad #28)
	sub	sp, sp, #28
	add	r8, r0, #61440
	add	lr, r0, #12288
	movw	r1, #4060
	ldr	r3, [r8, #2604]
	mov	r4, r0
	ldr	ip, [r8, #2600]
	mov	r2, r3
	str	r3, [fp, #-48]
	mul	r1, r1, r2
	add	r3, r3, #1
	str	r3, [r8, #2604]
	ldr	r3, [lr, #1284]
	add	r6, ip, r1
	sub	r3, r3, #1
	cmp	r2, r3
	addcc	r3, r1, #4048
	addcc	r3, r3, #12
	movcs	r3, #0
	addcc	r3, ip, r3
	str	r3, [r6, #4056]
	ldr	r2, [r0, #368]
	ldrb	r0, [r2]	@ zero_extendqisi2
	ldr	r3, [r2, #68]
	cmp	r0, #1
	cmpls	r0, r3
	bcs	.L1342
	add	r5, r0, #3
	add	r5, r6, r5, lsl #2
.L1343:
	mov	r3, r0, asl #5
	sub	r3, r3, r0, asl #2
	add	r0, r0, #1
	add	r2, r2, r3
	ldr	r2, [r2, #24]
	str	r2, [r5, #4]!
	ldr	r2, [r4, #368]
	add	r2, r2, r3
	ldr	r2, [r2, #20]
	str	r2, [r5, #-8]
	ldr	r2, [r4, #368]
	add	r3, r2, r3
	ldr	r3, [r3, #28]
	str	r3, [r5, #8]
	ldr	r2, [r4, #368]
	ldr	r3, [r2, #68]
	cmp	r3, r0
	movhi	r7, #1
	movls	r7, #0
	cmp	r0, #1
	movhi	r7, #0
	cmp	r7, #0
	bne	.L1343
.L1342:
	cmp	r3, #1
	bhi	.L1348
	add	r3, r3, #3
	add	r0, r6, #20
	mov	r2, #0
	add	r3, r6, r3, lsl #2
.L1347:
	str	r2, [r3, #4]!
	cmp	r3, r0
	str	r2, [r3, #-8]
	str	r2, [r3, #8]
	bne	.L1347
.L1348:
	add	r7, r4, #57344
	add	r9, r4, #16384
	add	r5, r4, #20480
	ldrb	r3, [r7, #3337]	@ zero_extendqisi2
	strb	r3, [r6, #1]
	ldr	r3, [r9, #1260]
	ldr	r0, [r5, #1816]
	add	r3, r3, #26
	add	r3, r3, r0
	str	r3, [r6, #32]
	ldr	r2, [r5, #1812]
	str	r2, [r6, #36]
	ldr	r2, [r5, #264]
	str	r2, [r6, #40]
	ldr	r2, [r5, #260]
	str	r2, [r6, #44]
	ldrb	r2, [r5, #208]	@ zero_extendqisi2
	strb	r2, [ip, r1]
	ldr	r2, [r5, #256]
	str	r2, [r6, #48]
	ldrb	r2, [r5, #214]	@ zero_extendqisi2
	strb	r2, [r6, #2]
	ldrb	r2, [lr, #1328]	@ zero_extendqisi2
	strb	r2, [r6, #3]
	ldr	r2, [r5, #248]
	str	r2, [r6, #52]
	ldr	r2, [r5, #252]
	str	r2, [r6, #56]
	ldrb	r2, [r5, #208]	@ zero_extendqisi2
	cmp	r2, #1
	beq	.L1447
	cmp	r2, #0
	ldreqb	r2, [r9, #1214]	@ zero_extendqisi2
	movne	r2, #0
	strb	r2, [r6, #4]
.L1349:
	ldr	r2, [r9, #1264]
	str	r2, [r6, #60]
	ldr	r2, [r9, #1268]
	str	r2, [r6, #64]
	ldr	r2, [r5, #1824]
	str	r2, [r6, #68]
	ldr	r2, [r5, #1828]
	str	r2, [r6, #72]
	ldr	r2, [r5, #1820]
	str	r2, [r6, #76]
	ldrb	r2, [r5, #209]	@ zero_extendqisi2
	cmp	r2, #0
	bne	.L1351
	ldr	r10, [r7, #3984]
	ldr	r2, [fp, #-48]
	ldr	r1, [r8, #2604]
	ldr	r0, [r10, #700]
	mla	r0, r0, r2, r3
	bl	__aeabi_uidiv
	str	r0, [r10, #736]
.L1352:
	ldr	r3, [fp, #-48]
	cmp	r3, #0
	ldr	r3, [r7, #3984]
	bne	.L1354
	ldr	r2, [r6, #32]
	str	r2, [r3, #728]
	ldr	r3, [r7, #3984]
	ldr	r2, [r6, #32]
	str	r2, [r3, #732]
.L1355:
	ldrb	r3, [r5, #208]	@ zero_extendqisi2
	cmp	r3, #2
	beq	.L1393
	ldr	ip, [r5, #248]
	cmp	ip, #0
	beq	.L1396
	add	r3, r4, #24576
	ldr	r3, [r3, #2548]
	ldr	r1, [r3, #36]
	ldrb	r3, [r1]	@ zero_extendqisi2
	cmp	r3, #0
	addne	r2, r4, #26880
	movne	r3, #0
	addne	r2, r2, #244
	bne	.L1361
	b	.L1359
.L1363:
	ldr	r1, [r2, #4]!
	ldr	r1, [r1, #36]
	ldrb	r0, [r1]	@ zero_extendqisi2
	cmp	r0, #0
	beq	.L1359
.L1361:
	add	r3, r3, #1
	cmp	r3, ip
	bne	.L1363
	mov	r3, #0
	str	r3, [fp, #-52]
.L1358:
	ldr	ip, [r5, #252]
	cmp	ip, #0
	beq	.L1397
	add	r3, r4, #24576
	ldr	r3, [r3, #2680]
	ldr	r1, [r3, #36]
	ldrb	r3, [r1]	@ zero_extendqisi2
	cmp	r3, #0
	addne	r2, r4, #27136
	movne	r3, #0
	addne	r2, r2, #120
	bne	.L1367
	b	.L1365
.L1369:
	ldr	r1, [r2, #4]!
	ldr	r1, [r1, #36]
	ldrb	r0, [r1]	@ zero_extendqisi2
	cmp	r0, #0
	beq	.L1365
.L1367:
	add	r3, r3, #1
	cmp	r3, ip
	bne	.L1369
	mov	r3, #0
	str	r3, [fp, #-56]
.L1364:
	ldrb	r2, [r7, #3331]	@ zero_extendqisi2
	ldr	r3, [r5, #248]
	cmp	r2, #0
	beq	.L1370
	cmp	r3, #0
	beq	.L1385
	add	r7, r4, #26880
	mov	r3, #0
	mov	r10, r6
	str	r6, [fp, #-60]
	str	r4, [fp, #-64]
	mov	r6, r5
	add	r7, r7, #244
	ldr	r4, [fp, #-52]
	mov	r5, r3
	b	.L1384
.L1382:
	strb	r1, [r10, #1630]
	ldr	r1, [r7]
	ldrb	r1, [r1, #1]	@ zero_extendqisi2
	strb	r1, [r10, #1631]
	ldr	r1, [r7]
	ldr	r1, [r1, #12]
	str	r1, [r10, #1656]
.L1383:
	ldr	r1, [r6, #248]
	add	r5, r5, #1
	add	r7, r7, #4
	add	r10, r10, #36
	cmp	r1, r5
	bls	.L1448
.L1384:
	ldr	r1, [r7]
	ldr	r0, [r8, #2680]
	ldr	r1, [r1, #36]
	ldr	r1, [r1, #656]
	bl	FSP_GetLogicFs
	ldr	r1, [r7]
	ldr	r1, [r1, #36]
	ldr	r1, [r1, #692]
	str	r1, [r10, #1636]
	ldr	r1, [r7]
	ldr	r1, [r1, #36]
	ldrb	r1, [r1, #1]	@ zero_extendqisi2
	strb	r1, [r10, #1625]
	ldr	r1, [r7]
	ldr	r1, [r1, #36]
	ldrb	r1, [r1]	@ zero_extendqisi2
	cmp	r1, #1
	moveq	r0, r4
	beq	.L1381
	cmp	r0, #0
	ldrne	r1, [r0, #28]
	ldrne	r0, [r1, #4]
.L1381:
	str	r0, [r10, #1640]
	ldr	r1, [r7]
	ldr	r1, [r1, #36]
	ldr	r1, [r1, #696]
	str	r1, [r10, #1644]
	ldr	r1, [r7]
	ldr	r1, [r1, #36]
	ldr	r1, [r1, #672]
	str	r1, [r10, #1632]
	ldr	r1, [r7]
	ldrb	r1, [r1]	@ zero_extendqisi2
	strb	r1, [r10, #1624]
	ldr	r1, [r7]
	ldr	r1, [r1, #36]
	ldrb	r1, [r1, #704]	@ zero_extendqisi2
	strb	r1, [r10, #1626]
	ldr	r1, [r7]
	ldrb	r1, [r1]	@ zero_extendqisi2
	cmp	r1, #1
	bne	.L1382
	strb	r1, [r10, #1628]
	ldr	r1, [r7]
	ldrb	r1, [r1, #1]	@ zero_extendqisi2
	strb	r1, [r10, #1629]
	ldr	r1, [r7]
	ldr	r1, [r1, #12]
	str	r1, [r10, #1652]
	b	.L1383
.L1448:
	mov	r5, r6
	ldr	r4, [fp, #-64]
	ldr	r6, [fp, #-60]
.L1385:
	ldrb	r3, [r5, #208]	@ zero_extendqisi2
	cmp	r3, #1
	beq	.L1449
.L1373:
	add	r2, r4, #26880
	add	r3, r6, #3920
	add	r0, r6, #4048
	add	r2, r2, #112
	add	r3, r3, #4
	add	r0, r0, #4
.L1390:
	ldr	r1, [r2, #4]!
	str	r1, [r3, #4]!
	cmp	r3, r0
	bne	.L1390
	ldrb	r3, [r9, #1214]	@ zero_extendqisi2
	cmp	r3, #0
	str	r3, [r8, #1716]
	ldr	r3, [r9, #1256]
	str	r3, [r8, #1720]
	beq	.L1391
	ldrb	r2, [r5, #208]	@ zero_extendqisi2
	cmp	r2, #0
	beq	.L1392
.L1391:
	cmp	r3, #1
	beq	.L1450
.L1393:
	ldr	r3, [fp, #-48]
	mov	r2, #0
	ldr	r1, [r4, #368]
	add	r3, r3, #15488
	add	r3, r3, #60
	str	r1, [r4, r3, asl #2]
	str	r2, [r4, #368]
	sub	sp, fp, #40
	ldmfd	sp, {r4, r5, r6, r7, r8, r9, r10, fp, sp, pc}
.L1354:
	ldr	r1, [r6, #32]
	ldr	r0, [r3, #728]
	ldr	r2, [r3, #732]
	cmp	r0, r1
	movlt	r0, r1
	cmp	r2, r1
	str	r0, [r3, #728]
	movge	r2, r1
	str	r2, [r3, #732]
	b	.L1355
.L1351:
	ldr	r10, [r7, #3984]
	ldrb	r2, [r5, #210]	@ zero_extendqisi2
	ldr	r1, [r8, #2604]
	ldr	r0, [r10, #700]
	cmp	r2, #0
	ldr	r2, [fp, #-48]
	mla	r0, r0, r2, r3
	bne	.L1353
	bl	__aeabi_uidiv
	str	r0, [r10, #776]
	b	.L1352
.L1353:
	bl	__aeabi_uidiv
	str	r0, [r10, #816]
	b	.L1352
.L1359:
	ldr	r1, [r1, #656]
	ldr	r0, [r8, #2680]
	bl	FSP_GetLogicFs
	subs	r3, r0, #0
	movweq	r2, #7282
	beq	.L1443
	ldr	r3, [r3, #28]
	ldr	r3, [r3, #4]
	str	r3, [fp, #-52]
	b	.L1358
.L1450:
	ldrb	r3, [r5, #208]	@ zero_extendqisi2
	cmp	r3, #1
	bne	.L1393
.L1392:
	ldr	r3, [r5, #268]
	add	r9, r4, #20736
	add	lr, r4, #21504
	add	r7, r4, #20992
	add	r0, r4, #21760
	mov	r8, r9
	str	r3, [r6, #80]
	mov	ip, lr
	ldr	r10, [r5, #272]
	add	r9, r9, #16
	add	r8, r8, #144
	add	r7, r7, #16
	add	lr, lr, #16
	add	ip, ip, #144
	add	r0, r0, #16
	mov	r1, r6
	mov	r3, r6
	mov	r2, #0
	str	r6, [fp, #-52]
	str	r10, [r1, #84]!
.L1394:
	ldr	r10, [r9, #4]!
	add	r2, r2, #1
	add	r3, r3, #4
	str	r10, [r1, #4]!
	ldr	r10, [r8, #4]!
	str	r10, [r3, #212]
	ldr	r10, [r7, #4]!
	str	r10, [r3, #340]
	ldr	r10, [lr, #4]!
	str	r10, [r3, #852]
	ldr	r10, [ip, #4]!
	str	r10, [r3, #980]
	ldr	r10, [r0, #4]!
	str	r10, [r3, #1108]
	ldr	r10, [r5, #260]
	cmp	r10, r2
	bcs	.L1394
	ldrb	r3, [r5, #208]	@ zero_extendqisi2
	cmp	r3, #1
	bne	.L1393
	add	lr, r4, #21248
	add	r1, r4, #22016
	add	r7, r4, #20992
	add	r0, r4, #21760
	ldr	r8, [fp, #-52]
	mov	ip, lr
	mov	r2, r1
	add	r6, r6, #468
	add	r7, r7, #144
	add	lr, lr, #16
	add	ip, ip, #144
	add	r0, r0, #144
	add	r1, r1, #16
	add	r2, r2, #144
	mov	r3, #0
.L1395:
	ldr	r9, [r7, #4]!
	add	r3, r3, #1
	add	r8, r8, #4
	str	r9, [r6, #4]!
	ldr	r9, [lr, #4]!
	str	r9, [r8, #596]
	ldr	r9, [ip, #4]!
	str	r9, [r8, #724]
	ldr	r9, [r0, #4]!
	str	r9, [r8, #1236]
	ldr	r9, [r1, #4]!
	str	r9, [r8, #1364]
	ldr	r9, [r2, #4]!
	str	r9, [r8, #1492]
	ldr	r9, [r5, #264]
	cmp	r9, r3
	bcs	.L1395
	b	.L1393
.L1370:
	cmp	r3, #0
	beq	.L1378
	add	r3, r4, #26880
	str	r4, [fp, #-64]
	add	r3, r3, #244
	ldr	r4, [fp, #-52]
	mov	r7, r6
	str	r6, [fp, #-60]
	mov	r10, r3
	mov	r6, r5
	mov	r5, r2
.L1377:
	ldr	r1, [r10]
	ldr	r0, [r8, #2680]
	ldr	r1, [r1, #36]
	ldr	r1, [r1, #656]
	bl	FSP_GetLogicFs
	ldr	r1, [r10]
	ldr	r1, [r1, #36]
	ldr	r1, [r1, #692]
	str	r1, [r7, #1636]
	ldr	r1, [r10]
	ldr	r1, [r1, #36]
	ldrb	r1, [r1, #1]	@ zero_extendqisi2
	strb	r1, [r7, #1625]
	ldr	r1, [r10]
	ldr	r1, [r1, #36]
	ldrb	r1, [r1]	@ zero_extendqisi2
	cmp	r1, #1
	moveq	r0, r4
	beq	.L1376
	cmp	r0, #0
	ldrne	r1, [r0, #28]
	ldrne	r0, [r1, #4]
.L1376:
	str	r0, [r7, #1640]
	mov	r3, #0
	ldr	r1, [r10]
	add	r5, r5, #1
	add	r7, r7, #36
	ldr	r1, [r1, #36]
	ldr	r1, [r1, #696]
	str	r1, [r7, #1608]
	ldr	r1, [r10]
	ldr	r1, [r1, #36]
	ldr	r1, [r1, #672]
	str	r1, [r7, #1596]
	ldr	r1, [r10]
	ldrb	r1, [r1, #1]	@ zero_extendqisi2
	strb	r1, [r7, #1591]
	ldr	r1, [r10]
	ldrb	r1, [r1]	@ zero_extendqisi2
	strb	r1, [r7, #1590]
	ldr	r1, [r10]
	ldr	r1, [r1, #36]
	ldr	r1, [r1, #716]
	str	r1, [r7, #1612]
	ldr	r1, [r10]
	ldr	r1, [r1, #36]
	ldr	r1, [r1, #756]
	str	r1, [r7, #1616]
	ldr	r1, [r10], #4
	ldr	r1, [r1, #36]
	ldr	r1, [r1, #796]
	strb	r3, [r7, #1588]
	str	r1, [r7, #1620]
	ldr	r1, [r6, #248]
	cmp	r1, r5
	bhi	.L1377
	mov	r5, r6
	ldr	r4, [fp, #-64]
	ldr	r6, [fp, #-60]
.L1378:
	ldrb	r3, [r5, #208]	@ zero_extendqisi2
	cmp	r3, #1
	bne	.L1373
	ldr	r3, [r5, #252]
	cmp	r3, #0
	beq	.L1373
	add	r3, r4, #27136
	str	r4, [fp, #-60]
	add	r3, r3, #120
	ldr	r4, [fp, #-56]
	mov	r10, #0
	mov	r7, r6
	str	r6, [fp, #-52]
	mov	r6, r5
	mov	r5, r10
	mov	r10, r3
.L1380:
	ldr	r1, [r10]
	ldr	r0, [r8, #2680]
	ldr	r1, [r1, #36]
	ldr	r1, [r1, #656]
	bl	FSP_GetLogicFs
	ldr	r1, [r10]
	ldr	r1, [r1, #36]
	ldr	r1, [r1, #692]
	str	r1, [r7, #2788]
	ldr	r1, [r10]
	ldr	r1, [r1, #36]
	ldrb	r1, [r1, #1]	@ zero_extendqisi2
	strb	r1, [r7, #2777]
	ldr	r1, [r10]
	ldr	r1, [r1, #36]
	ldrb	r1, [r1]	@ zero_extendqisi2
	cmp	r1, #1
	moveq	r0, r4
	beq	.L1379
	cmp	r0, #0
	ldrne	r1, [r0, #28]
	ldrne	r0, [r1, #4]
.L1379:
	str	r0, [r7, #1640]
	mov	r3, #0
	ldr	r1, [r10]
	add	r5, r5, #1
	add	r7, r7, #36
	ldr	r1, [r1, #36]
	ldr	r1, [r1, #696]
	str	r1, [r7, #2760]
	ldr	r1, [r10]
	ldr	r1, [r1, #36]
	ldr	r1, [r1, #672]
	str	r1, [r7, #2748]
	ldr	r1, [r10]
	ldrb	r1, [r1, #1]	@ zero_extendqisi2
	strb	r1, [r7, #2743]
	ldr	r1, [r10]
	ldrb	r1, [r1]	@ zero_extendqisi2
	strb	r1, [r7, #2742]
	ldr	r1, [r10]
	ldr	r1, [r1, #36]
	ldr	r1, [r1, #716]
	str	r1, [r7, #2764]
	ldr	r1, [r10]
	ldr	r1, [r1, #36]
	ldr	r1, [r1, #756]
	str	r1, [r7, #2768]
	ldr	r1, [r10], #4
	ldr	r1, [r1, #36]
	ldr	r1, [r1, #796]
	strb	r3, [r7, #2740]
	str	r1, [r7, #2772]
	ldr	r1, [r6, #252]
	cmp	r1, r5
	bhi	.L1380
.L1442:
	mov	r5, r6
	ldr	r4, [fp, #-60]
	ldr	r6, [fp, #-52]
	b	.L1373
.L1365:
	ldr	r1, [r1, #656]
	ldr	r0, [r8, #2680]
	bl	FSP_GetLogicFs
	subs	r3, r0, #0
	beq	.L1451
	ldr	r3, [r3, #28]
	ldr	r3, [r3, #4]
	str	r3, [fp, #-56]
	b	.L1364
.L1447:
	ldr	r2, [r9, #1256]
	strb	r2, [r6, #4]
	b	.L1349
.L1449:
	ldr	r3, [r5, #252]
	cmp	r3, #0
	beq	.L1373
	add	r7, r4, #27136
	mov	r3, #0
	mov	r10, r6
	str	r6, [fp, #-52]
	str	r4, [fp, #-60]
	mov	r6, r5
	add	r7, r7, #120
	ldr	r4, [fp, #-56]
	mov	r5, r3
	b	.L1389
.L1387:
	strb	r1, [r10, #2782]
	ldr	r1, [r7]
	ldrb	r1, [r1, #1]	@ zero_extendqisi2
	strb	r1, [r10, #2783]
	ldr	r1, [r7]
	ldr	r1, [r1, #12]
	str	r1, [r10, #2808]
.L1388:
	ldr	r1, [r6, #252]
	add	r5, r5, #1
	add	r7, r7, #4
	add	r10, r10, #36
	cmp	r1, r5
	bls	.L1442
.L1389:
	ldr	r1, [r7]
	ldr	r0, [r8, #2680]
	ldr	r1, [r1, #36]
	ldr	r1, [r1, #656]
	bl	FSP_GetLogicFs
	ldr	r1, [r7]
	ldr	r1, [r1, #36]
	ldr	r1, [r1, #692]
	str	r1, [r10, #2788]
	ldr	r1, [r7]
	ldr	r1, [r1, #36]
	ldrb	r1, [r1, #1]	@ zero_extendqisi2
	strb	r1, [r10, #2777]
	ldr	r1, [r7]
	ldr	r1, [r1, #36]
	ldrb	r1, [r1]	@ zero_extendqisi2
	cmp	r1, #1
	moveq	r0, r4
	beq	.L1386
	cmp	r0, #0
	ldrne	r1, [r0, #28]
	ldrne	r0, [r1, #4]
.L1386:
	str	r0, [r10, #2792]
	ldr	r1, [r7]
	ldr	r1, [r1, #36]
	ldr	r1, [r1, #696]
	str	r1, [r10, #2796]
	ldr	r1, [r7]
	ldr	r1, [r1, #36]
	ldr	r1, [r1, #672]
	str	r1, [r10, #2784]
	ldr	r1, [r7]
	ldrb	r1, [r1]	@ zero_extendqisi2
	strb	r1, [r10, #2776]
	ldr	r1, [r7]
	ldr	r1, [r1, #36]
	ldrb	r1, [r1, #704]	@ zero_extendqisi2
	strb	r1, [r10, #2778]
	ldr	r1, [r7]
	ldrb	r1, [r1]	@ zero_extendqisi2
	cmp	r1, #1
	bne	.L1387
	strb	r1, [r10, #2780]
	ldr	r1, [r7]
	ldrb	r1, [r1, #1]	@ zero_extendqisi2
	strb	r1, [r10, #2781]
	ldr	r1, [r7]
	ldr	r1, [r1, #12]
	str	r1, [r10, #2804]
	b	.L1388
.L1451:
	movw	r2, #7303
.L1443:
	ldr	r1, .L1452
	sub	sp, fp, #40
	ldmfd	sp, {r4, r5, r6, r7, r8, r9, r10, fp, sp, lr}
	b	dprint_vfmw
.L1396:
	str	ip, [fp, #-52]
	b	.L1358
.L1397:
	str	ip, [fp, #-56]
	b	.L1364
.L1453:
	.align	2
.L1452:
	.word	.LC42
	UNWIND(.fnend)
	.size	WriteSliceMsg, .-WriteSliceMsg
	.align	2
	.global	H264_GetPicStreamSize
	.type	H264_GetPicStreamSize, %function
H264_GetPicStreamSize:
	UNWIND(.fnstart)
	@ args = 0, pretend = 0, frame = 0
	@ frame_needed = 1, uses_anonymous_args = 0
	UNWIND(.movsp ip)
	mov	ip, sp
	stmfd	sp!, {fp, ip, lr, pc}
	UNWIND(.pad #4)
	UNWIND(.save {fp, ip, lr})
	UNWIND(.setfp fp, ip, #-4)
	sub	fp, ip, #4
	add	r0, r0, #61440
	ldr	r2, [r0, #2360]
	cmp	r2, #0
	beq	.L1457
	mov	r0, #0
.L1456:
	ldr	r3, [r2, #8]
	ldr	r1, [r2, #12]
	ldr	r2, [r2, #4056]
	add	r3, r3, r1
	add	r3, r3, #7
	cmp	r2, #0
	add	r0, r0, r3, lsr #3
	bne	.L1456
	ldmfd	sp, {fp, sp, pc}
.L1457:
	mov	r0, r2
	ldmfd	sp, {fp, sp, pc}
	UNWIND(.fnend)
	.size	H264_GetPicStreamSize, .-H264_GetPicStreamSize
	.align	2
	.global	SliceCheck
	.type	SliceCheck, %function
SliceCheck:
	UNWIND(.fnstart)
	@ args = 0, pretend = 0, frame = 0
	@ frame_needed = 1, uses_anonymous_args = 0
	UNWIND(.movsp ip)
	mov	ip, sp
	stmfd	sp!, {r4, r5, r6, r7, fp, ip, lr, pc}
	UNWIND(.pad #4)
	UNWIND(.save {r4, r5, r6, r7, fp, ip, lr})
	UNWIND(.setfp fp, ip, #-4)
	sub	fp, ip, #4
	ldr	r1, .L1470
	add	r4, r0, #20480
	add	r6, r0, #61440
	mov	r5, r0
	bl	ue_v
	str	r0, [r4, #256]
	ldr	r3, [r6, #2620]
	cmp	r3, #0
	bne	.L1468
	cmp	r0, #262144
	bcs	.L1469
	add	r2, r5, #12288
	ldr	r1, [r2, #1276]
	ldr	r3, [r2, #1280]
	mul	r3, r3, r1
	sub	r3, r3, #1
	cmp	r0, r3
	bhi	.L1468
	mov	r0, r5
	ldr	r1, .L1470+4
	bl	ue_v
	ldr	r1, .L1470+8
	mov	r2, r0
	mov	r5, r0
	mov	r0, #19
	bl	dprint_vfmw
	ldr	r0, [r6, #2620]
	cmp	r0, #0
	bne	.L1468
	cmp	r5, #9
	bhi	.L1464
	mov	r1, #1
	movw	r3, #297
	mov	r2, r1, asl r5
	and	r3, r3, r2
	cmp	r3, #0
	bne	.L1465
	ands	r0, r2, #660
	bne	.L1466
	tst	r2, #66
	beq	.L1464
	strb	r1, [r4, #208]
	ldmfd	sp, {r4, r5, r6, r7, fp, sp, pc}
.L1465:
	strb	r0, [r4, #208]
	ldmfd	sp, {r4, r5, r6, r7, fp, sp, pc}
.L1464:
	mov	r2, r5
	ldr	r1, .L1470+12
	mov	r0, #1
	bl	dprint_vfmw
.L1468:
	mvn	r0, #0
	ldmfd	sp, {r4, r5, r6, r7, fp, sp, pc}
.L1466:
	mov	r0, r3
	mov	r3, #2
	strb	r3, [r4, #208]
	ldmfd	sp, {r4, r5, r6, r7, fp, sp, pc}
.L1469:
	ldr	r1, .L1470+16
	mov	r0, #1
	bl	dprint_vfmw
	mvn	r0, #0
	ldmfd	sp, {r4, r5, r6, r7, fp, sp, pc}
.L1471:
	.align	2
.L1470:
	.word	.LC43
	.word	.LC45
	.word	.LC46
	.word	.LC47
	.word	.LC44
	UNWIND(.fnend)
	.size	SliceCheck, .-SliceCheck
	.align	2
	.global	PPSSPSCheck
	.type	PPSSPSCheck, %function
PPSSPSCheck:
	UNWIND(.fnstart)
	@ args = 0, pretend = 0, frame = 0
	@ frame_needed = 1, uses_anonymous_args = 0
	UNWIND(.movsp ip)
	mov	ip, sp
	stmfd	sp!, {r4, r5, fp, ip, lr, pc}
	UNWIND(.pad #4)
	UNWIND(.save {r4, r5, fp, ip, lr})
	UNWIND(.setfp fp, ip, #-4)
	sub	fp, ip, #4
	add	r5, r0, #20480
	mov	r4, r0
	add	r4, r4, #12288
	ldr	r1, .L1482
	ldr	r2, [r5, #216]
	mov	r0, #19
	bl	dprint_vfmw
	ldr	r2, [r5, #216]
	mov	r3, #2208
	ldr	r0, [r4, #1304]
	mlas	r0, r3, r2, r0
	beq	.L1478
	ldrb	r1, [r0, #19]	@ zero_extendqisi2
	cmp	r1, #0
	beq	.L1479
	ldr	r2, [r0, #28]
	mov	r3, #4000
	ldr	r0, [r4, #1300]
	mlas	r0, r3, r2, r0
	beq	.L1480
	ldrb	r3, [r0, #23]	@ zero_extendqisi2
	cmp	r3, #0
	beq	.L1481
	mov	r0, #0
	ldmfd	sp, {r4, r5, fp, sp, pc}
.L1479:
	ldr	r1, .L1482+4
	mov	r0, #1
	bl	dprint_vfmw
	mvn	r0, #0
	ldmfd	sp, {r4, r5, fp, sp, pc}
.L1481:
	ldr	r1, .L1482+8
	mov	r0, #1
	bl	dprint_vfmw
	mvn	r0, #0
	ldmfd	sp, {r4, r5, fp, sp, pc}
.L1478:
	movw	r3, #7777
	ldr	r2, .L1482+12
	ldr	r1, .L1482+16
	bl	dprint_vfmw
	mvn	r0, #0
	ldmfd	sp, {r4, r5, fp, sp, pc}
.L1480:
	movw	r3, #7788
	ldr	r2, .L1482+12
	ldr	r1, .L1482+16
	bl	dprint_vfmw
	mvn	r0, #0
	ldmfd	sp, {r4, r5, fp, sp, pc}
.L1483:
	.align	2
.L1482:
	.word	.LC48
	.word	.LC49
	.word	.LC50
	.word	.LC8
	.word	.LC9
	UNWIND(.fnend)
	.size	PPSSPSCheck, .-PPSSPSCheck
	.align	2
	.global	PPSSPSCheckTmpId
	.type	PPSSPSCheckTmpId, %function
PPSSPSCheckTmpId:
	UNWIND(.fnstart)
	@ args = 0, pretend = 0, frame = 0
	@ frame_needed = 1, uses_anonymous_args = 0
	UNWIND(.movsp ip)
	mov	ip, sp
	stmfd	sp!, {r4, r5, fp, ip, lr, pc}
	UNWIND(.pad #4)
	UNWIND(.save {r4, r5, fp, ip, lr})
	UNWIND(.setfp fp, ip, #-4)
	sub	fp, ip, #4
	mov	r4, r0
	mov	r2, r1
	mov	r5, r1
	mov	r0, #19
	ldr	r1, .L1494
	bl	dprint_vfmw
	cmp	r4, #0
	beq	.L1490
	add	r0, r4, #12288
	mov	r3, #2208
	ldr	r2, [r0, #1304]
	mla	r3, r3, r5, r2
	ldrb	r2, [r3, #19]	@ zero_extendqisi2
	cmp	r2, #0
	beq	.L1491
	ldr	r1, [r0, #1288]
	ldr	r2, [r3, #28]
	sub	r3, r1, #1
	cmp	r2, r3
	bhi	.L1492
	ldr	r1, [r0, #1300]
	mov	r3, #4000
	mla	r3, r3, r2, r1
	ldrb	r3, [r3, #23]	@ zero_extendqisi2
	cmp	r3, #0
	beq	.L1493
	mov	r0, #0
	ldmfd	sp, {r4, r5, fp, sp, pc}
.L1491:
	mov	r2, r5
	ldr	r1, .L1494+4
	mov	r0, #1
	bl	dprint_vfmw
	mvn	r0, #0
	ldmfd	sp, {r4, r5, fp, sp, pc}
.L1492:
	ldr	r1, .L1494+8
	mov	r0, #1
	bl	dprint_vfmw
	mvn	r0, #0
	ldmfd	sp, {r4, r5, fp, sp, pc}
.L1493:
	ldr	r1, .L1494+12
	mov	r0, #1
	bl	dprint_vfmw
	mvn	r0, #0
	ldmfd	sp, {r4, r5, fp, sp, pc}
.L1490:
	mov	r0, r4
	movw	r3, #7816
	ldr	r2, .L1494+16
	ldr	r1, .L1494+20
	bl	dprint_vfmw
	mvn	r0, #0
	ldmfd	sp, {r4, r5, fp, sp, pc}
.L1495:
	.align	2
.L1494:
	.word	.LC51
	.word	.LC52
	.word	.LC53
	.word	.LC54
	.word	.LC8
	.word	.LC9
	UNWIND(.fnend)
	.size	PPSSPSCheckTmpId, .-PPSSPSCheckTmpId
	.align	2
	.global	IsNewPic
	.type	IsNewPic, %function
IsNewPic:
	UNWIND(.fnstart)
	@ args = 0, pretend = 0, frame = 0
	@ frame_needed = 1, uses_anonymous_args = 0
	UNWIND(.movsp ip)
	mov	ip, sp
	stmfd	sp!, {r4, r5, fp, ip, lr, pc}
	UNWIND(.pad #4)
	UNWIND(.save {r4, r5, fp, ip, lr})
	UNWIND(.setfp fp, ip, #-4)
	sub	fp, ip, #4
	subs	ip, r0, #0
	beq	.L1509
	add	r3, ip, #20480
	add	lr, ip, #12288
	ldr	r0, [r3, #1852]
	ldr	r1, [lr, #1344]
	ldr	r2, [r3, #1856]
	ldr	r4, [r3, #216]
	ldr	r5, [r3, #1864]
	cmp	r2, r4
	cmpeq	r0, r1
	ldr	r2, [r3, #224]
	ldrb	r4, [r3, #1848]	@ zero_extendqisi2
	ldrb	r0, [r3, #209]	@ zero_extendqisi2
	movne	r1, #1
	moveq	r1, #0
	cmp	r5, r2
	moveq	r2, r1
	orrne	r2, r1, #1
	cmp	r4, r0
	orrne	r2, r2, #1
	cmp	r4, #0
	cmpne	r0, #0
	bne	.L1510
.L1500:
	ldr	r0, [r3, #1860]
	ldr	r1, [r3, #236]
	cmp	r0, r1
	moveq	r0, #0
	beq	.L1501
	cmp	r1, #0
	cmpne	r0, #0
	moveq	r0, #1
	movne	r0, #0
.L1501:
	ldrb	r1, [r3, #1850]	@ zero_extendqisi2
	ldrb	r4, [r3, #211]	@ zero_extendqisi2
	cmp	r1, r4
	orrne	r2, r2, #1
	cmp	r4, #5
	cmpeq	r1, #5
	orr	r2, r2, r0
	beq	.L1511
.L1502:
	ldr	r1, [lr, #3508]
	cmp	r1, #0
	beq	.L1512
	cmp	r1, #1
	bne	.L1504
	add	r1, ip, #16384
	ldr	r0, [r3, #1884]
	ldr	lr, [r3, #1880]
	ldr	r4, [r1, #3472]
	ldr	ip, [r1, #3468]
	cmp	lr, ip
	cmpeq	r0, r4
	movne	r1, #1
	moveq	r1, #0
	orr	r2, r2, r1
.L1504:
	ldr	r4, [r3, #256]
	mov	r0, #19
	ldr	r1, .L1513
	cmp	r4, #0
	movne	r4, r2
	orreq	r4, r2, #1
	mov	r2, r4
	bl	dprint_vfmw
	mov	r0, r4
	ldmfd	sp, {r4, r5, fp, sp, pc}
.L1512:
	add	ip, ip, #16384
	ldr	r1, [r3, #1872]
	ldr	r0, [r3, #1876]
	ldr	lr, [ip, #3424]
	ldr	ip, [ip, #3420]
	cmp	r1, ip
	cmpeq	r0, lr
	movne	r1, #1
	moveq	r1, #0
	orr	r2, r2, r1
	b	.L1504
.L1510:
	ldrb	r0, [r3, #1849]	@ zero_extendqisi2
	ldrb	r1, [r3, #210]	@ zero_extendqisi2
	cmp	r0, r1
	orrne	r2, r2, #1
	b	.L1500
.L1509:
	movw	r3, #7856
	ldr	r2, .L1513+4
	ldr	r1, .L1513+8
	bl	dprint_vfmw
	mvn	r0, #0
	ldmfd	sp, {r4, r5, fp, sp, pc}
.L1511:
	ldr	r0, [r3, #1868]
	ldr	r1, [r3, #244]
	cmp	r0, r1
	orrne	r2, r2, #1
	b	.L1502
.L1514:
	.align	2
.L1513:
	.word	.LC55
	.word	.LC8
	.word	.LC9
	UNWIND(.fnend)
	.size	IsNewPic, .-IsNewPic
	.align	2
	.global	ref_pic_list_reordering
	.type	ref_pic_list_reordering, %function
ref_pic_list_reordering:
	UNWIND(.fnstart)
	@ args = 0, pretend = 0, frame = 0
	@ frame_needed = 1, uses_anonymous_args = 0
	UNWIND(.movsp ip)
	mov	ip, sp
	stmfd	sp!, {r3, r4, r5, r6, r7, r8, r9, r10, fp, ip, lr, pc}
	UNWIND(.pad #4)
	UNWIND(.save {r3, r4, r5, r6, r7, r8, r9, r10, fp, ip, lr})
	UNWIND(.setfp fp, ip, #-4)
	sub	fp, ip, #4
	add	r5, r0, #20480
	add	r3, r0, #12288
	mov	lr, #2208
	mov	ip, #4000
	ldr	r2, [r3, #1304]
	add	r8, r0, #16384
	ldr	r1, [r5, #216]
	mov	r4, r0
	ldr	r3, [r3, #1300]
	mov	r0, #0
	mov	r7, #1
	mla	r2, lr, r1, r2
	ldr	r2, [r2, #28]
	strb	r0, [r8, #3512]
	strb	r0, [r8, #3513]
	mla	r3, ip, r2, r3
	ldrb	r1, [r5, #209]	@ zero_extendqisi2
	cmp	r1, r0
	ldr	r3, [r3, #2196]
	addne	r3, r3, #5
	addeq	r3, r3, #4
	mov	r7, r7, asl r3
	ldrb	r3, [r5, #208]	@ zero_extendqisi2
	cmp	r3, #1
	addhi	r6, r4, #61440
	bls	.L1569
.L1568:
	ldr	r3, [r6, #2620]
.L1534:
	adds	r3, r3, #0
	movne	r3, #1
	rsb	r0, r3, #0
	ldmfd	sp, {r3, r4, r5, r6, r7, r8, r9, r10, fp, sp, pc}
.L1569:
	ldr	r1, .L1574
	mov	r0, r4
	bl	u_1
	uxtb	r0, r0
	strb	r0, [r8, #3512]
	cmp	r0, #0
	beq	.L1567
	ldr	r3, [r5, #260]
	cmn	r3, #2
	beq	.L1548
	add	r10, r4, #19712
	add	r6, r4, #61440
	add	r10, r10, #184
	mov	r9, #0
	b	.L1531
.L1526:
	cmp	r0, #2
	beq	.L1570
.L1529:
	ldr	r3, [r5, #260]
	add	r3, r3, #2
	cmp	r3, r9
	bls	.L1571
.L1531:
	ldr	r1, .L1574+4
	mov	r0, r4
	bl	ue_v
	add	r9, r9, #1
	cmp	r0, #3
	str	r0, [r10, #4]!
	ldr	r3, [r6, #2620]
	bhi	.L1522
	cmp	r3, #0
	bne	.L1522
	cmp	r0, #3
	beq	.L1525
	cmp	r0, #1
	bhi	.L1526
	ldr	r1, .L1574+8
	mov	r0, r4
	bl	ue_v
	cmp	r7, r0
	str	r0, [r10, #264]
	ldr	r3, [r6, #2620]
	bls	.L1528
	cmp	r3, #0
	beq	.L1529
.L1528:
	mov	r2, r0
	ldr	r1, .L1574+12
	mov	r0, #1
	bl	dprint_vfmw
	mvn	r0, #0
	ldmfd	sp, {r3, r4, r5, r6, r7, r8, r9, r10, fp, sp, pc}
.L1570:
	ldr	r1, .L1574+16
	mov	r0, r4
	bl	ue_v
	str	r0, [r10, #528]
	b	.L1529
.L1567:
	ldrb	r3, [r5, #208]	@ zero_extendqisi2
	add	r6, r4, #61440
.L1518:
	cmp	r3, #1
	bne	.L1568
	ldr	r1, .L1574+20
	mov	r0, r4
	bl	u_1
	uxtb	r0, r0
	strb	r0, [r8, #3513]
	cmp	r0, #0
	beq	.L1568
	ldr	r3, [r5, #264]
	cmn	r3, #2
	beq	.L1568
	add	r9, r4, #19968
	mov	r8, #0
	add	r9, r9, #60
	b	.L1546
.L1545:
	add	r8, r8, #1
	cmp	r8, r3
	bcs	.L1568
.L1546:
	ldr	r1, .L1574+24
	mov	r0, r4
	bl	ue_v
	cmp	r0, #3
	str	r0, [r9, #4]!
	ldr	r3, [r6, #2620]
	bhi	.L1538
	cmp	r3, #0
	bne	.L1538
	cmp	r0, #3
	beq	.L1534
	cmp	r0, #1
	bls	.L1572
	cmp	r0, #2
	beq	.L1573
	ldr	r3, [r5, #264]
	add	r3, r3, #2
	cmp	r3, r8
	bne	.L1545
.L1547:
	ldr	r1, .L1574+28
	mov	r0, #1
	bl	dprint_vfmw
	mvn	r0, #0
	ldmfd	sp, {r3, r4, r5, r6, r7, r8, r9, r10, fp, sp, pc}
.L1572:
	ldr	r1, .L1574+32
	mov	r0, r4
	bl	ue_v
	cmp	r7, r0
	str	r0, [r9, #264]
	ldr	r3, [r6, #2620]
	bls	.L1542
	cmp	r3, #0
	bne	.L1542
.L1543:
	ldr	r3, [r5, #264]
	add	r3, r3, #2
	cmp	r3, r8
	bne	.L1545
	ldr	r2, [r9]
	cmp	r2, #3
	beq	.L1545
	b	.L1547
.L1573:
	ldr	r1, .L1574+36
	mov	r0, r4
	bl	ue_v
	str	r0, [r9, #524]
	b	.L1543
.L1525:
	ldrb	r3, [r5, #208]	@ zero_extendqisi2
	b	.L1518
.L1522:
	mov	r2, r0
	ldr	r1, .L1574+40
	mov	r0, #1
	bl	dprint_vfmw
	mvn	r0, #0
	ldmfd	sp, {r3, r4, r5, r6, r7, r8, r9, r10, fp, sp, pc}
.L1538:
	mov	r2, r0
	ldr	r1, .L1574+44
	mov	r0, #1
	bl	dprint_vfmw
	mvn	r0, #0
	ldmfd	sp, {r3, r4, r5, r6, r7, r8, r9, r10, fp, sp, pc}
.L1571:
	cmp	r9, r3
	bne	.L1525
.L1520:
	add	r3, r3, #4928
	add	r3, r3, #46
	add	r3, r4, r3, lsl #2
	ldr	r3, [r3, #4]
	cmp	r3, #3
	beq	.L1567
	ldr	r1, .L1574+48
	mov	r0, #1
	bl	dprint_vfmw
	mvn	r0, #0
	ldmfd	sp, {r3, r4, r5, r6, r7, r8, r9, r10, fp, sp, pc}
.L1542:
	mov	r2, r0
	ldr	r1, .L1574+52
	mov	r0, #1
	bl	dprint_vfmw
	mvn	r0, #0
	ldmfd	sp, {r3, r4, r5, r6, r7, r8, r9, r10, fp, sp, pc}
.L1548:
	mov	r3, #0
	b	.L1520
.L1575:
	.align	2
.L1574:
	.word	.LC56
	.word	.LC57
	.word	.LC59
	.word	.LC60
	.word	.LC61
	.word	.LC63
	.word	.LC64
	.word	.LC69
	.word	.LC66
	.word	.LC68
	.word	.LC58
	.word	.LC65
	.word	.LC62
	.word	.LC67
	UNWIND(.fnend)
	.size	ref_pic_list_reordering, .-ref_pic_list_reordering
	.align	2
	.global	pred_weight_table
	.type	pred_weight_table, %function
pred_weight_table:
	UNWIND(.fnstart)
	@ args = 0, pretend = 0, frame = 8
	@ frame_needed = 1, uses_anonymous_args = 0
	UNWIND(.movsp ip)
	mov	ip, sp
	stmfd	sp!, {r4, r5, r6, r7, r8, r9, r10, fp, ip, lr, pc}
	UNWIND(.pad #4)
	UNWIND(.save {r4, r5, r6, r7, r8, r9, r10, fp, ip, lr})
	UNWIND(.setfp fp, ip, #-4)
	sub	fp, ip, #4
	UNWIND(.pad #12)
	sub	sp, sp, #12
	add	r3, r0, #12288
	add	r6, r0, #20480
	mov	r10, #2208
	ldr	r2, [r3, #1304]
	mov	r7, #4000
	ldr	r1, [r6, #216]
	mov	r5, r0
	ldr	r3, [r3, #1300]
	mov	r4, #1
	mla	r2, r10, r1, r2
	ldr	r1, .L1606
	str	r2, [fp, #-48]
	ldr	r2, [r2, #28]
	mla	r7, r7, r2, r3
	bl	ue_v
	str	r0, [r6, #268]
	mov	r8, r4, asl r0
	ldr	r9, [r7, #40]
	cmp	r9, #0
	bne	.L1600
.L1577:
	cmp	r0, #7
	bhi	.L1580
	ldr	r3, [r6, #272]
	cmp	r3, #7
	bhi	.L1580
	add	r3, r5, #61440
	str	r3, [fp, #-52]
	ldr	r2, [r3, #2620]
	cmp	r2, #0
	addeq	r10, r5, #20736
	moveq	r4, r2
	addeq	r10, r10, #148
	beq	.L1588
	b	.L1579
.L1584:
	ldr	r2, [r7, #40]
	cmp	r2, #0
	bne	.L1601
.L1585:
	str	r2, [r10]
	str	r2, [r10, #768]
	str	r2, [r10, #128]
	str	r2, [r10, #896]
.L1587:
	ldr	r2, [r6, #260]
	add	r4, r4, #1
	add	r10, r10, #4
	cmp	r2, r4
	bcc	.L1602
.L1588:
	ldr	r1, .L1606+4
	mov	r0, r5
	bl	u_1
	cmp	r0, #0
	streq	r8, [r10, #-128]
	streq	r0, [r10, #640]
	beq	.L1584
	ldr	r1, .L1606+8
	mov	r0, r5
	bl	se_v
	ldr	r1, .L1606+12
	str	r0, [r10, #-128]
	mov	r0, r5
	bl	se_v
	str	r0, [r10, #640]
	ldr	r2, [r7, #40]
	cmp	r2, #0
	beq	.L1585
.L1601:
	ldr	r1, .L1606+16
	mov	r0, r5
	bl	u_1
	cmp	r0, #0
	bne	.L1603
	str	r9, [r10]
	str	r0, [r10, #768]
	str	r9, [r10, #128]
	str	r0, [r10, #896]
	b	.L1587
.L1602:
	ldr	r3, [fp, #-48]
	ldr	r3, [r3, #44]
	cmp	r3, #1
	beq	.L1589
.L1590:
	ldr	r3, [fp, #-52]
	ldr	r0, [r3, #2620]
	adds	r0, r0, #0
	movne	r0, #1
	rsb	r0, r0, #0
.L1582:
	sub	sp, fp, #40
	ldmfd	sp, {r4, r5, r6, r7, r8, r9, r10, fp, sp, pc}
.L1603:
	ldr	r1, .L1606+20
	mov	r0, r5
	bl	se_v
	ldr	r1, .L1606+24
	str	r0, [r10]
	mov	r0, r5
	bl	se_v
	ldr	r1, .L1606+20
	str	r0, [r10, #768]
	mov	r0, r5
	bl	se_v
	ldr	r1, .L1606+24
	str	r0, [r10, #128]
	mov	r0, r5
	bl	se_v
	str	r0, [r10, #896]
	b	.L1587
.L1600:
	ldr	r1, .L1606+28
	mov	r0, r5
	bl	ue_v
	mov	r3, r0
	ldr	r0, [r6, #268]
	mov	r9, r4, asl r3
	str	r3, [r6, #272]
	b	.L1577
.L1589:
	ldrb	r3, [r6, #208]	@ zero_extendqisi2
	cmp	r3, #1
	bne	.L1590
	add	r10, r5, #21248
	mov	r4, #0
	add	r10, r10, #20
	b	.L1596
.L1592:
	ldr	r3, [r7, #40]
	cmp	r3, #0
	bne	.L1604
.L1593:
	str	r3, [r10]
	str	r3, [r10, #768]
	str	r3, [r10, #128]
	str	r3, [r10, #896]
.L1595:
	ldr	r3, [r6, #264]
	add	r4, r4, #1
	add	r10, r10, #4
	cmp	r3, r4
	bcc	.L1590
.L1596:
	ldr	r1, .L1606+32
	mov	r0, r5
	bl	u_1
	cmp	r0, #0
	streq	r8, [r10, #-128]
	streq	r0, [r10, #640]
	beq	.L1592
	ldr	r1, .L1606+36
	mov	r0, r5
	bl	se_v
	ldr	r1, .L1606+40
	str	r0, [r10, #-128]
	mov	r0, r5
	bl	se_v
	str	r0, [r10, #640]
	ldr	r3, [r7, #40]
	cmp	r3, #0
	beq	.L1593
.L1604:
	ldr	r1, .L1606+44
	mov	r0, r5
	bl	u_1
	cmp	r0, #0
	bne	.L1605
	str	r9, [r10]
	str	r0, [r10, #768]
	str	r9, [r10, #128]
	str	r0, [r10, #896]
	b	.L1595
.L1580:
	add	r5, r5, #61440
	ldr	r2, [r5, #2620]
.L1579:
	ldr	r1, .L1606+48
	mov	r0, #1
	bl	dprint_vfmw
	mvn	r0, #0
	b	.L1582
.L1605:
	ldr	r1, .L1606+52
	mov	r0, r5
	bl	se_v
	ldr	r1, .L1606+56
	str	r0, [r10]
	mov	r0, r5
	bl	se_v
	ldr	r1, .L1606+52
	str	r0, [r10, #768]
	mov	r0, r5
	bl	se_v
	ldr	r1, .L1606+56
	str	r0, [r10, #128]
	mov	r0, r5
	bl	se_v
	str	r0, [r10, #896]
	b	.L1595
.L1607:
	.align	2
.L1606:
	.word	.LC70
	.word	.LC73
	.word	.LC74
	.word	.LC75
	.word	.LC76
	.word	.LC77
	.word	.LC78
	.word	.LC71
	.word	.LC79
	.word	.LC80
	.word	.LC81
	.word	.LC82
	.word	.LC72
	.word	.LC83
	.word	.LC84
	UNWIND(.fnend)
	.size	pred_weight_table, .-pred_weight_table
	.align	2
	.global	DecMMCO
	.type	DecMMCO, %function
DecMMCO:
	UNWIND(.fnstart)
	@ args = 0, pretend = 0, frame = 0
	@ frame_needed = 1, uses_anonymous_args = 0
	UNWIND(.movsp ip)
	mov	ip, sp
	stmfd	sp!, {r3, r4, r5, r6, r7, r8, r9, r10, fp, ip, lr, pc}
	UNWIND(.pad #4)
	UNWIND(.save {r3, r4, r5, r6, r7, r8, r9, r10, fp, ip, lr})
	UNWIND(.setfp fp, ip, #-4)
	sub	fp, ip, #4
	cmp	r1, #0
	mov	r9, r0
	moveq	r6, #100
	beq	.L1620
	add	r8, r0, #24576
	mov	r10, #0
	b	.L1611
.L1642:
	ldr	r1, .L1648
	mov	r0, r9
	bl	ue_v
	cmp	r4, #2
	beq	.L1640
.L1622:
	cmp	r4, #6
	orreq	r5, r5, #1
	cmp	r5, #0
	bne	.L1625
	cmp	r4, #4
	beq	.L1641
.L1626:
	cmp	r4, #6
	bhi	.L1618
.L1623:
	add	r3, r9, #61440
	ldr	r3, [r3, #2620]
	cmp	r3, #0
	bne	.L1618
	cmp	r4, #0
	beq	.L1628
.L1627:
	subs	r6, r6, #1
	beq	.L1629
.L1620:
	ldr	r1, .L1648+4
	mov	r0, r9
	bl	ue_v
	bic	r3, r0, #2
	sub	r5, r0, #3
	clz	r5, r5
	cmp	r3, #1
	mov	r4, r0
	mov	r5, r5, lsr #5
	beq	.L1642
	cmp	r4, #2
	bne	.L1622
.L1640:
	ldr	r1, .L1648+8
	mov	r0, r9
	bl	ue_v
	cmp	r5, #0
	beq	.L1623
.L1625:
	ldr	r1, .L1648+12
	mov	r0, r9
	bl	ue_v
	cmp	r4, #4
	bne	.L1626
.L1641:
	ldr	r1, .L1648+16
	mov	r0, r9
	bl	ue_v
	add	r3, r9, #61440
	ldr	r3, [r3, #2620]
	cmp	r3, #0
	beq	.L1627
.L1618:
	ldr	r1, .L1648+20
	mov	r0, #1
	bl	dprint_vfmw
	mvn	r0, #0
	ldmfd	sp, {r3, r4, r5, r6, r7, r8, r9, r10, fp, sp, pc}
.L1647:
	ldr	r1, .L1648
	mov	r0, r9
	bl	ue_v
	ldr	r2, [r4, #8]
	cmp	r2, #2
	str	r0, [r4, #12]
	beq	.L1643
.L1614:
	cmp	r2, #3
	cmpne	r2, #6
	beq	.L1644
.L1615:
	cmp	r2, #4
	beq	.L1645
.L1616:
	cmp	r2, #6
	bhi	.L1618
	add	r3, r9, #61440
	ldr	r3, [r3, #2620]
	cmp	r3, #0
	bne	.L1618
	cmp	r2, #0
	add	r10, r10, #1
	beq	.L1628
	cmp	r10, #100
	beq	.L1646
.L1611:
	ldr	r1, .L1648+4
	mov	r0, r9
	ldr	r5, [r8, #1804]
	bl	ue_v
	mov	r6, r10, asl #2
	mov	r7, r10, asl #4
	add	r4, r6, r7
	movw	r3, #2004
	mla	r4, r3, r5, r4
	add	r4, r9, r4
	add	r4, r4, #22272
	add	r4, r4, #96
	bic	r1, r0, #2
	str	r0, [r4, #8]
	cmp	r1, #1
	mov	r2, r0
	beq	.L1647
	cmp	r2, #2
	bne	.L1614
.L1643:
	ldr	r1, .L1648+8
	mov	r0, r9
	bl	ue_v
	add	r3, r6, r7
	movw	r2, #2004
	mla	r3, r2, r5, r3
	add	r3, r9, r3
	add	r2, r3, #22272
	str	r0, [r2, #112]
	ldr	r2, [r2, #104]
	cmp	r2, #3
	cmpne	r2, #6
	bne	.L1615
.L1644:
	ldr	r1, .L1648+12
	mov	r0, r9
	bl	ue_v
	add	r3, r6, r7
	movw	r2, #2004
	mla	r3, r2, r5, r3
	add	r3, r9, r3
	add	r2, r3, #22272
	str	r0, [r2, #116]
	ldr	r2, [r2, #104]
	cmp	r2, #4
	bne	.L1616
.L1645:
	ldr	r1, .L1648+16
	mov	r0, r9
	bl	ue_v
	add	r6, r6, r7
	movw	r7, #2004
	mla	r5, r7, r5, r6
	add	r5, r9, r5
	add	r3, r5, #22272
	add	r5, r3, #96
	ldr	r2, [r3, #104]
	str	r0, [r3, #120]
	b	.L1616
.L1628:
	mov	r0, #0
	ldmfd	sp, {r3, r4, r5, r6, r7, r8, r9, r10, fp, sp, pc}
.L1646:
	ldr	r1, .L1648+24
	mov	r0, #1
	bl	dprint_vfmw
	mvn	r0, #0
	ldmfd	sp, {r3, r4, r5, r6, r7, r8, r9, r10, fp, sp, pc}
.L1629:
	mvn	r0, #0
	ldmfd	sp, {r3, r4, r5, r6, r7, r8, r9, r10, fp, sp, pc}
.L1649:
	.align	2
.L1648:
	.word	.LC87
	.word	.LC86
	.word	.LC88
	.word	.LC89
	.word	.LC90
	.word	.LC91
	.word	.LC85
	UNWIND(.fnend)
	.size	DecMMCO, .-DecMMCO
	.align	2
	.global	dec_ref_pic_marking
	.type	dec_ref_pic_marking, %function
dec_ref_pic_marking:
	UNWIND(.fnstart)
	@ args = 0, pretend = 0, frame = 0
	@ frame_needed = 1, uses_anonymous_args = 0
	UNWIND(.movsp ip)
	mov	ip, sp
	stmfd	sp!, {r4, r5, r6, r7, r8, fp, ip, lr, pc}
	UNWIND(.pad #4)
	UNWIND(.save {r4, r5, r6, r7, r8, fp, ip, lr})
	UNWIND(.setfp fp, ip, #-4)
	sub	fp, ip, #4
	UNWIND(.pad #12)
	sub	sp, sp, #12
	add	r6, r0, #24576
	cmp	r0, #0
	mov	r5, r0
	ldr	r7, [r6, #1804]
	beq	.L1670
	add	r3, r0, #20480
	ldrb	r8, [r3, #213]	@ zero_extendqisi2
	cmp	r8, #0
	bne	.L1671
	movw	r4, #2004
	mla	r4, r4, r7, r0
	add	r4, r4, #22272
	add	r4, r4, #96
	ldrb	r2, [r4, #4]	@ zero_extendqisi2
	cmp	r2, #0
	bne	.L1672
	ldrb	r3, [r3, #211]	@ zero_extendqisi2
	mov	r4, r7
	cmp	r3, #5
	beq	.L1673
.L1654:
	ldr	r1, .L1677
	mov	r0, r5
	bl	u_1
	movw	r1, #2004
	mla	r4, r1, r4, r5
	ldr	r1, .L1677+4
	add	r4, r4, #22272
	add	r4, r4, #96
	mov	r3, r0
	uxtb	r2, r0
	strb	r3, [r4, #7]
	mov	r0, #16
	bl	dprint_vfmw
	ldrb	r3, [r4, #7]	@ zero_extendqisi2
	cmp	r3, #0
	bne	.L1655
.L1659:
	mov	r8, #0
.L1667:
	mov	r0, r8
	sub	sp, fp, #32
	ldmfd	sp, {r4, r5, r6, r7, r8, fp, sp, pc}
.L1671:
	clz	r4, r7
	mov	r4, r4, lsr #5
	str	r4, [r6, #1804]
	ldrb	r3, [r3, #211]	@ zero_extendqisi2
	cmp	r3, #5
	bne	.L1654
.L1673:
	ldr	r1, .L1677+8
	mov	r0, r5
	bl	u_1
	movw	r3, #2004
	mla	r4, r3, r4, r5
	ldr	r1, .L1677+12
	mov	r8, #0
	add	r4, r4, #22272
	strb	r0, [r4, #101]
	mov	r0, r5
	bl	u_1
	ldrb	r2, [r4, #101]	@ zero_extendqisi2
	ldr	r1, .L1677+16
	strb	r0, [r4, #102]
	mov	r0, #16
	bl	dprint_vfmw
	mov	r0, r8
	sub	sp, fp, #32
	ldmfd	sp, {r4, r5, r6, r7, r8, fp, sp, pc}
.L1672:
	ldrb	r3, [r3, #211]	@ zero_extendqisi2
	cmp	r3, #5
	beq	.L1674
	ldr	r1, .L1677
	ldrb	r6, [r4, #7]	@ zero_extendqisi2
	bl	u_1
	cmp	r6, r0
	bne	.L1675
	ldrb	r3, [r4, #7]	@ zero_extendqisi2
	cmp	r3, #0
	beq	.L1659
	mov	r1, r8
	mov	r0, r5
	sub	sp, fp, #32
	ldmfd	sp, {r4, r5, r6, r7, r8, fp, sp, lr}
	b	DecMMCO
.L1655:
	mov	r0, r5
	mov	r1, #1
	bl	DecMMCO
	cmn	r0, #1
	mov	r8, r0
	movne	r3, #1
	movne	r8, #0
	strneb	r3, [r4, #4]
	bne	.L1667
	mov	r3, #0
	ldr	r1, .L1677+20
	strb	r3, [r4, #4]
	mov	r0, #1
	str	r7, [r6, #1804]
	bl	dprint_vfmw
	b	.L1667
.L1674:
	ldr	r1, .L1677+8
	ldrb	r6, [r4, #5]	@ zero_extendqisi2
	bl	u_1
	cmp	r6, r0
	bne	.L1676
	mov	r0, r5
	ldr	r1, .L1677+12
	ldrb	r4, [r4, #6]	@ zero_extendqisi2
	bl	u_1
	cmp	r4, r0
	beq	.L1659
	ldr	r1, .L1677+24
	mov	r0, #1
	bl	dprint_vfmw
	mvn	r8, #0
	b	.L1667
.L1675:
	add	r5, r5, #61440
	ldr	r1, .L1677+28
	mov	r0, #1
	mvn	r8, #0
	bl	dprint_vfmw
	ldr	ip, [r5, #2624]
	ldr	r3, [r5, #2660]
	mov	r0, #1
	ldr	r2, [r5, #2644]
	ldr	r1, .L1677+32
	str	ip, [sp]
	bl	dprint_vfmw
	b	.L1667
.L1676:
	ldr	r1, .L1677+36
	mov	r0, #1
	bl	dprint_vfmw
	mvn	r8, #0
	b	.L1667
.L1670:
	movw	r3, #8284
	ldr	r2, .L1677+40
	ldr	r1, .L1677+44
	mvn	r8, #0
	bl	dprint_vfmw
	b	.L1667
.L1678:
	.align	2
.L1677:
	.word	.LC95
	.word	.LC96
	.word	.LC92
	.word	.LC93
	.word	.LC94
	.word	.LC97
	.word	.LC99
	.word	.LC100
	.word	.LC101
	.word	.LC98
	.word	.LC8
	.word	.LC9
	UNWIND(.fnend)
	.size	dec_ref_pic_marking, .-dec_ref_pic_marking
	.align	2
	.global	ProcessSliceHeaderFirstPart
	.type	ProcessSliceHeaderFirstPart, %function
ProcessSliceHeaderFirstPart:
	UNWIND(.fnstart)
	@ args = 0, pretend = 0, frame = 0
	@ frame_needed = 1, uses_anonymous_args = 0
	UNWIND(.movsp ip)
	mov	ip, sp
	stmfd	sp!, {r3, r4, r5, r6, r7, r8, r9, r10, fp, ip, lr, pc}
	UNWIND(.pad #4)
	UNWIND(.save {r3, r4, r5, r6, r7, r8, r9, r10, fp, ip, lr})
	UNWIND(.setfp fp, ip, #-4)
	sub	fp, ip, #4
	subs	r6, r0, #0
	beq	.L1745
	ldr	r1, .L1755
	add	r5, r6, #12288
	bl	ue_v
	ldr	r3, [r5, #1292]
	sub	r3, r3, #1
	cmp	r0, r3
	mov	r10, r0
	bhi	.L1682
	add	r8, r6, #61440
	ldr	r3, [r8, #2620]
	cmp	r3, #0
	bne	.L1682
	mov	r1, r0
	mov	r0, r6
	bl	PPSSPSCheckTmpId
	subs	r9, r0, #0
	bne	.L1746
	add	r4, r6, #20480
	mov	r7, #2208
	mov	r1, #4000
	str	r10, [r4, #216]
	ldr	r2, [r5, #1304]
	ldr	r3, [r5, #1300]
	mla	r7, r7, r10, r2
	ldrb	r2, [r4, #211]	@ zero_extendqisi2
	cmp	r2, #5
	ldr	r2, [r7, #28]
	mla	r5, r1, r2, r3
	beq	.L1685
	ldr	r3, [r5, #3244]
	cmp	r3, #0
	beq	.L1685
.L1686:
	ldr	r1, [r5, #2196]
	mov	r0, r6
	ldr	r2, .L1755+4
	add	r1, r1, #4
	bl	u_v
	str	r0, [r4, #224]
	ldr	r3, [r8, #2620]
	cmp	r3, #0
	bne	.L1743
	ldrb	r3, [r4, #211]	@ zero_extendqisi2
	cmp	r3, #5
	beq	.L1747
.L1689:
	mov	r3, #0
	strb	r3, [r4, #209]
	strb	r3, [r4, #210]
	ldrb	r3, [r5, #18]	@ zero_extendqisi2
	cmp	r3, #0
	beq	.L1748
	ldr	r2, [r5, #3248]
	ldr	r1, [r5, #3252]
	add	r3, r2, #1
	mla	r3, r1, r3, r3
.L1713:
	ldrb	r2, [r5, #19]	@ zero_extendqisi2
	cmp	r2, #0
	bne	.L1696
	strb	r2, [r4, #212]
.L1698:
	ldr	r2, [r4, #256]
	cmp	r2, r3
	bcs	.L1749
.L1699:
	ldrb	r3, [r4, #211]	@ zero_extendqisi2
	cmp	r3, #5
	beq	.L1750
.L1701:
	add	r10, r6, #16384
	mov	r3, #0
	str	r3, [r10, #3420]
	str	r3, [r10, #3424]
	ldr	r3, [r5, #2200]
	cmp	r3, #0
	beq	.L1751
.L1705:
	mov	r3, #0
	str	r3, [r10, #3468]
	str	r3, [r10, #3472]
	ldr	r3, [r5, #2200]
	cmp	r3, #1
	beq	.L1752
.L1708:
	ldr	r3, [r8, #2620]
	cmp	r3, #0
	bne	.L1743
	ldrb	r3, [r7, #17]	@ zero_extendqisi2
	cmp	r3, #0
	beq	.L1711
	ldr	r1, .L1755+8
	mov	r0, r6
	bl	ue_v
	cmp	r0, #0
	bne	.L1712
	ldr	r3, [r8, #2620]
	cmp	r3, #0
	bne	.L1712
.L1711:
	mov	r0, r6
	bl	IsNewPic
	uxtb	r0, r0
	strb	r0, [r4, #213]
	cmp	r0, #0
	bne	.L1725
	ldr	r2, [r4, #256]
	ldr	r3, [r4, #1888]
	cmp	r2, r3
	bls	.L1753
.L1725:
	mov	r0, r9
	ldmfd	sp, {r3, r4, r5, r6, r7, r8, r9, r10, fp, sp, pc}
.L1685:
	ldrb	r3, [r4, #208]	@ zero_extendqisi2
	cmp	r3, #2
	beq	.L1686
	ldr	r1, .L1755+12
	mov	r0, #1
	bl	dprint_vfmw
	mvn	r9, #0
	b	.L1725
.L1696:
	mov	r2, #1
	strb	r2, [r4, #212]
.L1716:
	ldr	r2, [r4, #256]
	cmp	r2, r3, lsr #1
	bcc	.L1699
	ldr	r1, .L1755+16
	mov	r0, #1
	bl	dprint_vfmw
	mvn	r9, #0
	b	.L1725
.L1712:
	ldr	r1, .L1755+20
	mov	r0, #1
	bl	dprint_vfmw
	ldr	r3, .L1755+24
	ldr	r4, [r3]
	cmp	r4, #0
	beq	.L1743
	mov	r3, #0
	ldr	r0, [r8, #2680]
	mov	r2, r3
	mov	r1, #102
	blx	r4
.L1743:
	mvn	r9, #0
	mov	r0, r9
	ldmfd	sp, {r3, r4, r5, r6, r7, r8, r9, r10, fp, sp, pc}
.L1748:
	ldr	r1, .L1755+28
	mov	r0, r6
	bl	u_1
	uxtb	r0, r0
	strb	r0, [r4, #209]
	cmp	r0, #0
	bne	.L1754
	ldr	r2, [r5, #3248]
	ldrb	ip, [r5, #18]	@ zero_extendqisi2
	ldr	r1, [r5, #3252]
	add	r3, r2, #1
	cmp	ip, #0
	mla	r3, r1, r3, r3
	bne	.L1715
	mov	r3, r3, asl #1
	b	.L1713
.L1751:
	ldr	r1, [r5, #2204]
	mov	r0, r6
	ldr	r2, .L1755+32
	add	r1, r1, #4
	bl	u_v
	str	r0, [r10, #3420]
	ldrb	r3, [r7, #1]	@ zero_extendqisi2
	cmp	r3, #0
	beq	.L1705
	ldrb	r3, [r4, #209]	@ zero_extendqisi2
	cmp	r3, #0
	bne	.L1705
	ldr	r1, .L1755+36
	mov	r0, r6
	bl	se_v
	str	r0, [r10, #3424]
	b	.L1705
.L1747:
	cmp	r0, #0
	str	r0, [r4, #220]
	beq	.L1689
	ldr	r1, .L1755+40
	mov	r0, #1
	bl	dprint_vfmw
	b	.L1689
.L1752:
	ldrb	r3, [r5, #16]	@ zero_extendqisi2
	cmp	r3, #0
	bne	.L1708
	ldr	r1, .L1755+44
	mov	r0, r6
	bl	se_v
	str	r0, [r10, #3468]
	ldrb	r3, [r7, #1]	@ zero_extendqisi2
	cmp	r3, #1
	bne	.L1708
	ldrb	r3, [r4, #209]	@ zero_extendqisi2
	cmp	r3, #0
	bne	.L1708
	ldr	r1, .L1755+48
	mov	r0, r6
	bl	se_v
	str	r0, [r10, #3472]
	b	.L1708
.L1754:
	ldr	r1, .L1755+52
	mov	r0, r6
	bl	u_1
	strb	r0, [r4, #210]
	ldr	r2, [r5, #3248]
	ldrb	r0, [r5, #18]	@ zero_extendqisi2
	ldr	r1, [r5, #3252]
	add	r3, r2, #1
	cmp	r0, #0
	ldrb	r0, [r4, #209]	@ zero_extendqisi2
	mla	r3, r1, r3, r3
	moveq	r2, #2
	beq	.L1694
.L1715:
	mov	r2, #1
.L1694:
	cmp	r0, #0
	mul	r3, r2, r3
	beq	.L1713
	cmp	r0, #1
	mov	r2, #0
	strb	r2, [r4, #212]
	bne	.L1698
	b	.L1716
.L1750:
	ldr	r1, .L1755+56
	mov	r0, r6
	bl	ue_v
	cmp	r0, #65536
	str	r0, [r4, #244]
	bcs	.L1702
	ldr	r3, [r8, #2620]
	cmp	r3, #0
	beq	.L1701
.L1702:
	ldr	r1, .L1755+60
	mov	r0, #1
	bl	dprint_vfmw
	b	.L1701
.L1682:
	mov	r2, r10
	ldr	r1, .L1755+64
	mvn	r9, #0
	mov	r0, #1
	bl	dprint_vfmw
	mov	r0, r9
	ldmfd	sp, {r3, r4, r5, r6, r7, r8, r9, r10, fp, sp, pc}
.L1746:
	ldr	r1, .L1755+68
	mov	r0, #1
	bl	dprint_vfmw
	mvn	r9, #0
	b	.L1725
.L1745:
	movw	r3, #8378
	ldr	r2, .L1755+72
	ldr	r1, .L1755+76
	mvn	r9, #0
	bl	dprint_vfmw
	b	.L1725
.L1749:
	ldr	r1, .L1755+80
	mov	r0, #1
	bl	dprint_vfmw
	mvn	r9, #0
	b	.L1725
.L1753:
	ldr	r1, .L1755+84
	mov	r0, #1
	bl	dprint_vfmw
	mvn	r9, #0
	b	.L1725
.L1756:
	.align	2
.L1755:
	.word	.LC102
	.word	.LC106
	.word	.LC118
	.word	.LC105
	.word	.LC110
	.word	.LC119
	.word	g_event_report
	.word	.LC108
	.word	.LC114
	.word	.LC115
	.word	.LC107
	.word	.LC116
	.word	.LC117
	.word	.LC109
	.word	.LC112
	.word	.LC113
	.word	.LC103
	.word	.LC104
	.word	.LC8
	.word	.LC9
	.word	.LC111
	.word	.LC120
	UNWIND(.fnend)
	.size	ProcessSliceHeaderFirstPart, .-ProcessSliceHeaderFirstPart
	.align	2
	.global	ProcessSliceHeaderSecondPart
	.type	ProcessSliceHeaderSecondPart, %function
ProcessSliceHeaderSecondPart:
	UNWIND(.fnstart)
	@ args = 0, pretend = 0, frame = 0
	@ frame_needed = 1, uses_anonymous_args = 0
	UNWIND(.movsp ip)
	mov	ip, sp
	stmfd	sp!, {r3, r4, r5, r6, r7, r8, r9, r10, fp, ip, lr, pc}
	UNWIND(.pad #4)
	UNWIND(.save {r3, r4, r5, r6, r7, r8, r9, r10, fp, ip, lr})
	UNWIND(.setfp fp, ip, #-4)
	sub	fp, ip, #4
	subs	r5, r0, #0
	beq	.L1842
	add	r7, r5, #12288
	add	r4, r5, #20480
	ldr	r3, [r7, #1292]
	ldr	r2, [r4, #216]
	sub	r3, r3, #1
	cmp	r3, r2
	bcc	.L1760
	add	r9, r5, #61440
	ldr	r3, [r9, #2620]
	cmp	r3, #0
	bne	.L1760
	bl	PPSSPSCheck
	cmp	r0, #0
	bne	.L1843
	ldr	r3, [r4, #216]
	mov	r6, #2208
	ldr	r8, [r7, #1304]
	mul	r6, r6, r3
	adds	r7, r8, r6
	beq	.L1844
	ldrb	r3, [r4, #208]	@ zero_extendqisi2
	cmp	r3, #1
	beq	.L1845
.L1764:
	ldr	r2, [r7, #36]
	cmp	r3, #1
	str	r2, [r4, #260]
	ldr	r2, [r7, #40]
	str	r2, [r4, #264]
	bls	.L1846
	cmp	r3, #2
	beq	.L1791
.L1775:
	mov	r3, #32
	str	r3, [r4, #264]
.L1776:
	mov	r0, r5
	bl	ref_pic_list_reordering
	subs	r10, r0, #0
	bne	.L1847
	ldrb	r3, [r7, #2]	@ zero_extendqisi2
	cmp	r3, #0
	beq	.L1778
	ldrb	r3, [r4, #208]	@ zero_extendqisi2
	cmp	r3, #0
	moveq	r2, #1
	moveq	r3, r2
	beq	.L1779
.L1778:
	ldr	r3, [r7, #44]
	cmp	r3, #1
	beq	.L1848
.L1795:
	mov	r2, #0
	mov	r3, r2
.L1779:
	strb	r3, [r4, #215]
	mov	r0, #19
	ldr	r1, .L1854
	bl	dprint_vfmw
	ldrb	r2, [r4, #215]	@ zero_extendqisi2
	mov	r3, #0
	str	r3, [r4, #268]
	cmp	r2, r3
	str	r3, [r4, #272]
	bne	.L1849
.L1780:
	ldr	r3, [r4, #236]
	cmp	r3, #0
	bne	.L1850
.L1781:
	mov	r3, #0
	str	r3, [r4, #1812]
	ldrb	r3, [r8, r6]	@ zero_extendqisi2
	cmp	r3, #0
	beq	.L1782
	ldrb	r3, [r4, #208]	@ zero_extendqisi2
	cmp	r3, #1
	bls	.L1851
.L1782:
	ldr	r1, .L1854+4
	mov	r0, r5
	bl	se_v
	mov	r3, #0
	str	r3, [r4, #1820]
	str	r3, [r4, #1824]
	str	r3, [r4, #1828]
	str	r0, [r4, #1816]
	ldrb	r3, [r7, #3]	@ zero_extendqisi2
	cmp	r3, #0
	bne	.L1852
.L1811:
	mov	r0, r10
	ldmfd	sp, {r3, r4, r5, r6, r7, r8, r9, r10, fp, sp, pc}
.L1791:
	mov	r3, #32
	str	r3, [r4, #260]
	b	.L1775
.L1852:
	ldr	r1, .L1854+8
	mov	r0, r5
	bl	ue_v
	cmp	r0, #2
	str	r0, [r4, #1820]
	bhi	.L1785
	ldr	r3, [r9, #2620]
	cmp	r3, #0
	bne	.L1785
	cmp	r0, #1
	beq	.L1811
	ldr	r1, .L1854+12
	mov	r0, r5
	bl	se_v
	add	r3, r0, #6
	str	r0, [r4, #1824]
	cmp	r3, #12
	bhi	.L1788
	ldr	r3, [r9, #2620]
	cmp	r3, #0
	bne	.L1788
	mov	r0, r5
	ldr	r1, .L1854+16
	bl	se_v
	add	r3, r0, #6
	str	r0, [r4, #1828]
	cmp	r3, #12
	bhi	.L1790
	ldr	r3, [r9, #2620]
	cmp	r3, #0
	beq	.L1811
.L1790:
	ldr	r1, .L1854+20
	mov	r0, #1
	bl	dprint_vfmw
	mvn	r10, #0
	b	.L1811
.L1849:
	mov	r0, r5
	bl	pred_weight_table
	cmp	r0, #0
	beq	.L1780
	ldr	r1, .L1854+24
	mov	r0, #1
	bl	dprint_vfmw
	mvn	r10, #0
	b	.L1811
.L1850:
	mov	r0, r5
	bl	dec_ref_pic_marking
	cmp	r0, #0
	beq	.L1781
	ldr	r1, .L1854+28
	mov	r0, #1
	bl	dprint_vfmw
	mvn	r10, #0
	b	.L1811
.L1848:
	ldrb	r3, [r4, #208]	@ zero_extendqisi2
	cmp	r3, #1
	moveq	r2, r3
	bne	.L1795
	b	.L1779
.L1845:
	ldr	r1, .L1854+32
	mov	r0, r5
	bl	u_1
	ldrb	r3, [r4, #208]	@ zero_extendqisi2
	strb	r0, [r4, #214]
	b	.L1764
.L1846:
	ldr	r1, .L1854+36
	mov	r0, r5
	bl	u_1
	cmp	r0, #0
	bne	.L1766
	ldr	r3, [r4, #260]
.L1767:
	ldrb	r2, [r4, #209]	@ zero_extendqisi2
	cmp	r2, #0
	bne	.L1768
	cmp	r3, #15
	bhi	.L1769
	ldr	r3, [r4, #264]
	cmp	r3, #15
	bhi	.L1853
.L1770:
	ldr	r3, [r9, #2620]
	cmp	r3, #0
	bne	.L1769
.L1771:
	ldrb	r3, [r4, #208]	@ zero_extendqisi2
	cmp	r3, #2
	beq	.L1791
	cmp	r3, #1
	bne	.L1775
	b	.L1776
.L1760:
	ldr	r1, .L1854+40
	mvn	r10, #0
	mov	r0, #1
	bl	dprint_vfmw
	mov	r0, r10
	ldmfd	sp, {r3, r4, r5, r6, r7, r8, r9, r10, fp, sp, pc}
.L1851:
	ldr	r1, .L1854+44
	mov	r0, r5
	bl	ue_v
	cmp	r0, #2
	str	r0, [r4, #1812]
	bhi	.L1783
	ldr	r3, [r9, #2620]
	cmp	r3, #0
	beq	.L1782
.L1783:
	ldr	r1, .L1854+48
	mov	r0, #1
	bl	dprint_vfmw
	mvn	r10, #0
	b	.L1811
.L1768:
	cmp	r3, #31
	bhi	.L1772
	ldr	r3, [r4, #264]
	cmp	r3, #31
	bls	.L1773
	ldrb	r3, [r4, #208]	@ zero_extendqisi2
	cmp	r3, #1
	bne	.L1773
.L1772:
	ldr	r1, .L1854+52
	mov	r0, #1
	bl	dprint_vfmw
	mvn	r10, #0
	b	.L1811
.L1773:
	ldr	r3, [r9, #2620]
	cmp	r3, #0
	beq	.L1771
	b	.L1772
.L1853:
	ldrb	r3, [r4, #208]	@ zero_extendqisi2
	cmp	r3, #1
	bne	.L1770
.L1769:
	ldr	r1, .L1854+56
	mov	r0, #1
	bl	dprint_vfmw
	mvn	r10, #0
	b	.L1811
.L1766:
	ldr	r1, .L1854+60
	mov	r0, r5
	bl	ue_v
	ldrb	r2, [r4, #208]	@ zero_extendqisi2
	cmp	r2, #1
	mov	r3, r0
	str	r0, [r4, #260]
	bne	.L1767
	ldr	r1, .L1854+64
	mov	r0, r5
	bl	ue_v
	ldr	r3, [r4, #260]
	str	r0, [r4, #264]
	b	.L1767
.L1788:
	ldr	r1, .L1854+68
	mov	r0, #1
	bl	dprint_vfmw
	mvn	r10, #0
	b	.L1811
.L1785:
	ldr	r1, .L1854+72
	mov	r0, #1
	bl	dprint_vfmw
	mvn	r10, #0
	b	.L1811
.L1843:
	ldr	r1, .L1854+76
	mov	r0, #1
	bl	dprint_vfmw
	mvn	r10, #0
	b	.L1811
.L1847:
	ldr	r1, .L1854+80
	mov	r0, #1
	bl	dprint_vfmw
	mvn	r10, #0
	b	.L1811
.L1842:
	movw	r3, #8542
	ldr	r2, .L1854+84
	ldr	r1, .L1854+88
	mvn	r10, #0
	bl	dprint_vfmw
	b	.L1811
.L1844:
	movw	r3, #8559
	ldr	r2, .L1854+84
	ldr	r1, .L1854+88
	mvn	r10, #0
	bl	dprint_vfmw
	b	.L1811
.L1855:
	.align	2
.L1854:
	.word	.LC128
	.word	.LC133
	.word	.LC134
	.word	.LC136
	.word	.LC138
	.word	.LC139
	.word	.LC129
	.word	.LC130
	.word	.LC121
	.word	.LC122
	.word	.LC103
	.word	.LC131
	.word	.LC132
	.word	.LC126
	.word	.LC125
	.word	.LC123
	.word	.LC124
	.word	.LC137
	.word	.LC135
	.word	.LC104
	.word	.LC127
	.word	.LC8
	.word	.LC9
	UNWIND(.fnend)
	.size	ProcessSliceHeaderSecondPart, .-ProcessSliceHeaderSecondPart
	.align	2
	.global	ExitSlice
	.type	ExitSlice, %function
ExitSlice:
	UNWIND(.fnstart)
	@ args = 0, pretend = 0, frame = 0
	@ frame_needed = 1, uses_anonymous_args = 0
	UNWIND(.movsp ip)
	mov	ip, sp
	stmfd	sp!, {r4, r5, r6, r7, fp, ip, lr, pc}
	UNWIND(.pad #4)
	UNWIND(.save {r4, r5, r6, r7, fp, ip, lr})
	UNWIND(.setfp fp, ip, #-4)
	sub	fp, ip, #4
	subs	r2, r0, #0
	beq	.L1865
	add	r3, r2, #20480
	add	r0, r2, #12288
	mov	ip, #2208
	mov	r7, #4000
	ldr	r1, [r0, #1304]
	ldr	r6, [r3, #216]
	ldr	r4, [r0, #1300]
	ldrb	r5, [r3, #209]	@ zero_extendqisi2
	mla	r0, ip, r6, r1
	cmp	r5, #0
	ldr	ip, [r3, #224]
	ldr	lr, [r3, #256]
	ldr	r1, [r0, #28]
	str	r6, [r3, #1856]
	mla	r1, r7, r1, r4
	ldr	r0, [r1, #36]
	str	ip, [r3, #1864]
	ldr	ip, [r3, #236]
	str	r0, [r3, #1852]
	ldrneb	r0, [r3, #210]	@ zero_extendqisi2
	str	lr, [r3, #1888]
	strb	r5, [r3, #1848]
	strneb	r0, [r3, #1849]
	ldrb	r0, [r3, #211]	@ zero_extendqisi2
	str	ip, [r3, #1860]
	cmp	r0, #5
	strb	r0, [r3, #1850]
	ldreq	r0, [r3, #244]
	streq	r0, [r3, #1868]
	ldr	r0, [r1, #2200]
	cmp	r0, #0
	bne	.L1860
	add	r0, r2, #16384
	ldr	ip, [r0, #3420]
	str	ip, [r3, #1872]
	ldr	r0, [r0, #3424]
	str	r0, [r3, #1876]
	ldr	r0, [r1, #2200]
.L1860:
	cmp	r0, #1
	addeq	r1, r2, #16384
	add	r2, r2, #61440
	ldreq	r0, [r1, #3468]
	streq	r0, [r3, #1880]
	ldreq	r1, [r1, #3472]
	streq	r1, [r3, #1884]
	ldr	r3, [r2, #2636]
	add	r3, r3, #1
	str	r3, [r2, #2636]
	ldmfd	sp, {r4, r5, r6, r7, fp, sp, pc}
.L1865:
	movw	r3, #8730
	ldr	r2, .L1866
	ldr	r1, .L1866+4
	sub	sp, fp, #28
	ldmfd	sp, {r4, r5, r6, r7, fp, sp, lr}
	b	dprint_vfmw
.L1867:
	.align	2
.L1866:
	.word	.LC8
	.word	.LC9
	UNWIND(.fnend)
	.size	ExitSlice, .-ExitSlice
	.align	2
	.global	PicTypeStatistic
	.type	PicTypeStatistic, %function
PicTypeStatistic:
	UNWIND(.fnstart)
	@ args = 0, pretend = 0, frame = 0
	@ frame_needed = 1, uses_anonymous_args = 0
	UNWIND(.movsp ip)
	mov	ip, sp
	stmfd	sp!, {fp, ip, lr, pc}
	UNWIND(.pad #4)
	UNWIND(.save {fp, ip, lr})
	UNWIND(.setfp fp, ip, #-4)
	sub	fp, ip, #4
	subs	r3, r0, #0
	beq	.L1881
	add	r1, r3, #20480
	ldrb	r2, [r1, #208]	@ zero_extendqisi2
	cmp	r2, #1
	beq	.L1871
	bcc	.L1872
	cmp	r2, #2
	ldmnefd	sp, {fp, sp, pc}
	ldrb	r2, [r1, #211]	@ zero_extendqisi2
	add	r3, r3, #57344
	cmp	r2, #5
	bne	.L1874
	mov	r2, #1
	str	r2, [r3, #4024]
	ldmfd	sp, {fp, sp, pc}
.L1872:
	add	r3, r3, #57344
	ldr	r2, [r3, #4020]
	cmp	r2, #2
	movne	r2, #1
	strne	r2, [r3, #4020]
.L1874:
	mov	r2, #0
	str	r2, [r3, #4024]
	ldmfd	sp, {fp, sp, pc}
.L1871:
	add	r3, r3, #57344
	mov	r1, #2
	mov	r2, #0
	str	r1, [r3, #4020]
	str	r2, [r3, #4024]
	ldmfd	sp, {fp, sp, pc}
.L1881:
	movw	r3, #8781
	ldr	r2, .L1882
	ldr	r1, .L1882+4
	sub	sp, fp, #12
	ldmia	sp, {fp, sp, lr}
	b	dprint_vfmw
.L1883:
	.align	2
.L1882:
	.word	.LC8
	.word	.LC9
	UNWIND(.fnend)
	.size	PicTypeStatistic, .-PicTypeStatistic
	.align	2
	.global	CalcStreamBits
	.type	CalcStreamBits, %function
CalcStreamBits:
	UNWIND(.fnstart)
	@ args = 0, pretend = 0, frame = 0
	@ frame_needed = 1, uses_anonymous_args = 0
	UNWIND(.movsp ip)
	mov	ip, sp
	stmfd	sp!, {r4, r5, r6, r7, r8, fp, ip, lr, pc}
	UNWIND(.pad #4)
	UNWIND(.save {r4, r5, r6, r7, r8, fp, ip, lr})
	UNWIND(.setfp fp, ip, #-4)
	sub	fp, ip, #4
	UNWIND(.pad #12)
	sub	sp, sp, #12
	subs	r4, r0, #0
	beq	.L1907
	add	r3, r4, #16384
	ldrb	r3, [r3, #1212]	@ zero_extendqisi2
	cmp	r3, #0
	bne	.L1908
.L1886:
	ldr	r0, [r4, #368]
	ldrb	r6, [r0]	@ zero_extendqisi2
	cmp	r6, #0
	beq	.L1897
	mov	r5, #0
	mov	r2, r0
	mov	r3, r5
.L1888:
	add	r3, r3, #1
	ldr	r1, [r2, #12]
	cmp	r3, r6
	add	r2, r2, #28
	add	r5, r5, r1
	bne	.L1888
.L1887:
	mov	r7, r6, asl #5
	ldr	ip, [r0, #72]
	sub	r7, r7, r6, asl #2
	ldr	r2, [r0, #64]
	add	r1, r0, r7
	mov	r3, r5
	str	ip, [sp, #4]
	mov	r0, #7
	ldr	ip, [r1, #12]
	ldr	r1, .L1910
	str	ip, [sp]
	bl	dprint_vfmw
	ldr	r3, [r4, #368]
	mov	r2, r6
	mov	r0, #7
	ldr	r1, .L1910+4
	ldrb	r6, [r3]	@ zero_extendqisi2
	ldr	ip, [r3, #64]
	mov	lr, r6, asl #5
	and	ip, ip, r0
	sub	lr, lr, r6, asl #2
	add	r3, r3, lr
	str	ip, [r3, #24]
	ldr	r3, [r4, #368]
	ldrb	r6, [r3]	@ zero_extendqisi2
	ldr	r8, [r3, #64]
	mov	lr, r6, asl #5
	sub	lr, lr, r6, asl #2
	add	r3, r3, lr
	ldr	ip, [r3, #16]
	add	ip, ip, r8, lsr #3
	rsb	ip, r5, ip
	str	ip, [r3, #28]
	ldr	ip, [r4, #368]
	ldrb	r6, [ip]	@ zero_extendqisi2
	ldr	lr, [ip, #64]
	mov	r3, r6, asl #5
	sub	r3, r3, r6, asl #2
	add	ip, ip, r3
	ldr	r3, [ip, #12]
	add	r3, r5, r3
	rsb	r3, lr, r3, lsl #3
	str	r3, [ip, #20]
	ldr	ip, [r4, #368]
	ldrb	lr, [ip]	@ zero_extendqisi2
	mov	r3, lr, asl #5
	sub	r3, r3, lr, asl #2
	add	r3, ip, r3
	ldr	ip, [r3, #28]
	ldr	lr, [r3, #24]
	and	ip, ip, #3
	add	ip, lr, ip, lsl #3
	str	ip, [r3, #24]
	ldr	ip, [r4, #368]
	ldrb	lr, [ip]	@ zero_extendqisi2
	mov	r3, lr, asl #5
	sub	r3, r3, lr, asl #2
	add	r3, ip, r3
	ldr	ip, [r3, #28]
	bic	ip, ip, #3
	str	ip, [r3, #28]
	ldr	ip, [r4, #368]
	add	r7, ip, r7
	ldrb	r5, [ip]	@ zero_extendqisi2
	ldr	r3, [r7, #24]
	mov	lr, r5, asl #5
	sub	lr, lr, r5, asl #2
	add	ip, ip, lr
	ldr	ip, [ip, #28]
	str	ip, [sp, #4]
	ldr	ip, [r7, #20]
	str	ip, [sp]
	bl	dprint_vfmw
	ldr	ip, [r4, #368]
	ldr	r2, [ip, #68]
	sub	r3, r2, #1
	cmp	r3, #1
	bhi	.L1909
	ldrb	r5, [ip]	@ zero_extendqisi2
	add	r1, r5, #1
	cmp	r2, r1
	movhi	r2, #1
	movls	r2, #0
	cmp	r1, #1
	movhi	r2, #0
	cmp	r2, #0
	beq	.L1890
	add	r5, r5, #2
	mov	r6, #0
.L1891:
	sub	r3, r5, #1
	ldr	r1, .L1910+8
	mov	r0, #7
	mov	lr, r3, asl #5
	mov	r2, r3
	sub	r3, lr, r3, asl #2
	add	ip, ip, r3
	str	r6, [ip, #24]
	ldr	ip, [r4, #368]
	add	ip, ip, r3
	ldr	lr, [ip, #16]
	str	lr, [ip, #28]
	ldr	ip, [r4, #368]
	add	ip, ip, r3
	ldr	lr, [ip, #12]
	mov	lr, lr, asl #3
	str	lr, [ip, #20]
	ldr	ip, [r4, #368]
	add	ip, ip, r3
	ldr	lr, [ip, #28]
	ldr	r7, [ip, #24]
	and	lr, lr, #3
	add	lr, r7, lr, lsl #3
	str	lr, [ip, #24]
	ldr	ip, [r4, #368]
	add	ip, ip, r3
	ldr	lr, [ip, #28]
	bic	lr, lr, #3
	str	lr, [ip, #28]
	ldr	ip, [r4, #368]
	add	ip, ip, r3
	ldr	r3, [ip, #24]
	ldr	ip, [ip, #20]
	str	ip, [sp]
	bl	dprint_vfmw
	ldr	ip, [r4, #368]
	ldr	r3, [ip, #68]
	cmp	r5, #1
	cmpls	r5, r3
	add	r5, r5, #1
	movcc	r2, #1
	movcs	r2, #0
	cmp	r2, #0
	bne	.L1891
	sub	r3, r3, #1
.L1890:
	mov	r2, r3, asl #5
	ldr	r1, [ip, #72]
	sub	r3, r2, r3, asl #2
	add	ip, ip, r3
	ldr	r3, [ip, #20]
	rsb	r3, r1, r3
	str	r3, [ip, #20]
	ldr	lr, [r4, #368]
	ldrb	r1, [lr]	@ zero_extendqisi2
	ldr	ip, [lr, #68]
	cmp	r1, ip
	bcs	.L1884
	sxth	r3, r1
	add	r4, r4, #57344
	mov	r2, r3, asl #5
	sub	r3, r2, r3, asl #2
	add	r3, lr, r3
.L1895:
	ldr	r2, [r3, #28]
	add	r1, r1, #1
	ldr	r0, [r4, #4048]
	add	r3, r3, #28
	cmp	r2, r0
	strcc	r2, [r4, #4048]
	ldrcc	ip, [lr, #68]
	cmp	r1, ip
	bcc	.L1895
.L1884:
	sub	sp, fp, #32
	ldmfd	sp, {r4, r5, r6, r7, r8, fp, sp, pc}
.L1908:
	ldr	r2, [r4, #368]
	ldr	r3, [r2, #64]
	add	r3, r3, #7
	bic	r3, r3, #7
	str	r3, [r2, #64]
	ldr	r2, [r4, #368]
	ldr	r3, [r2, #72]
	sub	r3, r3, #1
	str	r3, [r2, #72]
	b	.L1886
.L1909:
	ldr	r1, .L1910+12
	mov	r0, #0
	sub	sp, fp, #32
	ldmfd	sp, {r4, r5, r6, r7, r8, fp, sp, lr}
	b	dprint_vfmw
.L1897:
	mov	r5, r6
	b	.L1887
.L1907:
	movw	r3, #8835
	ldr	r2, .L1910+16
	ldr	r1, .L1910+20
	sub	sp, fp, #32
	ldmfd	sp, {r4, r5, r6, r7, r8, fp, sp, lr}
	b	dprint_vfmw
.L1911:
	.align	2
.L1910:
	.word	.LC140
	.word	.LC141
	.word	.LC143
	.word	.LC142
	.word	.LC8
	.word	.LC9
	UNWIND(.fnend)
	.size	CalcStreamBits, .-CalcStreamBits
	.align	2
	.global	IsRefListWrong
	.type	IsRefListWrong, %function
IsRefListWrong:
	UNWIND(.fnstart)
	@ args = 0, pretend = 0, frame = 0
	@ frame_needed = 1, uses_anonymous_args = 0
	UNWIND(.movsp ip)
	mov	ip, sp
	stmfd	sp!, {r4, r5, r6, r7, r8, r9, fp, ip, lr, pc}
	UNWIND(.pad #4)
	UNWIND(.save {r4, r5, r6, r7, r8, r9, fp, ip, lr})
	UNWIND(.setfp fp, ip, #-4)
	sub	fp, ip, #4
	subs	r7, r0, #0
	beq	.L1941
	add	r6, r7, #20480
	ldr	r3, [r6, #248]
	cmp	r3, #0
	beq	.L1915
	add	r5, r7, #26880
	add	r8, r7, #61440
	add	r5, r5, #240
	mov	r4, #0
	b	.L1919
.L1916:
	ldr	r3, [r0, #28]
	cmp	r3, #0
	beq	.L1918
	ldr	r3, [r6, #248]
	cmp	r4, r3
	bcs	.L1942
.L1919:
	ldr	r3, [r5, #4]!
	add	r4, r4, #1
	ldr	r0, [r8, #2680]
	ldr	r3, [r3, #36]
	ldr	r1, [r3, #656]
	bl	FSP_GetLogicFs
	cmp	r0, #0
	bne	.L1916
.L1918:
	mvn	r0, #0
	ldmfd	sp, {r4, r5, r6, r7, r8, r9, fp, sp, pc}
.L1942:
	cmp	r3, #0
	beq	.L1915
	ldr	r3, [r6, #252]
	cmp	r3, #0
	addne	r7, r7, #27136
	movne	r4, #0
	addne	r7, r7, #116
	bne	.L1922
	b	.L1915
.L1943:
	ldr	r3, [r0, #28]
	cmp	r3, #0
	beq	.L1918
	ldr	r3, [r6, #252]
	cmp	r4, r3
	bcs	.L1915
.L1922:
	ldr	r3, [r7, #4]!
	add	r4, r4, #1
	ldr	r0, [r8, #2680]
	ldr	r3, [r3, #36]
	ldr	r1, [r3, #656]
	bl	FSP_GetLogicFs
	cmp	r0, #0
	bne	.L1943
	b	.L1918
.L1915:
	mov	r0, #0
	ldmfd	sp, {r4, r5, r6, r7, r8, r9, fp, sp, pc}
.L1941:
	movw	r3, #8944
	ldr	r2, .L1944
	ldr	r1, .L1944+4
	bl	dprint_vfmw
	mvn	r0, #0
	ldmfd	sp, {r4, r5, r6, r7, r8, r9, fp, sp, pc}
.L1945:
	.align	2
.L1944:
	.word	.LC8
	.word	.LC9
	UNWIND(.fnend)
	.size	IsRefListWrong, .-IsRefListWrong
	.align	2
	.global	Scaling_List
	.type	Scaling_List, %function
Scaling_List:
	UNWIND(.fnstart)
	@ args = 4, pretend = 0, frame = 8
	@ frame_needed = 1, uses_anonymous_args = 0
	UNWIND(.movsp ip)
	mov	ip, sp
	stmfd	sp!, {r4, r5, r6, r7, r8, r9, r10, fp, ip, lr, pc}
	UNWIND(.pad #4)
	UNWIND(.save {r4, r5, r6, r7, r8, r9, r10, fp, ip, lr})
	UNWIND(.setfp fp, ip, #-4)
	sub	fp, ip, #4
	UNWIND(.pad #12)
	sub	sp, sp, #12
	subs	r7, r3, #0
	str	r0, [fp, #-52]
	mov	r6, r2
	ble	.L1946
	mov	r3, r7
	mov	r0, #8
	ldr	r9, .L1957
	mov	r5, r0
	mov	r4, #0
	mov	r10, #255
	mov	r7, r1
	mov	r8, r3
	b	.L1951
.L1950:
	mov	ip, r3, lsr #2
	and	lr, r3, #3
	str	r5, [r7, r3, asl #2]
	uxtb	r1, r5
	ldr	r3, [r6, ip, asl #2]
	mov	lr, lr, asl #3
	cmp	r4, r8
	bic	r3, r3, r10, asl lr
	orr	r1, r3, r1, asl lr
	str	r1, [r6, ip, asl #2]
	beq	.L1946
.L1951:
	cmp	r8, #16
	ldreq	r3, .L1957+4
	ldrneb	r3, [r4, r9]	@ zero_extendqisi2
	ldreqb	r3, [r4, r3]	@ zero_extendqisi2
	cmp	r0, #0
	add	r4, r4, #1
	beq	.L1950
	ldr	r1, .L1957+8
	ldr	r0, [fp, #-52]
	str	r3, [fp, #-48]
	bl	se_v
	ldr	r2, [fp, #4]
	ldr	r3, [fp, #-48]
	add	r0, r5, r0
	ands	r0, r0, #255
	moveq	r1, #1
	movne	r1, #0
	cmp	r1, #0
	moveq	r5, r0
	cmp	r3, #0
	movne	r1, #0
	andeq	r1, r1, #1
	str	r1, [r2]
	b	.L1950
.L1946:
	sub	sp, fp, #40
	ldmfd	sp, {r4, r5, r6, r7, r8, r9, r10, fp, sp, pc}
.L1958:
	.align	2
.L1957:
	.word	.LANCHOR0+40
	.word	.LANCHOR0+24
	.word	.LC144
	UNWIND(.fnend)
	.size	Scaling_List, .-Scaling_List
	.align	2
	.global	ProcessPPS
	.type	ProcessPPS, %function
ProcessPPS:
	UNWIND(.fnstart)
	@ args = 0, pretend = 0, frame = 40
	@ frame_needed = 1, uses_anonymous_args = 0
	UNWIND(.movsp ip)
	mov	ip, sp
	stmfd	sp!, {r4, r5, r6, r7, r8, r9, r10, fp, ip, lr, pc}
	UNWIND(.pad #4)
	UNWIND(.save {r4, r5, r6, r7, r8, r9, r10, fp, ip, lr})
	UNWIND(.setfp fp, ip, #-4)
	sub	fp, ip, #4
	UNWIND(.pad #52)
	sub	sp, sp, #52
	subs	r5, r0, #0
	mov	r4, r1
	beq	.L2011
	cmp	r1, #0
	beq	.L2012
	ldr	r1, .L2021
	add	r6, r5, #61440
	bl	u_1
	strb	r0, [r4]
	ldr	r3, [r6, #2620]
	cmp	r3, #0
	bne	.L2010
	ldr	r1, .L2021+4
	mov	r0, r5
	bl	u_1
	strb	r0, [r4, #1]
	ldr	r3, [r6, #2620]
	cmp	r3, #0
	bne	.L2010
	ldr	r1, .L2021+8
	mov	r0, r5
	bl	ue_v
	cmp	r0, #0
	str	r0, [r4, #32]
	bne	.L1965
	ldr	r3, [r6, #2620]
	cmp	r3, #0
	beq	.L1966
.L1965:
	ldr	r1, .L2021+12
	mov	r0, #1
	bl	dprint_vfmw
	ldr	r3, .L2021+16
	ldr	r4, [r3]
	cmp	r4, #0
	beq	.L2010
	mov	r3, #0
	ldr	r0, [r6, #2680]
	mov	r2, r3
	mov	r1, #102
	blx	r4
	mvn	r0, #0
.L1961:
	sub	sp, fp, #40
	ldmfd	sp, {r4, r5, r6, r7, r8, r9, r10, fp, sp, pc}
.L1973:
	ldr	r1, .L2021+20
	mov	r0, r5
	bl	u_1
	ldr	r1, .L2021+24
	str	r0, [r4, #60]
	mov	r0, r5
	bl	u_1
	uxtb	r0, r0
	strb	r0, [r4, #18]
	cmp	r0, #1
	beq	.L1974
.L1992:
	mov	r0, r5
	ldr	r1, .L2021+28
	bl	se_v
	add	r3, r0, #12
	str	r0, [r4, #56]
	cmp	r3, #24
	bhi	.L1975
	ldr	r3, [r6, #2620]
	cmp	r3, #0
	beq	.L1993
.L1975:
	ldr	r1, .L2021+32
	mov	r0, #1
	bl	dprint_vfmw
.L2010:
	mvn	r0, #0
	sub	sp, fp, #40
	ldmfd	sp, {r4, r5, r6, r7, r8, r9, r10, fp, sp, pc}
.L1966:
	ldr	r1, .L2021+36
	mov	r0, r5
	bl	ue_v
	cmp	r0, #31
	str	r0, [r4, #36]
	bhi	.L1967
	ldr	r3, [r6, #2620]
	cmp	r3, #0
	bne	.L1967
	ldr	r1, .L2021+40
	mov	r0, r5
	bl	ue_v
	cmp	r0, #31
	str	r0, [r4, #40]
	bhi	.L1969
	ldr	r3, [r6, #2620]
	cmp	r3, #0
	bne	.L1969
	ldr	r1, .L2021+44
	mov	r0, r5
	bl	u_1
	strb	r0, [r4, #2]
	ldr	r3, [r6, #2620]
	cmp	r3, #0
	bne	.L2010
	ldr	r2, .L2021+48
	mov	r1, #2
	mov	r0, r5
	bl	u_v
	cmp	r0, #2
	str	r0, [r4, #44]
	bhi	.L2013
	ldr	r1, .L2021+52
	mov	r0, r5
	bl	se_v
	ldr	r1, .L2021+56
	str	r0, [r4, #48]
	mov	r0, r5
	bl	se_v
	ldr	r1, .L2021+60
	mov	r0, r5
	bl	se_v
	ldr	r1, .L2021+64
	str	r0, [r4, #52]
	mov	r0, r5
	bl	u_1
	ldr	r1, .L2021+68
	strb	r0, [r4, #3]
	mov	r0, r5
	bl	u_1
	ldr	r1, .L2021+72
	strb	r0, [r4, #4]
	mov	r0, r5
	bl	u_1
	uxtb	r0, r0
	strb	r0, [r4, #17]
	cmp	r0, #0
	bne	.L2014
.L1972:
	ldr	r3, [r4, #52]
	add	r0, r5, #13504
	mov	r7, #0
	add	r0, r0, #24
	str	r7, [r4, #60]
	str	r3, [r4, #56]
	strb	r7, [r4, #18]
	bl	BsResidBits
	ldr	r3, [r5, #368]
	ldr	r3, [r3, #72]
	add	r3, r3, #3
	cmp	r0, r3
	bcs	.L1973
.L1993:
	mov	r0, #0
	sub	sp, fp, #40
	ldmfd	sp, {r4, r5, r6, r7, r8, r9, r10, fp, sp, pc}
.L2014:
	ldr	r1, .L2021+76
	mov	r0, #1
	bl	dprint_vfmw
	b	.L1972
.L1967:
	ldr	r1, .L2021+80
	mov	r0, #1
	bl	dprint_vfmw
	mvn	r0, #0
	b	.L1961
.L1969:
	ldr	r1, .L2021+84
	mov	r0, #1
	bl	dprint_vfmw
	mvn	r0, #0
	b	.L1961
.L1974:
	add	r3, r4, #4
	str	r6, [fp, #-80]
	sub	r9, fp, #72
	add	r8, r4, #1984
	add	r10, r4, #64
	mov	r6, r3
	b	.L1983
.L2018:
	ldr	r3, [ip, #1300]
	ldr	ip, [r4, #28]
	mla	r3, lr, ip, r3
	ldrb	ip, [r3, #25]	@ zero_extendqisi2
	cmp	ip, #1
	beq	.L2015
	ldr	r3, .L2021+88
	cmp	r1, #0
	add	ip, r3, #16
	moveq	r3, ip
	mov	r1, r3
	ldr	r3, .L2021+92
	ldr	r3, [r3, #52]
	blx	r3
.L1978:
	add	r7, r7, #1
	add	r8, r8, #16
	cmp	r7, #6
	add	r10, r10, #64
	beq	.L2016
.L1983:
	ldr	r1, .L2021+96
	mov	r0, r5
	bl	u_1
	clz	r1, r7
	add	ip, r5, #12288
	mov	lr, #4000
	mov	r2, #16
	mov	r1, r1, lsr #5
	cmp	r0, #1
	mov	r3, r0
	mov	r0, r8
	str	r3, [r9, #4]!
	strb	r3, [r6, #1]!
	beq	.L2017
	cmp	r7, #0
	cmpne	r7, #3
	beq	.L2018
	ldr	r3, .L2021+92
	mov	r2, #16
	sub	r1, r8, #16
	mov	r0, r8
	ldr	r3, [r3, #52]
	blx	r3
	b	.L1978
.L2016:
	ldr	r6, [fp, #-80]
	add	r3, r4, #448
	add	r2, r5, #12288
	add	r9, r4, #2080
	sub	r8, fp, #76
	add	r10, r4, #11
	str	r5, [fp, #-80]
	mov	r7, #0
	str	r6, [fp, #-84]
	mov	r5, r2
	mov	r6, r3
.L1991:
	ldr	r2, [r4, #60]
	mov	r3, #0
	cmp	r2, #1
	strne	r3, [r8]
	strneb	r3, [r10]
	beq	.L2019
.L1986:
	ldr	r1, [r4, #28]
	mov	ip, #4000
	ldr	r3, [r5, #1300]
	mov	r0, r9
	mov	r2, #64
	mla	r3, ip, r1, r3
	ldrb	r1, [r3, #25]	@ zero_extendqisi2
	cmp	r1, #1
	beq	.L2020
	ldr	r1, .L2021+100
	cmp	r7, #0
	ldr	r3, .L2021+92
	add	ip, r1, #64
	ldr	r3, [r3, #52]
	movne	r1, ip
	blx	r3
.L1987:
	add	r7, r7, #1
	add	r9, r9, #64
	cmp	r7, #2
	add	r6, r6, #256
	add	r8, r8, #4
	add	r10, r10, #1
	bne	.L1991
	ldr	r5, [fp, #-80]
	ldr	r6, [fp, #-84]
	b	.L1992
.L2017:
	mov	r3, r2
	str	r9, [sp]
	mov	r2, r8
	mov	r1, r10
	mov	r0, r5
	bl	Scaling_List
	ldr	r3, [r9]
	cmp	r3, #1
	bne	.L1978
	ldr	r1, .L2021+88
	mov	r2, #16
	ldr	r3, .L2021+92
	cmp	r7, #2
	add	r0, r1, r2
	ldr	r3, [r3, #52]
	movhi	r1, r0
	mov	r0, r8
	blx	r3
	b	.L1978
.L2012:
	mov	r0, r1
	movw	r3, #9224
	ldr	r2, .L2021+104
	ldr	r1, .L2021+108
	bl	dprint_vfmw
	mvn	r0, #0
	b	.L1961
.L2015:
	add	r1, r3, r7, lsl #4
	ldr	r3, .L2021+92
	add	r1, r1, #1968
	mov	r2, #16
	add	r1, r1, #4
	mov	r0, r8
	ldr	r3, [r3, #52]
	blx	r3
	b	.L1978
.L2013:
	ldr	r1, .L2021+112
	mov	r0, #1
	bl	dprint_vfmw
	mvn	r0, #0
	b	.L1961
.L2019:
	ldr	r1, .L2021+116
	ldr	r0, [fp, #-80]
	bl	u_1
	mov	r2, r9
	mov	r1, r6
	mov	r3, #64
	mov	ip, r0
	cmp	ip, #1
	ldr	r0, [fp, #-80]
	str	ip, [r8]
	strb	ip, [r10]
	bne	.L1986
	str	r8, [sp]
	bl	Scaling_List
	ldr	r3, [r8]
	cmp	r3, #1
	bne	.L1987
	ldr	r1, .L2021+100
	mov	r2, #64
	ldr	r3, .L2021+92
	cmp	r7, #0
	add	r0, r1, r2
	ldr	r3, [r3, #52]
	movne	r1, r0
	mov	r0, r9
	blx	r3
	b	.L1987
.L2020:
	add	r1, r3, r7, lsl #6
	ldr	r3, .L2021+92
	add	r1, r1, #2064
	add	r1, r1, #4
	ldr	r3, [r3, #52]
	blx	r3
	b	.L1987
.L2011:
	movw	r3, #9223
	ldr	r2, .L2021+104
	ldr	r1, .L2021+108
	bl	dprint_vfmw
	mvn	r0, #0
	b	.L1961
.L2022:
	.align	2
.L2021:
	.word	.LC145
	.word	.LC146
	.word	.LC147
	.word	.LC148
	.word	g_event_report
	.word	.LC163
	.word	.LC164
	.word	.LC165
	.word	.LC168
	.word	.LC149
	.word	.LC151
	.word	.LC153
	.word	.LC154
	.word	.LC156
	.word	.LC157
	.word	.LC158
	.word	.LC159
	.word	.LC160
	.word	.LC161
	.word	.LC162
	.word	.LC150
	.word	.LC152
	.word	.LANCHOR1+80
	.word	vfmw_Osal_Func_Ptr_S
	.word	.LC166
	.word	.LANCHOR1+112
	.word	.LC8
	.word	.LC9
	.word	.LC155
	.word	.LC167
	UNWIND(.fnend)
	.size	ProcessPPS, .-ProcessPPS
	.align	2
	.global	PPSEqual
	.type	PPSEqual, %function
PPSEqual:
	UNWIND(.fnstart)
	@ args = 0, pretend = 0, frame = 16
	@ frame_needed = 1, uses_anonymous_args = 0
	UNWIND(.movsp ip)
	mov	ip, sp
	stmfd	sp!, {r4, r5, r6, r7, r8, r9, r10, fp, ip, lr, pc}
	UNWIND(.pad #4)
	UNWIND(.save {r4, r5, r6, r7, r8, r9, r10, fp, ip, lr})
	UNWIND(.setfp fp, ip, #-4)
	sub	fp, ip, #4
	UNWIND(.pad #20)
	sub	sp, sp, #20
	subs	r7, r0, #0
	beq	.L2046
	cmp	r1, #0
	beq	.L2047
	ldr	ip, [r1, #28]
	ldr	r3, [r7, #28]
	ldr	r0, [r7, #24]
	ldr	lr, [r1, #24]
	ldrb	r4, [r7]	@ zero_extendqisi2
	cmp	r3, ip
	cmpeq	r0, lr
	ldrb	r2, [r1]	@ zero_extendqisi2
	ldrb	lr, [r7, #1]	@ zero_extendqisi2
	ldrb	r3, [r1, #1]	@ zero_extendqisi2
	moveq	ip, #1
	movne	ip, #0
	cmp	r4, r2
	movne	r0, #0
	andeq	r0, ip, #1
	ldr	r4, [r7, #36]
	cmp	lr, r3
	movne	r2, #0
	andeq	r2, r0, #1
	ldr	ip, [r1, #36]
	ldr	lr, [r7, #40]
	ldr	r0, [r1, #40]
	cmp	r4, ip
	movne	r3, #0
	andeq	r3, r2, #1
	ldrb	r4, [r7, #2]	@ zero_extendqisi2
	ldrb	r2, [r1, #2]	@ zero_extendqisi2
	cmp	lr, r0
	movne	ip, #0
	andeq	ip, r3, #1
	ldr	lr, [r7, #44]
	ldr	r3, [r1, #44]
	cmp	r4, r2
	movne	r0, #0
	andeq	r0, ip, #1
	ldr	r4, [r7, #48]
	ldr	ip, [r1, #48]
	cmp	lr, r3
	movne	r2, #0
	andeq	r2, r0, #1
	ldr	lr, [r7, #52]
	ldr	r0, [r1, #52]
	cmp	r4, ip
	movne	r3, #0
	andeq	r3, r2, #1
	ldrb	r5, [r7, #3]	@ zero_extendqisi2
	ldrb	r2, [r1, #3]	@ zero_extendqisi2
	cmp	lr, r0
	movne	ip, #0
	andeq	ip, r3, #1
	ldrb	r4, [r7, #4]	@ zero_extendqisi2
	ldrb	lr, [r1, #4]	@ zero_extendqisi2
	cmp	r5, r2
	movne	r0, #0
	andeq	r0, ip, #1
	ldr	r3, [r1, #60]
	ldr	ip, [r7, #60]
	cmp	r4, lr
	movne	r2, #0
	andeq	r2, r0, #1
	ldrb	r0, [r7, #18]	@ zero_extendqisi2
	ldrb	lr, [r1, #18]	@ zero_extendqisi2
	cmp	ip, r3
	movne	r3, #0
	andeq	r3, r2, #1
	cmp	lr, r0
	movne	r3, #0
	andeq	r3, r3, #1
	cmp	r0, #0
	beq	.L2027
	mov	ip, ip, asl #1
	adds	r2, ip, #6
	str	r2, [fp, #-52]
	beq	.L2027
	add	r2, r7, #4
	sub	r9, r7, #1088
	sub	r8, r1, #1088
	sub	r9, r9, #4
	mov	r0, r2
	sub	r8, r8, #4
	add	r2, r1, #4
	add	r10, r1, #64
	str	r2, [fp, #-48]
	sub	r2, r7, #836
	mov	r6, #0
	mov	r4, r7
	mov	r5, r0
	str	r7, [fp, #-56]
	str	r1, [fp, #-60]
.L2031:
	ldr	r0, [fp, #-48]
	ldrb	r1, [r5, #1]!	@ zero_extendqisi2
	ldrsb	ip, [r0, #1]!
	str	r0, [fp, #-48]
	sxtb	r0, r1
	cmp	ip, r0
	movne	r3, #0
	andeq	r3, r3, #1
	cmp	r1, #0
	beq	.L2045
	cmp	r6, #5
	bhi	.L2032
	add	r7, r4, #64
	add	r4, r4, #128
	mov	r0, r10
	mov	r1, r7
.L2030:
	ldr	lr, [r1], #4
	ldr	ip, [r0], #4
	cmp	lr, ip
	movne	r3, #0
	andeq	r3, r3, #1
	cmp	r1, r4
	bne	.L2030
.L2028:
	ldr	r1, [fp, #-52]
	add	r6, r6, #1
	add	r9, r9, #256
	add	r8, r8, #256
	cmp	r6, r1
	add	r2, r2, #256
	mov	r4, r7
	add	r10, r10, #64
	bne	.L2031
	ldr	r7, [fp, #-56]
	ldr	r1, [fp, #-60]
.L2027:
	ldr	r0, [r7, #56]
	ldr	r2, [r1, #56]
	cmp	r0, r2
	movne	r0, #0
	andeq	r0, r3, #1
	eor	r0, r0, #1
	rsb	r0, r0, #0
.L2025:
	sub	sp, fp, #40
	ldmfd	sp, {r4, r5, r6, r7, r8, r9, r10, fp, sp, pc}
.L2032:
	mov	r0, r8
	mov	r1, r9
.L2029:
	ldr	lr, [r1, #4]!
	ldr	ip, [r0, #4]!
	cmp	lr, ip
	movne	r3, #0
	andeq	r3, r3, #1
	cmp	r2, r1
	bne	.L2029
.L2045:
	add	r7, r4, #64
	b	.L2028
.L2047:
	mov	r0, r1
	movw	r3, #9410
	ldr	r2, .L2048
	ldr	r1, .L2048+4
	bl	dprint_vfmw
	mvn	r0, #0
	b	.L2025
.L2046:
	movw	r3, #9409
	ldr	r2, .L2048
	ldr	r1, .L2048+4
	bl	dprint_vfmw
	mvn	r0, #0
	b	.L2025
.L2049:
	.align	2
.L2048:
	.word	.LC8
	.word	.LC9
	UNWIND(.fnend)
	.size	PPSEqual, .-PPSEqual
	.align	2
	.global	H264_DecPPS
	.type	H264_DecPPS, %function
H264_DecPPS:
	UNWIND(.fnstart)
	@ args = 0, pretend = 0, frame = 8
	@ frame_needed = 1, uses_anonymous_args = 0
	UNWIND(.movsp ip)
	mov	ip, sp
	stmfd	sp!, {r4, r5, r6, r7, r8, r9, fp, ip, lr, pc}
	UNWIND(.pad #4)
	UNWIND(.save {r4, r5, r6, r7, r8, r9, fp, ip, lr})
	UNWIND(.setfp fp, ip, #-4)
	sub	fp, ip, #4
	UNWIND(.pad #8)
	sub	sp, sp, #8
	subs	r5, r0, #0
	beq	.L2064
	ldr	r1, .L2070
	add	r4, r5, #12288
	bl	ue_v
	ldr	r3, [r4, #1292]
	sub	r3, r3, #1
	cmp	r0, r3
	mov	r6, r0
	bhi	.L2065
	ldr	r1, .L2070+4
	mov	r0, r5
	bl	ue_v
	ldr	r3, [r4, #1288]
	sub	r3, r3, #1
	cmp	r0, r3
	mov	r2, r0
	bhi	.L2066
	ldr	r1, [r4, #1300]
	mov	r3, #4000
	mla	r3, r3, r0, r1
	ldrb	r3, [r3, #23]	@ zero_extendqisi2
	cmp	r3, #0
	beq	.L2067
	mov	r8, #2208
	ldr	r3, [r4, #1304]
	mul	r7, r8, r6
	add	r3, r3, r7
	ldrb	r9, [r3, #19]	@ zero_extendqisi2
	cmp	r9, #0
	beq	.L2056
	ldr	r9, .L2070+8
	mov	r0, r5
	mov	r1, r9
	str	r6, [r9, #24]
	str	r2, [r9, #28]
	bl	ProcessPPS
	subs	r5, r0, #0
	bne	.L2068
	ldr	r1, [r4, #1304]
	mov	r0, r9
	add	r1, r1, r7
	bl	PPSEqual
	cmp	r0, #0
	beq	.L2052
	ldr	ip, .L2070+12
	mov	r3, #1
	ldr	r0, [r4, #1304]
	mov	r2, r8
	strb	r3, [r9, #20]
	mov	r1, r9
	add	r0, r0, r7
	ldr	r4, [ip, #56]
	strb	r3, [r9, #19]
	blx	r4
	mov	r0, r5
	b	.L2052
.L2065:
	ldr	r1, .L2070+16
	mov	r0, #1
	bl	dprint_vfmw
	ldr	r3, [r4, #1292]
	sub	r2, r3, #1
	cmp	r6, r2
	bls	.L2060
	ldr	r2, .L2070+20
	ldr	r4, [r2]
	cmp	r4, #0
	beq	.L2060
	add	r5, r5, #61440
	str	r3, [fp, #-40]
	str	r6, [fp, #-44]
	mov	r3, #8
	ldr	r0, [r5, #2680]
	sub	r2, fp, #44
	mov	r1, #110
	blx	r4
	mvn	r0, #0
.L2052:
	sub	sp, fp, #36
	ldmfd	sp, {r4, r5, r6, r7, r8, r9, fp, sp, pc}
.L2056:
	str	r6, [r3, #24]
	mov	r0, r5
	ldr	r3, [r4, #1304]
	add	r3, r3, r7
	str	r2, [r3, #28]
	ldr	r1, [r4, #1304]
	add	r1, r1, r7
	bl	ProcessPPS
	cmp	r0, #0
	bne	.L2069
	ldr	r3, [r4, #1304]
	mov	r2, #1
	add	r3, r3, r7
	strb	r2, [r3, #20]
	ldr	r3, [r4, #1304]
	add	r7, r3, r7
	strb	r2, [r7, #19]
	sub	sp, fp, #36
	ldmfd	sp, {r4, r5, r6, r7, r8, r9, fp, sp, pc}
.L2060:
	mvn	r0, #0
	sub	sp, fp, #36
	ldmfd	sp, {r4, r5, r6, r7, r8, r9, fp, sp, pc}
.L2068:
	ldr	r2, .L2070+24
	mov	r0, #1
	ldr	r1, .L2070+28
	bl	dprint_vfmw
	mvn	r0, #0
	b	.L2052
.L2066:
	ldr	r1, .L2070+32
	mov	r0, #1
	bl	dprint_vfmw
	mvn	r0, #0
	b	.L2052
.L2067:
	ldr	r1, .L2070+36
	mov	r0, #1
	bl	dprint_vfmw
	mvn	r0, #0
	b	.L2052
.L2064:
	movw	r3, #9477
	ldr	r2, .L2070+40
	ldr	r1, .L2070+44
	bl	dprint_vfmw
	mvn	r0, #0
	b	.L2052
.L2069:
	ldr	r2, .L2070+24
	mov	r0, #1
	ldr	r1, .L2070+48
	bl	dprint_vfmw
	ldr	r3, [r4, #1304]
	mov	r2, #1
	mvn	r0, #0
	add	r3, r3, r7
	strb	r2, [r3, #20]
	ldr	r3, [r4, #1304]
	add	r7, r3, r7
	strb	r9, [r7, #19]
	b	.L2052
.L2071:
	.align	2
.L2070:
	.word	.LC169
	.word	.LC171
	.word	.LANCHOR2
	.word	vfmw_Osal_Func_Ptr_S
	.word	.LC170
	.word	g_event_report
	.word	.LANCHOR0+104
	.word	.LC174
	.word	.LC172
	.word	.LC173
	.word	.LC8
	.word	.LC9
	.word	.LC175
	UNWIND(.fnend)
	.size	H264_DecPPS, .-H264_DecPPS
	.align	2
	.global	vui_parameters
	.type	vui_parameters, %function
vui_parameters:
	UNWIND(.fnstart)
	@ args = 0, pretend = 0, frame = 0
	@ frame_needed = 1, uses_anonymous_args = 0
	UNWIND(.movsp ip)
	mov	ip, sp
	stmfd	sp!, {r4, r5, r6, r7, r8, r9, fp, ip, lr, pc}
	UNWIND(.pad #4)
	UNWIND(.save {r4, r5, r6, r7, r8, r9, fp, ip, lr})
	UNWIND(.setfp fp, ip, #-4)
	sub	fp, ip, #4
	subs	r4, r0, #0
	mov	r5, r1
	beq	.L2116
	ldr	r1, .L2123
	bl	u_1
	uxtb	r0, r0
	strb	r0, [r5]
	cmp	r0, #0
	streqb	r0, [r5, #15]
	bne	.L2117
.L2076:
	ldr	r1, .L2123+4
	mov	r0, r4
	bl	u_1
	uxtb	r0, r0
	strb	r0, [r5, #1]
	cmp	r0, #0
	bne	.L2118
.L2077:
	ldr	r1, .L2123+8
	mov	r0, r4
	bl	u_1
	uxtb	r0, r0
	strb	r0, [r5, #3]
	cmp	r0, #0
	moveq	r3, #5
	streq	r3, [r5, #28]
	bne	.L2119
.L2079:
	ldr	r1, .L2123+12
	mov	r0, r4
	bl	u_1
	uxtb	r0, r0
	strb	r0, [r5, #6]
	cmp	r0, #0
	bne	.L2120
.L2080:
	ldr	r1, .L2123+16
	mov	r0, r4
	bl	u_1
	uxtb	r0, r0
	strb	r0, [r5, #8]
	cmp	r0, #0
	bne	.L2121
.L2082:
	ldr	r1, .L2123+20
	mov	r0, r4
	bl	u_1
	uxtb	r0, r0
	strb	r0, [r5, #7]
	cmp	r0, #0
	beq	.L2084
	ldr	r1, .L2123+24
	mov	r0, r4
	bl	ue_v
	ldr	r2, .L2123+28
	mov	r1, #4
	str	r0, [r5, #120]
	mov	r0, r4
	bl	u_v
	ldr	r2, .L2123+32
	mov	r1, #4
	strb	r0, [r5, #116]
	mov	r0, r4
	bl	u_v
	ldr	r3, [r5, #120]
	cmp	r3, #31
	strb	r0, [r5, #117]
	bhi	.L2086
	add	r9, r4, #61440
	ldr	r6, [r9, #2620]
	cmp	r6, #0
	bne	.L2086
	add	r7, r5, #120
	add	r8, r5, #83
.L2087:
	ldr	r1, .L2123+36
	mov	r0, r4
	bl	ue_v
	ldr	r1, .L2123+40
	add	r6, r6, #1
	str	r0, [r7, #4]!
	mov	r0, r4
	bl	ue_v
	ldr	r1, .L2123+44
	str	r0, [r7, #128]
	mov	r0, r4
	bl	u_1
	strb	r0, [r8, #1]!
	ldr	r3, [r5, #120]
	cmp	r3, r6
	bcs	.L2087
	ldr	r2, .L2123+48
	mov	r1, #5
	mov	r0, r4
	bl	u_v
	ldr	r2, .L2123+52
	mov	r1, #5
	str	r0, [r5, #380]
	mov	r0, r4
	bl	u_v
	ldr	r2, .L2123+56
	mov	r1, #5
	str	r0, [r5, #384]
	mov	r0, r4
	bl	u_v
	ldr	r2, .L2123+60
	mov	r1, #5
	str	r0, [r5, #388]
	mov	r0, r4
	bl	u_v
	str	r0, [r5, #392]
.L2084:
	ldr	r1, .L2123+64
	mov	r0, r4
	bl	u_1
	uxtb	r0, r0
	strb	r0, [r5, #10]
	cmp	r0, #0
	bne	.L2122
	ldrb	r3, [r5, #7]	@ zero_extendqisi2
	add	r9, r4, #61440
	cmp	r3, #0
	bne	.L2092
.L2091:
	ldr	r1, .L2123+68
	mov	r0, r4
	bl	u_1
	ldr	r1, .L2123+72
	strb	r0, [r5, #11]
	mov	r0, r4
	bl	u_1
	uxtb	r0, r0
	strb	r0, [r5, #12]
	cmp	r0, #0
	bne	.L2093
	ldr	r0, [r9, #2620]
.L2094:
	adds	r0, r0, #0
	movne	r0, #1
	rsb	r0, r0, #0
	ldmfd	sp, {r4, r5, r6, r7, r8, r9, fp, sp, pc}
.L2122:
	ldr	r1, .L2123+24
	mov	r0, r4
	bl	ue_v
	ldr	r2, .L2123+28
	mov	r1, #4
	str	r0, [r5, #432]
	mov	r0, r4
	bl	u_v
	ldr	r2, .L2123+32
	mov	r1, #4
	strb	r0, [r5, #428]
	mov	r0, r4
	bl	u_v
	ldr	r3, [r5, #432]
	cmp	r3, #31
	strb	r0, [r5, #429]
	bhi	.L2086
	add	r9, r4, #61440
	ldr	r6, [r9, #2620]
	cmp	r6, #0
	bne	.L2086
	add	r8, r5, #392
	add	r7, r5, #432
	add	r8, r8, #3
.L2089:
	ldr	r1, .L2123+36
	mov	r0, r4
	bl	ue_v
	ldr	r1, .L2123+40
	add	r6, r6, #1
	str	r0, [r7, #4]!
	mov	r0, r4
	bl	ue_v
	ldr	r1, .L2123+44
	str	r0, [r7, #128]
	mov	r0, r4
	bl	u_1
	strb	r0, [r8, #1]!
	ldr	r3, [r5, #432]
	cmp	r3, r6
	bcs	.L2089
	ldr	r2, .L2123+48
	mov	r1, #5
	mov	r0, r4
	bl	u_v
	ldr	r2, .L2123+52
	mov	r1, #5
	str	r0, [r5, #692]
	mov	r0, r4
	bl	u_v
	ldr	r2, .L2123+56
	mov	r1, #5
	str	r0, [r5, #696]
	mov	r0, r4
	bl	u_v
	ldr	r2, .L2123+60
	mov	r1, #5
	str	r0, [r5, #700]
	mov	r0, r4
	bl	u_v
	ldrb	r3, [r5, #7]	@ zero_extendqisi2
	cmp	r3, #0
	str	r0, [r5, #704]
	bne	.L2092
	ldrb	r3, [r5, #10]	@ zero_extendqisi2
	cmp	r3, #0
	beq	.L2091
.L2092:
	ldr	r1, .L2123+76
	mov	r0, r4
	bl	u_1
	strb	r0, [r5, #14]
	b	.L2091
.L2121:
	ldr	r2, .L2123+80
	mov	r1, #32
	mov	r0, r4
	bl	u_v
	ldr	r2, .L2123+84
	mov	r1, #32
	str	r0, [r5, #52]
	mov	r0, r4
	bl	u_v
	ldr	r1, .L2123+88
	str	r0, [r5, #56]
	mov	r0, r4
	bl	u_1
	ldr	r2, [r5, #52]
	cmp	r2, #0
	strb	r0, [r5, #9]
	beq	.L2082
	ldr	r0, [r5, #56]
	movw	r1, #10000
	ldr	r3, .L2123+92
	add	r9, r4, #61440
	umull	r0, r1, r0, r1
	ldr	r3, [r3, #244]
	movs	r1, r1, lsr #1
	mov	r0, r0, rrx
	blx	r3
	movw	r3, #52429
	movt	r3, 52428
	add	r0, r0, #5
	umull	r0, r1, r0, r3
	mov	r3, r1, lsr #3
	str	r3, [r9, #1388]
	b	.L2082
.L2120:
	ldr	r1, .L2123+96
	mov	r0, r4
	bl	ue_v
	ldr	r1, .L2123+100
	str	r0, [r5, #44]
	mov	r0, r4
	bl	ue_v
	str	r0, [r5, #48]
	b	.L2080
.L2119:
	ldr	r2, .L2123+104
	mov	r1, #3
	mov	r0, r4
	bl	u_v
	ldr	r1, .L2123+108
	str	r0, [r5, #28]
	mov	r0, r4
	bl	u_1
	ldr	r1, .L2123+112
	strb	r0, [r5, #4]
	mov	r0, r4
	bl	u_1
	uxtb	r0, r0
	strb	r0, [r5, #5]
	cmp	r0, #0
	beq	.L2079
	ldr	r2, .L2123+116
	mov	r1, #8
	mov	r0, r4
	bl	u_v
	ldr	r2, .L2123+120
	mov	r1, #8
	str	r0, [r5, #32]
	mov	r0, r4
	bl	u_v
	ldr	r2, .L2123+124
	mov	r1, #8
	str	r0, [r5, #36]
	mov	r0, r4
	bl	u_v
	str	r0, [r5, #40]
	b	.L2079
.L2118:
	ldr	r1, .L2123+128
	mov	r0, r4
	bl	u_1
	strb	r0, [r5, #2]
	b	.L2077
.L2117:
	ldr	r2, .L2123+132
	mov	r1, #8
	mov	r0, r4
	bl	u_v
	uxtb	r0, r0
	strb	r0, [r5, #15]
	cmp	r0, #255
	bne	.L2076
	ldr	r2, .L2123+136
	mov	r1, #16
	mov	r0, r4
	bl	u_v
	ldr	r2, .L2123+140
	mov	r1, #16
	str	r0, [r5, #16]
	mov	r0, r4
	bl	u_v
	str	r0, [r5, #20]
	b	.L2076
.L2093:
	ldr	r1, .L2123+144
	mov	r0, r4
	bl	u_1
	ldr	r1, .L2123+148
	strb	r0, [r5, #13]
	mov	r0, r4
	bl	ue_v
	ldr	r1, .L2123+152
	str	r0, [r5, #60]
	mov	r0, r4
	bl	ue_v
	ldr	r1, .L2123+156
	str	r0, [r5, #64]
	mov	r0, r4
	bl	ue_v
	ldr	r1, .L2123+160
	str	r0, [r5, #72]
	mov	r0, r4
	bl	ue_v
	ldr	r1, .L2123+164
	str	r0, [r5, #68]
	mov	r0, r4
	bl	ue_v
	ldr	r1, .L2123+168
	str	r0, [r5, #76]
	mov	r0, r4
	bl	ue_v
	str	r0, [r5, #80]
	ldr	r0, [r9, #2620]
	cmp	r0, #0
	beq	.L2094
.L2116:
	mvn	r0, #0
	ldmfd	sp, {r4, r5, r6, r7, r8, r9, fp, sp, pc}
.L2086:
	ldr	r1, .L2123+172
	mov	r0, #1
	bl	dprint_vfmw
	b	.L2116
.L2124:
	.align	2
.L2123:
	.word	.LC176
	.word	.LC180
	.word	.LC182
	.word	.LC189
	.word	.LC192
	.word	.LC196
	.word	.LC197
	.word	.LC198
	.word	.LC199
	.word	.LC201
	.word	.LC202
	.word	.LC203
	.word	.LC204
	.word	.LC205
	.word	.LC206
	.word	.LC207
	.word	.LC208
	.word	.LC210
	.word	.LC211
	.word	.LC209
	.word	.LC193
	.word	.LC194
	.word	.LC195
	.word	vfmw_Osal_Func_Ptr_S
	.word	.LC190
	.word	.LC191
	.word	.LC183
	.word	.LC184
	.word	.LC185
	.word	.LC186
	.word	.LC187
	.word	.LC188
	.word	.LC181
	.word	.LC177
	.word	.LC178
	.word	.LC179
	.word	.LC212
	.word	.LC213
	.word	.LC214
	.word	.LC215
	.word	.LC216
	.word	.LC217
	.word	.LC218
	.word	.LC200
	UNWIND(.fnend)
	.size	vui_parameters, .-vui_parameters
	.align	2
	.global	SPSEqual
	.type	SPSEqual, %function
SPSEqual:
	UNWIND(.fnstart)
	@ args = 0, pretend = 0, frame = 16
	@ frame_needed = 1, uses_anonymous_args = 0
	UNWIND(.movsp ip)
	mov	ip, sp
	stmfd	sp!, {r4, r5, r6, r7, r8, r9, r10, fp, ip, lr, pc}
	UNWIND(.pad #4)
	UNWIND(.save {r4, r5, r6, r7, r8, r9, r10, fp, ip, lr})
	UNWIND(.setfp fp, ip, #-4)
	sub	fp, ip, #4
	UNWIND(.pad #20)
	sub	sp, sp, #20
	subs	r6, r0, #0
	beq	.L2157
	cmp	r1, #0
	beq	.L2158
	ldrb	lr, [r1]	@ zero_extendqisi2
	ldrb	r3, [r6]	@ zero_extendqisi2
	ldr	ip, [r6, #28]
	ldr	r2, [r1, #28]
	ldrb	r0, [r6, #1]	@ zero_extendqisi2
	cmp	r3, lr
	cmpeq	ip, r2
	ldrb	r5, [r1, #1]	@ zero_extendqisi2
	ldrb	r2, [r6, #2]	@ zero_extendqisi2
	ldrb	r4, [r1, #2]	@ zero_extendqisi2
	moveq	lr, #1
	movne	lr, #0
	ldr	r3, [r6, #32]
	cmp	r0, r5
	movne	ip, #0
	andeq	ip, lr, #1
	ldr	r5, [r1, #32]
	cmp	r2, r4
	movne	r0, #0
	andeq	r0, ip, #1
	ldr	lr, [r1, #36]
	ldr	r4, [r6, #36]
	cmp	r3, r5
	movne	r2, #0
	andeq	r2, r0, #1
	ldrb	ip, [r1, #25]	@ zero_extendqisi2
	ldrb	r0, [r6, #25]	@ zero_extendqisi2
	cmp	r4, lr
	movne	r3, #0
	andeq	r3, r2, #1
	cmp	ip, r0
	movne	r3, #0
	andeq	r3, r3, #1
	cmp	r0, #0
	beq	.L2129
	add	r2, r6, #3
	sub	r0, r1, #1104
	str	r2, [fp, #-48]
	add	r2, r1, #3
	add	r9, r1, #48
	sub	r10, r6, #1104
	sub	r4, r6, #848
	mov	r8, r6
	str	r6, [fp, #-52]
	mov	r7, #0
	mov	r5, r0
	mov	r6, r2
	str	r1, [fp, #-56]
.L2133:
	ldr	r1, [fp, #-48]
	ldrsb	r0, [r6, #1]!
	ldrb	r2, [r1, #1]!	@ zero_extendqisi2
	str	r1, [fp, #-48]
	sxtb	r1, r2
	cmp	r0, r1
	movne	r3, #0
	andeq	r3, r3, #1
	cmp	r2, #0
	beq	.L2130
	cmp	r7, #5
	bhi	.L2140
	add	r2, r8, #48
	add	lr, r8, #112
	mov	r1, r9
.L2132:
	ldr	ip, [r2, #4]!
	ldr	r0, [r1, #4]!
	cmp	ip, r0
	movne	r3, #0
	andeq	r3, r3, #1
	cmp	r2, lr
	bne	.L2132
.L2130:
	add	r7, r7, #1
	add	r10, r10, #256
	cmp	r7, #8
	add	r5, r5, #256
	add	r4, r4, #256
	add	r8, r8, #64
	add	r9, r9, #64
	bne	.L2133
	ldr	r6, [fp, #-52]
	ldr	r1, [fp, #-56]
.L2129:
	ldr	r2, [r1, #2196]
	ldr	ip, [r6, #2200]
	ldr	r0, [r1, #2200]
	ldr	lr, [r6, #2196]
	cmp	ip, r0
	cmpeq	lr, r2
	moveq	r2, #1
	movne	r2, #0
	cmp	ip, #0
	and	r3, r3, r2
	beq	.L2135
	cmp	ip, #1
	bne	.L2134
	ldr	r0, [r1, #2208]
	ldr	ip, [r6, #2208]
	ldrb	r2, [r6, #16]	@ zero_extendqisi2
	ldrb	r4, [r1, #16]	@ zero_extendqisi2
	ldr	lr, [r6, #2212]
	cmp	ip, r0
	cmpeq	r2, r4
	ldr	r2, [r1, #2212]
	ldr	r5, [r6, #2216]
	ldr	ip, [r1, #2216]
	moveq	r0, #1
	movne	r0, #0
	cmp	lr, r2
	movne	r2, #0
	andeq	r2, r0, #1
	cmp	r5, ip
	movne	r2, #0
	andeq	r2, r2, #1
	cmp	r5, #0
	and	r3, r3, r2
	beq	.L2134
	add	ip, r6, #2208
	add	r0, r1, #2208
	add	ip, ip, #8
	add	r0, r0, #8
	mov	r2, #0
.L2137:
	ldr	r4, [ip, #4]!
	add	r2, r2, #1
	ldr	lr, [r0, #4]!
	cmp	r4, lr
	movne	r3, #0
	andeq	r3, r3, #1
	cmp	r2, r5
	bne	.L2137
.L2134:
	ldrb	lr, [r6, #17]	@ zero_extendqisi2
	ldrb	r0, [r1, #17]	@ zero_extendqisi2
	ldr	r2, [r6, #3244]
	ldr	r4, [r1, #3244]
	ldr	r7, [r6, #3248]
	cmp	lr, r0
	cmpeq	r2, r4
	ldr	r2, [r1, #3248]
	ldr	r5, [r6, #3252]
	ldr	r4, [r1, #3252]
	moveq	ip, #1
	movne	ip, #0
	ldrb	lr, [r1, #18]	@ zero_extendqisi2
	cmp	r7, r2
	movne	r0, #0
	andeq	r0, ip, #1
	ldrb	ip, [r6, #18]	@ zero_extendqisi2
	cmp	r5, r4
	movne	r2, #0
	andeq	r2, r0, #1
	cmp	lr, ip
	movne	r2, #0
	andeq	r2, r2, #1
	cmp	ip, #0
	and	r3, r3, r2
	bne	.L2138
	ldrb	r0, [r6, #19]	@ zero_extendqisi2
	ldrb	r2, [r1, #19]	@ zero_extendqisi2
	cmp	r0, r2
	movne	r3, #0
	andeq	r3, r3, #1
.L2138:
	ldrb	r2, [r1, #20]	@ zero_extendqisi2
	ldrb	ip, [r6, #21]	@ zero_extendqisi2
	ldrb	r0, [r1, #21]	@ zero_extendqisi2
	ldrb	lr, [r6, #20]	@ zero_extendqisi2
	cmp	r0, ip
	cmpeq	lr, r2
	moveq	r2, #1
	movne	r2, #0
	cmp	ip, #0
	and	r3, r3, r2
	bne	.L2159
.L2139:
	ldrb	r2, [r6, #22]	@ zero_extendqisi2
	ldr	r0, [r6, #3316]
	ldr	ip, [r1, #3316]
	ldrb	r1, [r1, #22]	@ zero_extendqisi2
	cmp	r0, ip
	cmpeq	r2, r1
	moveq	r2, #1
	movne	r2, #0
	tst	r3, r2
	mvneq	r0, #0
	movne	r0, #0
.L2127:
	sub	sp, fp, #40
	ldmfd	sp, {r4, r5, r6, r7, r8, r9, r10, fp, sp, pc}
.L2159:
	ldr	ip, [r1, #3260]
	ldr	lr, [r6, #3260]
	ldr	r0, [r6, #3256]
	ldr	r2, [r1, #3256]
	ldr	r5, [r6, #3264]
	cmp	lr, ip
	cmpeq	r0, r2
	ldr	r2, [r1, #3264]
	ldr	r4, [r6, #3268]
	ldr	lr, [r1, #3268]
	moveq	ip, #1
	movne	ip, #0
	cmp	r5, r2
	movne	r0, #0
	andeq	r0, ip, #1
	cmp	r4, lr
	movne	r2, #0
	andeq	r2, r0, #1
	and	r3, r3, r2
	b	.L2139
.L2140:
	mov	r1, r5
	mov	r2, r10
.L2131:
	ldr	ip, [r2, #4]!
	ldr	r0, [r1, #4]!
	cmp	ip, r0
	movne	r3, #0
	andeq	r3, r3, #1
	cmp	r2, r4
	bne	.L2131
	b	.L2130
.L2135:
	ldr	r0, [r6, #2204]
	ldr	r2, [r1, #2204]
	cmp	r0, r2
	movne	r3, #0
	andeq	r3, r3, #1
	b	.L2134
.L2158:
	mov	r0, r1
	movw	r3, #9737
	ldr	r2, .L2160
	ldr	r1, .L2160+4
	bl	dprint_vfmw
	mvn	r0, #0
	b	.L2127
.L2157:
	movw	r3, #9736
	ldr	r2, .L2160
	ldr	r1, .L2160+4
	bl	dprint_vfmw
	mvn	r0, #0
	b	.L2127
.L2161:
	.align	2
.L2160:
	.word	.LC8
	.word	.LC9
	UNWIND(.fnend)
	.size	SPSEqual, .-SPSEqual
	.global	__aeabi_idiv
	.align	2
	.global	H264GetDar
	.type	H264GetDar, %function
H264GetDar:
	UNWIND(.fnstart)
	@ args = 4, pretend = 0, frame = 0
	@ frame_needed = 1, uses_anonymous_args = 0
	UNWIND(.movsp ip)
	mov	ip, sp
	stmfd	sp!, {r4, r5, fp, ip, lr, pc}
	UNWIND(.pad #4)
	UNWIND(.save {r4, r5, fp, ip, lr})
	UNWIND(.setfp fp, ip, #-4)
	sub	fp, ip, #4
	subs	r4, r0, #0
	mov	r5, r3
	mov	r0, r1
	beq	.L2190
	subs	r3, r4, #255
	movne	r3, #1
	cmp	r4, #16
	movle	r1, #0
	andgt	r1, r3, #1
	cmp	r1, #0
	movne	r4, #0
	movne	r2, r4
	bne	.L2163
	cmp	r2, #0
	cmpne	r0, #0
	moveq	ip, #1
	movne	ip, #0
	cmp	r4, #255
	movne	ip, #0
	andeq	ip, ip, #1
	cmp	ip, #0
	bne	.L2176
	cmp	r4, #1
	beq	.L2191
	cmp	r3, #0
	ldrne	r0, .L2194
	addne	r4, r0, r4, lsl #3
	ldrne	r2, [r4, #120]
	ldrne	r0, [r4, #116]
	mov	r1, r2
	mov	r0, r0, asl #10
	bl	__aeabi_idiv
	ldr	r1, [fp, #4]
	mov	r4, r0
	mov	r0, r5, asl #10
	bl	__aeabi_idiv
	movw	r3, #2405
	movw	r1, #2262
	mul	r0, r0, r4
	add	r2, r0, #1020
	cmp	r0, #0
	add	r2, r2, #3
	movlt	r0, r2
	mov	r2, r0, asr #10
	cmp	r2, r3
	rsble	r3, r2, #2400
	subgt	r3, r2, #2400
	addle	r3, r3, #6
	subgt	r3, r3, #6
	cmp	r2, r1
	ble	.L2192
	sub	r1, r2, #2256
	sub	r1, r1, #7
	cmp	r3, r1
	bge	.L2169
.L2182:
	mov	r4, #4
.L2163:
	mov	r3, r4
	ldr	r1, .L2194+4
	mov	r0, #22
	bl	dprint_vfmw
	mov	r0, r4
	ldmfd	sp, {r4, r5, fp, sp, pc}
.L2176:
	mov	r4, r1
.L2190:
	mov	r2, r4
	b	.L2163
.L2192:
	rsb	r1, r2, #2256
	add	r1, r1, #7
	cmp	r3, r1
	blt	.L2182
.L2169:
	movw	r3, #1819
	cmp	r2, r3
	bgt	.L2170
	rsb	r3, r2, #1808
	add	r3, r3, #12
	cmp	r1, r3
	blt	.L2184
.L2171:
	movw	r1, #1364
	cmp	r2, r1
	rsble	r4, r2, #1360
	subgt	r4, r2, #1360
	addle	r4, r4, #5
	subgt	r4, r4, #5
	cmp	r3, r4
	movlt	r4, #2
	movge	r4, #1
	b	.L2163
.L2191:
	ldr	r3, [fp, #4]
	cmp	r5, #3840
	cmpeq	r3, #2160
	moveq	r2, #1
	movne	r2, #0
	moveq	r2, ip
	moveq	r4, #2
	beq	.L2163
	sub	r3, r3, #1072
	sub	r3, r3, #8
	bics	r3, r3, #8
	moveq	r1, #1
	movne	r1, #0
	cmp	r5, #1920
	movne	r1, #0
	andeq	r1, r1, #1
	cmp	r1, #0
	beq	.L2193
.L2189:
	mov	r4, #2
	b	.L2163
.L2170:
	sub	r3, r2, #1808
	sub	r3, r3, #12
	cmp	r1, r3
	bge	.L2171
.L2184:
	mov	r4, #3
	b	.L2163
.L2193:
	ldr	r3, [fp, #4]
	cmp	r5, #1280
	cmpeq	r3, #720
	moveq	r2, #1
	movne	r2, #0
	moveq	r2, r1
	beq	.L2189
	cmp	r5, #640
	cmpeq	r3, #480
	moveq	r4, #1
	movne	r4, #5
	b	.L2163
.L2195:
	.align	2
.L2194:
	.word	.LANCHOR0
	.word	.LC219
	UNWIND(.fnend)
	.size	H264GetDar, .-H264GetDar
	.align	2
	.global	ProcessSPS
	.type	ProcessSPS, %function
ProcessSPS:
	UNWIND(.fnstart)
	@ args = 0, pretend = 0, frame = 40
	@ frame_needed = 1, uses_anonymous_args = 0
	UNWIND(.movsp ip)
	mov	ip, sp
	stmfd	sp!, {r4, r5, r6, r7, r8, r9, r10, fp, ip, lr, pc}
	UNWIND(.pad #4)
	UNWIND(.save {r4, r5, r6, r7, r8, r9, r10, fp, ip, lr})
	UNWIND(.setfp fp, ip, #-4)
	sub	fp, ip, #4
	UNWIND(.pad #52)
	sub	sp, sp, #52
	subs	r5, r0, #0
	mov	r4, r1
	beq	.L2315
	cmp	r1, #0
	beq	.L2317
	ldr	r2, [r1, #28]
	cmp	r2, #100
	cmpne	r2, #110
	moveq	r3, #1
	movne	r3, #0
	cmp	r2, #122
	orreq	r3, r3, #1
	cmp	r2, #144
	orreq	r3, r3, #1
	cmp	r2, #83
	orreq	r3, r3, #1
	cmp	r2, #86
	orreq	r3, r3, #1
	cmp	r3, #0
	streqb	r3, [r1, #25]
	moveq	r3, #1
	streq	r3, [r1, #40]
	bne	.L2318
.L2214:
	ldr	r1, .L2334
	mov	r0, r5
	bl	ue_v
	cmp	r0, #12
	str	r0, [r4, #2196]
	bhi	.L2227
	add	r6, r5, #61440
	ldr	r3, [r6, #2620]
	cmp	r3, #0
	bne	.L2227
	ldr	r1, .L2334+4
	mov	r0, r5
	bl	ue_v
	cmp	r0, #2
	str	r0, [r4, #2200]
	bhi	.L2229
	ldr	r3, [r6, #2620]
	cmp	r3, #0
	bne	.L2229
	cmp	r0, #0
	beq	.L2319
	cmp	r0, #1
	beq	.L2320
.L2234:
	ldr	r1, .L2334+8
	mov	r0, r5
	bl	ue_v
	str	r0, [r4, #3244]
	ldr	r3, [r6, #2620]
	cmp	r3, #0
	bne	.L2315
	ldr	r1, .L2334+12
	mov	r0, r5
	bl	u_1
	strb	r0, [r4, #17]
	ldr	r3, [r6, #2620]
	cmp	r3, #0
	bne	.L2315
	ldr	r1, .L2334+16
	mov	r0, r5
	bl	ue_v
	movw	r8, #509
	sub	r3, r0, #1
	str	r0, [r4, #3248]
	cmp	r3, r8
	bhi	.L2238
	ldr	r3, [r6, #2620]
	cmp	r3, #0
	bne	.L2238
	ldr	r1, .L2334+20
	mov	r0, r5
	bl	ue_v
	str	r0, [r4, #3252]
	ldr	r3, [r6, #2620]
	cmp	r3, #0
	bne	.L2315
	ldr	r1, .L2334+24
	mov	r0, r5
	bl	u_1
	uxtb	r0, r0
	strb	r0, [r4, #18]
	ldr	r3, [r6, #2620]
	cmp	r3, #0
	bne	.L2315
	cmp	r0, #0
	bne	.L2321
	ldr	r1, .L2334+28
	mov	r0, r5
	bl	u_1
	ldr	r7, [r4, #3252]
	add	r7, r7, #1
	cmp	r7, #255
	strb	r0, [r4, #19]
	bhi	.L2273
	ldr	r3, [r4, #3248]
	add	r3, r3, #1
	cmp	r7, #1
	cmphi	r3, #3
	movhi	r9, #2
	bls	.L2273
.L2242:
	mul	r7, r7, r9
	mov	r10, r3, asl #4
	mov	r7, r7, asl #4
	mul	r1, r10, r7
	add	r1, r1, r1, lsr #1
	cmp	r1, #100663296
	bhi	.L2322
	ldr	r2, [r4, #32]
	sub	r3, r2, #10
	cmp	r3, #31
	ldrls	pc, [pc, r3, asl #2]
	b	.L2244
.L2246:
	.word	.L2245
	.word	.L2247
	.word	.L2280
	.word	.L2280
	.word	.L2244
	.word	.L2244
	.word	.L2244
	.word	.L2244
	.word	.L2244
	.word	.L2244
	.word	.L2280
	.word	.L2249
	.word	.L2251
	.word	.L2244
	.word	.L2244
	.word	.L2244
	.word	.L2244
	.word	.L2244
	.word	.L2244
	.word	.L2244
	.word	.L2251
	.word	.L2252
	.word	.L2253
	.word	.L2244
	.word	.L2244
	.word	.L2244
	.word	.L2244
	.word	.L2244
	.word	.L2244
	.word	.L2244
	.word	.L2255
	.word	.L2255
.L2318:
	ldr	r1, .L2334+32
	bl	ue_v
	cmp	r0, #1
	str	r0, [r4, #40]
	bls	.L2323
.L2201:
	mov	r2, r0
	ldr	r1, .L2334+36
	mov	r0, #1
	bl	dprint_vfmw
	ldr	r1, .L2334+40
	mov	r0, r5
	bl	ue_v
	uxth	r0, r0
	add	r2, r0, #8
	str	r2, [r4, #44]
	cmp	r2, #8
	beq	.L2324
.L2203:
	ldr	r1, .L2334+44
	mov	r0, #1
	bl	dprint_vfmw
	ldr	r3, .L2334+48
	ldr	r6, [r3]
	cmp	r6, #0
	beq	.L2315
	ldr	r1, [r4, #44]
	add	r5, r5, #61440
	mov	ip, #0
	mov	r3, #8
	ldr	r0, [r5, #2680]
	sub	r2, fp, #68
	str	r1, [fp, #-64]
	mov	r1, #119
	str	ip, [fp, #-68]
	blx	r6
	mvn	r0, #0
.L2308:
	sub	sp, fp, #40
	ldmfd	sp, {r4, r5, r6, r7, r8, r9, r10, fp, sp, pc}
.L2323:
	add	r6, r5, #61440
	ldr	r3, [r6, #2620]
	cmp	r3, #0
	bne	.L2201
	ldr	r1, .L2334+40
	mov	r0, r5
	bl	ue_v
	uxth	r0, r0
	add	r2, r0, #8
	str	r2, [r4, #44]
	cmp	r2, #8
	bne	.L2205
	ldr	r3, [r6, #2620]
	cmp	r3, #0
	beq	.L2206
.L2205:
	ldr	r1, .L2334+44
	mov	r0, #1
	bl	dprint_vfmw
	ldr	r3, .L2334+48
	ldr	r7, [r3]
	cmp	r7, #0
	beq	.L2206
	ldr	r0, [r4, #44]
	mov	r2, #0
	mov	r3, #8
	str	r2, [fp, #-68]
	mov	r1, #119
	sub	r2, fp, #68
	str	r0, [fp, #-64]
	ldr	r0, [r6, #2680]
	blx	r7
.L2206:
	ldr	r1, .L2334+52
	mov	r0, r5
	bl	ue_v
	uxth	r0, r0
	add	r2, r0, #8
	str	r2, [r4, #48]
	cmp	r2, #8
	bne	.L2208
	ldr	r3, [r6, #2620]
	cmp	r3, #0
	bne	.L2208
.L2209:
	ldr	r1, .L2334+56
	mov	r0, r5
	bl	u_1
	cmp	r0, #0
	bne	.L2211
	ldr	r6, [r6, #2620]
	cmp	r6, #0
	bne	.L2211
	ldr	r1, .L2334+60
	mov	r0, r5
	bl	u_1
	uxtb	r0, r0
	strb	r0, [r4, #25]
	cmp	r0, #1
	bne	.L2214
	add	r7, r4, #1968
	sub	r8, fp, #72
	add	r7, r7, #4
	add	r10, r4, #3
	add	r9, r4, #52
	b	.L2220
.L2327:
	ldr	r3, .L2334+64
	cmp	r1, #0
	add	ip, r3, #16
	moveq	r3, ip
	mov	r1, r3
	ldr	r3, .L2334+68
	ldr	r3, [r3, #52]
	blx	r3
.L2216:
	add	r6, r6, #1
	add	r7, r7, #16
	cmp	r6, #6
	add	r9, r9, #64
	beq	.L2325
.L2220:
	ldr	r1, .L2334+72
	mov	r0, r5
	bl	u_1
	clz	r1, r6
	mov	r2, #16
	mov	r1, r1, lsr #5
	cmp	r0, #1
	mov	r3, r0
	mov	r0, r7
	str	r3, [r8, #4]!
	strb	r3, [r10, #1]!
	beq	.L2326
	cmp	r6, #0
	cmpne	r6, #3
	beq	.L2327
	ldr	r3, .L2334+68
	mov	r2, #16
	sub	r1, r7, #16
	mov	r0, r7
	ldr	r3, [r3, #52]
	blx	r3
	b	.L2216
.L2324:
	add	r3, r5, #61440
	ldr	r3, [r3, #2620]
	cmp	r3, #0
	bne	.L2203
.L2315:
	mvn	r0, #0
	sub	sp, fp, #40
	ldmfd	sp, {r4, r5, r6, r7, r8, r9, r10, fp, sp, pc}
.L2319:
	ldr	r1, .L2334+76
	mov	r0, r5
	bl	ue_v
	cmp	r0, #12
	str	r0, [r4, #2204]
	bhi	.L2232
	ldr	r3, [r6, #2620]
	cmp	r3, #0
	beq	.L2234
.L2232:
	ldr	r1, .L2334+80
	mov	r0, #1
	bl	dprint_vfmw
	mvn	r0, #0
	b	.L2308
.L2208:
	ldr	r1, .L2334+84
	mov	r0, #1
	bl	dprint_vfmw
	ldr	r3, .L2334+48
	ldr	r7, [r3]
	cmp	r7, #0
	beq	.L2209
	ldr	r0, [r4, #48]
	mov	r2, #0
	mov	r3, #8
	str	r2, [fp, #-68]
	mov	r1, #119
	sub	r2, fp, #68
	str	r0, [fp, #-64]
	ldr	r0, [r6, #2680]
	blx	r7
	b	.L2209
.L2321:
	ldr	r7, [r4, #3252]
	strb	r3, [r4, #19]
	sub	r3, r7, #1
	cmp	r3, r8
	bhi	.L2273
	ldr	r3, [r4, #3248]
	mov	r9, #1
	add	r7, r7, #1
	add	r3, r3, r9
	b	.L2242
.L2280:
	mov	r0, #60416
	movt	r0, 13
.L2248:
	bl	__aeabi_uidiv
	ldr	r1, .L2334+88
	cmp	r0, #16
	movcc	r8, r0
	movcs	r8, #16
	mov	r2, r8
	mov	r0, #21
	bl	dprint_vfmw
	ldr	r2, [r4, #3244]
	cmp	r2, r8
	bhi	.L2256
	ldr	r3, [r6, #2620]
	cmp	r3, #0
	beq	.L2257
.L2256:
	mov	r3, r8
	ldr	r1, .L2334+92
	mov	r0, #0
	bl	dprint_vfmw
	ldr	r3, [r4, #3244]
	cmp	r3, #16
	bhi	.L2312
	cmp	r8, r3
	movcc	r8, r3
.L2312:
	str	r8, [r4, #3244]
.L2257:
	ldr	r1, .L2334+96
	mov	r0, r5
	bl	u_1
	strb	r0, [r4, #20]
	ldr	r3, [r6, #2620]
	cmp	r3, #0
	bne	.L2315
	ldr	r1, .L2334+100
	mov	r0, r5
	bl	u_1
	uxtb	r0, r0
	strb	r0, [r4, #21]
	ldr	r3, [r6, #2620]
	cmp	r3, #0
	bne	.L2315
	cmp	r0, #0
	bne	.L2328
.L2259:
	mov	r2, r10, lsr #1
	mov	r3, r7, lsr #1
	str	r10, [r4, #3276]
	str	r7, [r4, #3280]
	str	r2, [r4, #3284]
	str	r3, [r4, #3288]
.L2261:
	ldr	r1, .L2334+104
	mov	r0, r5
	bl	u_1
	uxtb	r3, r0
	strb	r3, [r4, #22]
	ldr	r2, [r6, #2620]
	cmp	r2, #0
	bne	.L2315
	cmp	r3, #0
	mov	r2, #2
	str	r2, [r4, #3332]
	bne	.L2329
	mov	r0, r3
	strb	r3, [r4, #3307]
	mov	r3, #5
	str	r3, [r4, #3320]
.L2264:
	ldr	r2, [r4, #3312]
	mov	r3, r10
	ldr	r1, [r4, #3308]
	str	r7, [sp]
	bl	H264GetDar
	ldr	r3, [r4, #3244]
	cmp	r3, #0
	str	r0, [r4, #3316]
	ldreq	r2, [r5]
	beq	.L2268
	ldr	r2, [r4, #3372]
	cmp	r3, r2
	ldr	r2, [r5]
	bhi	.L2270
	ldr	r1, [r2, #24]
	sub	r1, r1, #2
	cmp	r1, #1
	bls	.L2270
.L2268:
	cmp	r8, #16
	add	r5, r5, #12288
	movcs	r8, #16
	str	r8, [r5, #1296]
	ldr	r3, [r2, #28]
	cmp	r3, #25
	beq	.L2330
.L2271:
	add	r8, r8, #1
	mov	r0, #0
	str	r8, [r4, #3272]
	b	.L2308
.L2255:
	mov	r0, #12582912
	b	.L2248
.L2251:
	mov	r0, #30208
	movt	r0, 47
	b	.L2248
.L2247:
	mov	r0, #17920
	movt	r0, 5
	b	.L2248
.L2245:
	mov	r0, #20992
	movt	r0, 2
	b	.L2248
.L2253:
	mov	r0, #7864320
	b	.L2248
.L2252:
	mov	r0, #30720
	movt	r0, 105
	b	.L2248
.L2249:
	mov	r0, #55296
	movt	r0, 27
	b	.L2248
.L2244:
	ldr	r1, .L2334+108
	mov	r0, #1
	bl	dprint_vfmw
	mvn	r0, #0
	b	.L2308
.L2227:
	ldr	r1, .L2334+112
	mov	r0, #1
	bl	dprint_vfmw
	mvn	r0, #0
	b	.L2308
.L2273:
	ldr	r1, .L2334+116
	mov	r0, #1
	bl	dprint_vfmw
	mvn	r0, #0
	b	.L2308
.L2270:
	cmp	r8, r3
	movcs	r8, r3
	b	.L2268
.L2328:
	ldr	r1, .L2334+120
	mov	r0, r5
	bl	ue_v
	ldr	r1, .L2334+124
	str	r0, [r4, #3256]
	mov	r0, r5
	bl	ue_v
	ldr	r1, .L2334+128
	str	r0, [r4, #3260]
	mov	r0, r5
	bl	ue_v
	ldr	r1, .L2334+132
	str	r0, [r4, #3264]
	mov	r0, r5
	bl	ue_v
	ldr	r3, [r4, #3264]
	ldr	r2, [r4, #3256]
	mov	r1, r9, asl #1
	ldr	ip, [r4, #3260]
	mov	r3, r3, asl #1
	mov	r2, r2, asl #1
	mul	r9, r9, r3
	rsb	r3, r2, r10
	sub	r3, r3, ip, asl #1
	rsb	ip, r9, r7
	str	r0, [r4, #3268]
	mls	r0, r0, r1, ip
	cmp	r3, #0
	cmpgt	r0, #0
	ble	.L2259
	add	r2, r2, r3, lsr #1
	add	r9, r9, r0, lsr #1
	str	r2, [r4, #3284]
	str	r9, [r4, #3288]
	str	r3, [r4, #3276]
	str	r0, [r4, #3280]
	b	.L2261
.L2329:
	add	r1, r4, #3280
	mov	r0, r5
	add	r1, r1, #12
	bl	vui_parameters
	cmp	r0, #0
	bne	.L2314
	ldrb	r3, [r4, #3304]	@ zero_extendqisi2
	cmp	r3, #0
	beq	.L2314
	ldr	r2, [r4, #3372]
	clz	r3, r2
	mov	r3, r3, lsr #5
	cmp	r8, r2
	orrcc	r3, r3, #1
	cmp	r3, #0
	bne	.L2331
	ldr	r3, [r4, #3244]
	ldrb	r0, [r4, #3307]	@ zero_extendqisi2
	cmp	r2, r3
	movcs	r8, r2
	movcc	r8, r3
	b	.L2264
.L2330:
	ldr	r3, [r2, #732]
	cmp	r3, #0
	bne	.L2271
	ldr	r1, [r2, #716]
	ldr	ip, [r2, #692]
	cmp	r8, r1
	ldr	r0, [r2, #696]
	bls	.L2272
	ldr	r3, .L2334+48
	ldr	r4, [r3]
	cmp	r4, #0
	beq	.L2315
	str	r1, [fp, #-72]
	mov	r3, #8
	str	r8, [fp, #-76]
	sub	r2, fp, #76
	ldr	r0, [r6, #2680]
	mov	r1, #106
	blx	r4
	mvn	r0, #0
	b	.L2308
.L2331:
	mov	r3, r8
	ldr	r1, .L2334+136
	mov	r0, #1
	bl	dprint_vfmw
.L2314:
	ldrb	r0, [r4, #3307]	@ zero_extendqisi2
	b	.L2264
.L2325:
	add	r6, r4, #2064
	sub	r8, fp, #88
	add	r6, r6, #4
	add	r10, r4, #9
	add	r9, r4, #436
	mov	r7, #0
.L2225:
	ldr	r1, .L2334+72
	mov	r0, r5
	bl	u_1
	mov	r2, #64
	mov	r3, r0
	cmp	r3, #1
	mov	r0, r6
	str	r3, [r8, #4]!
	strb	r3, [r10, #1]!
	beq	.L2332
	ldr	r1, .L2334+140
	cmp	r7, #0
	ldr	r3, .L2334+68
	add	ip, r1, #64
	ldr	r3, [r3, #52]
	movne	r1, ip
	blx	r3
.L2222:
	add	r7, r7, #1
	add	r6, r6, #64
	cmp	r7, #2
	add	r9, r9, #256
	bne	.L2225
	b	.L2214
.L2320:
	ldr	r1, .L2334+144
	mov	r0, r5
	bl	u_1
	strb	r0, [r4, #16]
	ldr	r3, [r6, #2620]
	cmp	r3, #0
	bne	.L2315
	ldr	r1, .L2334+148
	mov	r0, r5
	bl	se_v
	str	r0, [r4, #2208]
	ldr	r3, [r6, #2620]
	cmp	r3, #0
	bne	.L2315
	ldr	r1, .L2334+152
	mov	r0, r5
	bl	se_v
	str	r0, [r4, #2212]
	ldr	r3, [r6, #2620]
	cmp	r3, #0
	bne	.L2315
	ldr	r1, .L2334+156
	mov	r0, r5
	bl	ue_v
	cmp	r0, #255
	str	r0, [r4, #2216]
	bhi	.L2235
	ldr	r7, [r6, #2620]
	cmp	r7, #0
	bne	.L2235
	cmp	r0, #0
	addne	r8, r4, #2208
	addne	r8, r8, #8
	bne	.L2237
	b	.L2234
.L2333:
	ldr	r3, [r4, #2216]
	cmp	r3, r7
	bls	.L2234
.L2237:
	ldr	r1, .L2334+160
	mov	r0, r5
	bl	se_v
	add	r7, r7, #1
	str	r0, [r8, #4]!
	ldr	r3, [r6, #2620]
	cmp	r3, #0
	beq	.L2333
	b	.L2315
.L2326:
	mov	r3, r2
	str	r8, [sp]
	mov	r2, r7
	mov	r1, r9
	mov	r0, r5
	bl	Scaling_List
	ldr	r3, [r8]
	cmp	r3, #1
	bne	.L2216
	ldr	r1, .L2334+64
	mov	r2, #16
	ldr	r3, .L2334+68
	cmp	r6, #2
	add	r0, r1, r2
	ldr	r3, [r3, #52]
	movhi	r1, r0
	mov	r0, r7
	blx	r3
	b	.L2216
.L2238:
	mov	r2, r0
	ldr	r1, .L2334+164
	mov	r0, #1
	bl	dprint_vfmw
	mvn	r0, #0
	b	.L2308
.L2229:
	ldr	r1, .L2334+168
	mov	r0, #1
	bl	dprint_vfmw
	mvn	r0, #0
	b	.L2308
.L2211:
	ldr	r1, .L2334+172
	mov	r0, #1
	bl	dprint_vfmw
	mvn	r0, #0
	b	.L2308
.L2332:
	mov	r3, r2
	str	r8, [sp]
	mov	r2, r6
	mov	r1, r9
	mov	r0, r5
	bl	Scaling_List
	ldr	r3, [r8]
	cmp	r3, #1
	bne	.L2222
	ldr	r1, .L2334+140
	mov	r2, #64
	ldr	r3, .L2334+68
	cmp	r7, #0
	add	r0, r1, r2
	ldr	r3, [r3, #52]
	movne	r1, r0
	mov	r0, r6
	blx	r3
	b	.L2222
.L2272:
	cmp	ip, r10
	cmpcs	r0, r7
	bcs	.L2271
	ldr	r3, .L2334+48
	ldr	r4, [r3]
	cmp	r4, #0
	beq	.L2315
	strh	r0, [fp, #-70]	@ movhi
	mov	r3, #8
	strh	r10, [fp, #-76]	@ movhi
	sub	r2, fp, #76
	strh	r7, [fp, #-74]	@ movhi
	mov	r1, #107
	strh	ip, [fp, #-72]	@ movhi
	ldr	r0, [r6, #2680]
	blx	r4
	b	.L2315
.L2317:
	mov	r0, r1
	movw	r3, #9948
	ldr	r2, .L2334+176
	ldr	r1, .L2334+180
	bl	dprint_vfmw
	mvn	r0, #0
	b	.L2308
.L2322:
	ldr	r1, .L2334+184
	mov	r0, #0
	bl	dprint_vfmw
	mvn	r0, #0
	b	.L2308
.L2235:
	ldr	r1, .L2334+188
	mov	r0, #1
	bl	dprint_vfmw
	mvn	r0, #0
	b	.L2308
.L2335:
	.align	2
.L2334:
	.word	.LC229
	.word	.LC231
	.word	.LC234
	.word	.LC242
	.word	.LC243
	.word	.LC245
	.word	.LC246
	.word	.LC260
	.word	.LC220
	.word	.LC221
	.word	.LC222
	.word	.LC223
	.word	g_event_report
	.word	.LC224
	.word	.LC226
	.word	.LC228
	.word	.LANCHOR1+80
	.word	vfmw_Osal_Func_Ptr_S
	.word	.LC166
	.word	.LC233
	.word	.LC235
	.word	.LC225
	.word	.LC250
	.word	.LC251
	.word	.LC252
	.word	.LC253
	.word	.LC258
	.word	.LC249
	.word	.LC230
	.word	.LC247
	.word	.LC254
	.word	.LC255
	.word	.LC256
	.word	.LC257
	.word	.LC259
	.word	.LANCHOR1+112
	.word	.LC236
	.word	.LC237
	.word	.LC238
	.word	.LC239
	.word	.LC241
	.word	.LC244
	.word	.LC232
	.word	.LC227
	.word	.LC8
	.word	.LC9
	.word	.LC248
	.word	.LC240
	UNWIND(.fnend)
	.size	ProcessSPS, .-ProcessSPS
	.align	2
	.global	Sps_SvcExt
	.type	Sps_SvcExt, %function
Sps_SvcExt:
	UNWIND(.fnstart)
	@ args = 0, pretend = 0, frame = 0
	@ frame_needed = 1, uses_anonymous_args = 0
	UNWIND(.movsp ip)
	mov	ip, sp
	stmfd	sp!, {r4, r5, r6, fp, ip, lr, pc}
	UNWIND(.pad #4)
	UNWIND(.save {r4, r5, r6, fp, ip, lr})
	UNWIND(.setfp fp, ip, #-4)
	sub	fp, ip, #4
	UNWIND(.pad #12)
	sub	sp, sp, #12
	add	r1, r0, #12288
	add	r2, r0, #20480
	mov	lr, #2208
	ldr	r3, [r1, #1304]
	mov	r4, r0
	ldr	r2, [r2, #216]
	add	r0, r0, #13504
	ldr	ip, [r1, #1300]
	mov	r5, #4000
	mov	r1, #32
	add	r0, r0, #24
	mla	r3, lr, r2, r3
	ldr	r3, [r3, #28]
	mla	r5, r5, r3, ip
	bl	BsGet
	ldr	r1, .L2350
	mov	r6, r0
	mov	r0, r4
	bl	u_1
	ldr	r1, .L2350+4
	mov	r2, r0
	mov	r0, #17
	bl	dprint_vfmw
	mov	r0, r4
	ldr	r2, .L2350+8
	mov	r1, #2
	bl	u_v
	cmp	r0, #1
	beq	.L2346
	ldr	r3, [r5, #40]
	sub	r2, r3, #1
	cmp	r2, #1
	bls	.L2347
.L2339:
	cmp	r3, #1
	beq	.L2348
.L2340:
	ldr	r1, .L2350+12
	mov	r0, r4
	bl	u_1
	cmp	r0, #0
	bne	.L2349
.L2341:
	mov	r0, r4
	ldr	r1, .L2350+16
	bl	u_1
	cmp	r0, #1
	moveq	r0, #0
	beq	.L2338
	ldr	ip, [r5, #40]
	mov	r2, r0
	mov	r3, r6
	ldr	r1, .L2350+20
	mov	r0, #1
	str	ip, [sp]
	bl	dprint_vfmw
	mov	r0, #0
.L2338:
	sub	sp, fp, #24
	ldmfd	sp, {r4, r5, r6, fp, sp, pc}
.L2349:
	ldr	r1, .L2350+24
	mov	r0, r4
	bl	u_1
	ldr	r1, .L2350+28
	mov	r2, r0
	mov	r0, #17
	bl	dprint_vfmw
	b	.L2341
.L2348:
	ldr	r2, .L2350+32
	mov	r1, #2
	mov	r0, r4
	bl	u_v
	ldr	r1, .L2350+36
	mov	r2, r0
	mov	r0, #17
	bl	dprint_vfmw
	b	.L2340
.L2347:
	ldr	r1, .L2350+40
	mov	r0, r4
	bl	u_1
	ldr	r1, .L2350+44
	mov	r2, r0
	mov	r0, #17
	bl	dprint_vfmw
	ldr	r3, [r5, #40]
	b	.L2339
.L2346:
	ldr	r1, .L2350+48
	bl	dprint_vfmw
	mvn	r0, #0
	b	.L2338
.L2351:
	.align	2
.L2350:
	.word	.LC261
	.word	.LC262
	.word	.LC263
	.word	.LC269
	.word	.LC272
	.word	.LC273
	.word	.LC270
	.word	.LC271
	.word	.LC267
	.word	.LC268
	.word	.LC265
	.word	.LC266
	.word	.LC264
	UNWIND(.fnend)
	.size	Sps_SvcExt, .-Sps_SvcExt
	.align	2
	.global	H264_DecSPS
	.type	H264_DecSPS, %function
H264_DecSPS:
	UNWIND(.fnstart)
	@ args = 0, pretend = 0, frame = 24
	@ frame_needed = 1, uses_anonymous_args = 0
	UNWIND(.movsp ip)
	mov	ip, sp
	stmfd	sp!, {r4, r5, r6, r7, r8, r9, r10, fp, ip, lr, pc}
	UNWIND(.pad #4)
	UNWIND(.save {r4, r5, r6, r7, r8, r9, r10, fp, ip, lr})
	UNWIND(.setfp fp, ip, #-4)
	sub	fp, ip, #4
	UNWIND(.pad #28)
	sub	sp, sp, #28
	subs	r4, r0, #0
	beq	.L2383
	ldr	r2, .L2389
	mov	r1, #8
	bl	u_v
	ldr	r1, .L2389+4
	add	r7, r4, #61440
	mov	r8, r0
	mov	r0, r4
	bl	u_1
	ldr	r1, .L2389+8
	str	r0, [fp, #-56]
	mov	r0, r4
	bl	u_1
	ldr	r1, .L2389+12
	str	r0, [fp, #-60]
	mov	r0, r4
	bl	u_1
	ldr	r1, .L2389+16
	str	r0, [fp, #-64]
	mov	r0, r4
	bl	u_1
	ldr	r2, .L2389+20
	mov	r1, #4
	str	r0, [fp, #-68]
	mov	r0, r4
	bl	u_v
	ldr	r2, .L2389+24
	mov	r1, #8
	mov	r0, r4
	bl	u_v
	ldr	r1, .L2389+28
	mov	r6, r0
	mov	r0, r4
	bl	ue_v
	ldr	r3, [r7, #2620]
	cmp	r3, #0
	mov	r9, r0
	bne	.L2382
	add	r5, r4, #12288
	ldr	r3, [r5, #1288]
	sub	r3, r3, #1
	cmp	r0, r3
	bhi	.L2384
	sub	r3, r8, #66
	mov	r10, r8
	cmp	r3, #78
	ldrls	pc, [pc, r3, asl #2]
	b	.L2358
.L2360:
	.word	.L2359
	.word	.L2358
	.word	.L2358
	.word	.L2358
	.word	.L2358
	.word	.L2358
	.word	.L2358
	.word	.L2358
	.word	.L2358
	.word	.L2358
	.word	.L2358
	.word	.L2361
	.word	.L2358
	.word	.L2358
	.word	.L2358
	.word	.L2358
	.word	.L2358
	.word	.L2361
	.word	.L2358
	.word	.L2358
	.word	.L2361
	.word	.L2358
	.word	.L2362
	.word	.L2358
	.word	.L2358
	.word	.L2358
	.word	.L2358
	.word	.L2358
	.word	.L2358
	.word	.L2358
	.word	.L2358
	.word	.L2358
	.word	.L2358
	.word	.L2358
	.word	.L2361
	.word	.L2358
	.word	.L2358
	.word	.L2358
	.word	.L2358
	.word	.L2358
	.word	.L2358
	.word	.L2358
	.word	.L2358
	.word	.L2358
	.word	.L2363
	.word	.L2358
	.word	.L2358
	.word	.L2358
	.word	.L2358
	.word	.L2358
	.word	.L2358
	.word	.L2358
	.word	.L2358
	.word	.L2358
	.word	.L2358
	.word	.L2358
	.word	.L2363
	.word	.L2358
	.word	.L2358
	.word	.L2358
	.word	.L2358
	.word	.L2358
	.word	.L2358
	.word	.L2358
	.word	.L2358
	.word	.L2358
	.word	.L2358
	.word	.L2358
	.word	.L2358
	.word	.L2358
	.word	.L2358
	.word	.L2358
	.word	.L2358
	.word	.L2358
	.word	.L2358
	.word	.L2358
	.word	.L2358
	.word	.L2358
	.word	.L2363
.L2359:
	ldr	r1, .L2389+32
	mov	r0, #1
	bl	dprint_vfmw
.L2361:
	cmp	r6, #9
	bls	.L2381
.L2388:
	cmp	r6, #41
	bhi	.L2381
.L2365:
	mov	r2, #4000
	ldr	r3, [r5, #1300]
	mul	r7, r2, r9
	add	r3, r3, r7
	ldrb	r8, [r3, #23]	@ zero_extendqisi2
	cmp	r8, #0
	beq	.L2366
	ldr	r3, .L2389+36
	mov	r1, #0
	ldr	r8, .L2389+40
	ldr	r3, [r3, #48]
	add	r0, r8, #2208
	blx	r3
	ldrb	r3, [fp, #-56]	@ zero_extendqisi2
	add	r1, r8, #2208
	mov	r0, r4
	str	r10, [r8, #2236]
	strb	r3, [r8, #2208]
	ldrb	r3, [fp, #-60]	@ zero_extendqisi2
	str	r6, [r8, #2240]
	str	r9, [r8, #2244]
	strb	r3, [r8, #2209]
	ldrb	r3, [fp, #-64]	@ zero_extendqisi2
	strb	r3, [r8, #2210]
	ldrb	r3, [fp, #-68]	@ zero_extendqisi2
	strb	r3, [r8, #2211]
	bl	ProcessSPS
	cmp	r0, #0
	bne	.L2385
	ldr	r1, [r5, #1300]
	add	r0, r8, #2208
	add	r1, r1, r7
	bl	SPSEqual
	cmp	r0, #0
	bne	.L2386
.L2368:
	cmp	r10, #83
	cmpne	r10, #86
	beq	.L2370
.L2371:
	mov	r0, #0
.L2354:
	sub	sp, fp, #40
	ldmfd	sp, {r4, r5, r6, r7, r8, r9, r10, fp, sp, pc}
.L2381:
	mov	r2, r6
	mov	r3, #41
	ldr	r1, .L2389+44
	mov	r0, #1
	bl	dprint_vfmw
	mov	r6, #41
	b	.L2365
.L2366:
	str	r10, [r3, #28]
	mov	r0, r4
	ldr	r3, [r5, #1300]
	ldrb	r2, [fp, #-56]	@ zero_extendqisi2
	strb	r2, [r3, r7]
	ldr	r3, [r5, #1300]
	ldrb	r2, [fp, #-60]	@ zero_extendqisi2
	add	r3, r3, r7
	strb	r2, [r3, #1]
	ldr	r3, [r5, #1300]
	ldrb	r2, [fp, #-64]	@ zero_extendqisi2
	add	r3, r3, r7
	strb	r2, [r3, #2]
	ldr	r3, [r5, #1300]
	ldrb	r2, [fp, #-68]	@ zero_extendqisi2
	add	r3, r3, r7
	strb	r2, [r3, #3]
	ldr	r3, [r5, #1300]
	add	r3, r3, r7
	str	r6, [r3, #32]
	ldr	r3, [r5, #1300]
	add	r3, r3, r7
	str	r9, [r3, #36]
	ldr	r1, [r5, #1300]
	add	r1, r1, r7
	bl	ProcessSPS
	cmp	r0, #0
	bne	.L2387
	ldr	r3, [r5, #1300]
	mov	r2, #1
	cmp	r10, #83
	cmpne	r10, #86
	add	r3, r3, r7
	strb	r2, [r3, #24]
	ldr	r3, [r5, #1300]
	add	r7, r3, r7
	strb	r2, [r7, #23]
	bne	.L2371
.L2370:
	mov	r0, r4
	bl	Sps_SvcExt
	cmp	r0, #0
	beq	.L2371
	ldr	r1, .L2389+48
	mov	r0, #1
	bl	dprint_vfmw
.L2382:
	mvn	r0, #0
	sub	sp, fp, #40
	ldmfd	sp, {r4, r5, r6, r7, r8, r9, r10, fp, sp, pc}
.L2384:
	ldr	r1, .L2389+52
	mov	r0, #1
	bl	dprint_vfmw
	ldr	r2, [r5, #1288]
	sub	r3, r2, #1
	cmp	r9, r3
	bls	.L2382
	ldr	r3, .L2389+56
	ldr	r4, [r3]
	cmp	r4, #0
	beq	.L2382
	str	r2, [fp, #-48]
	mov	r3, #8
	str	r9, [fp, #-52]
	sub	r2, fp, #52
	ldr	r0, [r7, #2680]
	mov	r1, #109
	blx	r4
	mvn	r0, #0
	sub	sp, fp, #40
	ldmfd	sp, {r4, r5, r6, r7, r8, r9, r10, fp, sp, pc}
.L2363:
	ldr	r1, .L2389+60
	mov	r0, #1
	bl	dprint_vfmw
	cmp	r6, #9
	bhi	.L2388
	b	.L2381
.L2362:
	ldr	r1, .L2389+64
	mov	r0, #1
	bl	dprint_vfmw
	cmp	r6, #9
	bhi	.L2388
	b	.L2381
.L2358:
	mov	r2, r8
	ldr	r1, .L2389+68
	mov	r0, #1
	mov	r10, #100
	bl	dprint_vfmw
	cmp	r6, #9
	bhi	.L2388
	b	.L2381
.L2386:
	ldr	r3, .L2389+36
	mov	r2, #4000
	ldr	r0, [r5, #1300]
	add	r1, r8, #2208
	ldr	r5, [r3, #56]
	add	r0, r0, r7
	mov	r3, #1
	strb	r3, [r8, #2232]
	strb	r3, [r8, #2231]
	blx	r5
	b	.L2368
.L2385:
	mov	r3, r9
	movw	r2, #10566
	ldr	r1, .L2389+72
	mov	r0, #1
	bl	dprint_vfmw
	mvn	r0, #0
	b	.L2354
.L2383:
	movw	r3, #10479
	ldr	r2, .L2389+76
	ldr	r1, .L2389+80
	bl	dprint_vfmw
	mvn	r0, #0
	b	.L2354
.L2387:
	mov	r3, r9
	movw	r2, #10591
	ldr	r1, .L2389+72
	mov	r0, #1
	bl	dprint_vfmw
	ldr	r3, [r5, #1300]
	mov	r2, #1
	mvn	r0, #0
	add	r3, r3, r7
	strb	r2, [r3, #24]
	ldr	r3, [r5, #1300]
	add	r7, r3, r7
	strb	r8, [r7, #23]
	b	.L2354
.L2390:
	.align	2
.L2389:
	.word	.LC274
	.word	.LC275
	.word	.LC276
	.word	.LC277
	.word	.LC278
	.word	.LC279
	.word	.LC280
	.word	.LC281
	.word	.LC282
	.word	vfmw_Osal_Func_Ptr_S
	.word	.LANCHOR2
	.word	.LC286
	.word	.LC288
	.word	.LC172
	.word	g_event_report
	.word	.LC284
	.word	.LC283
	.word	.LC285
	.word	.LC287
	.word	.LC8
	.word	.LC9
	UNWIND(.fnend)
	.size	H264_DecSPS, .-H264_DecSPS
	.align	2
	.global	PassBytes
	.type	PassBytes, %function
PassBytes:
	UNWIND(.fnstart)
	@ args = 0, pretend = 0, frame = 0
	@ frame_needed = 1, uses_anonymous_args = 0
	UNWIND(.movsp ip)
	mov	ip, sp
	stmfd	sp!, {r4, r5, r6, fp, ip, lr, pc}
	UNWIND(.pad #4)
	UNWIND(.save {r4, r5, r6, fp, ip, lr})
	UNWIND(.setfp fp, ip, #-4)
	sub	fp, ip, #4
	ldr	ip, [r0, #368]
	cmp	ip, #0
	cmpne	r1, #0
	beq	.L2400
	ldrb	r3, [ip]	@ zero_extendqisi2
	mov	r2, r3, asl #2
	mov	r5, r3, asl #5
	rsb	r4, r2, r5
	add	r4, ip, r4
	add	r6, r4, #8
	ldr	lr, [r4, #8]
	cmp	lr, #0
	beq	.L2400
	ldr	lr, [ip, #68]
	cmp	r3, #1
	cmpls	lr, #2
	bhi	.L2400
	cmp	lr, r3
	bls	.L2400
	ldr	lr, [r4, #12]
	mov	r6, r2
	ldr	r4, [r4, #24]
	mov	lr, lr, asl #3
	add	r1, r4, r1, lsl #3
	cmp	r1, lr
	bhi	.L2395
	b	.L2393
.L2396:
	ldr	r4, [r2, #24]
	ldr	r2, [r2, #12]
	rsb	lr, lr, r4
	add	r1, r1, lr
	mov	lr, r2, asl #3
	cmp	r1, lr
	bls	.L2393
.L2395:
	rsb	r2, r6, r5
	add	r3, r3, #1
	add	ip, ip, r2
	mov	r6, r3, asl #2
	mov	r5, r3, asl #5
	str	lr, [ip, #24]
	rsb	r2, r6, r5
	ldr	ip, [r0, #368]
	ldrb	r4, [ip]	@ zero_extendqisi2
	add	r4, r4, #1
	strb	r4, [ip]
	ldr	ip, [r0, #368]
	add	r2, ip, r2
	ldr	r4, [ip, #68]
	cmp	r4, r3
	bhi	.L2396
	mov	r0, #0
	ldmfd	sp, {r4, r5, r6, fp, sp, pc}
.L2393:
	rsb	r2, r6, r5
	mov	r0, #1
	add	ip, ip, r2
	str	r1, [ip, #24]
	ldmfd	sp, {r4, r5, r6, fp, sp, pc}
.L2400:
	mvn	r0, #0
	ldmfd	sp, {r4, r5, r6, fp, sp, pc}
	UNWIND(.fnend)
	.size	PassBytes, .-PassBytes
	.align	2
	.global	GetBytes
	.type	GetBytes, %function
GetBytes:
	UNWIND(.fnstart)
	@ args = 0, pretend = 0, frame = 0
	@ frame_needed = 1, uses_anonymous_args = 0
	UNWIND(.movsp ip)
	mov	ip, sp
	stmfd	sp!, {r4, r5, r6, r7, r8, fp, ip, lr, pc}
	UNWIND(.pad #4)
	UNWIND(.save {r4, r5, r6, r7, r8, fp, ip, lr})
	UNWIND(.setfp fp, ip, #-4)
	sub	fp, ip, #4
	cmp	r1, #0
	beq	.L2415
	ldr	r3, [r0, #368]
	cmp	r3, #0
	cmpne	r2, #0
	ble	.L2415
	ldrb	r7, [r3]	@ zero_extendqisi2
	mov	ip, r7, asl #5
	sub	ip, ip, r7, asl #2
	add	ip, r3, ip
	ldr	ip, [ip, #8]
	cmp	ip, #0
	beq	.L2415
	ldr	ip, [r3, #68]
	cmp	r7, #1
	cmpls	ip, #2
	movhi	lr, #1
	movls	lr, #0
	bhi	.L2415
	cmp	ip, r7
	bls	.L2415
.L2410:
	mov	r5, r7, asl #5
	sub	r5, r5, r7, asl #2
	add	ip, r3, r5
	ldr	r4, [ip, #24]
	ldr	r8, [ip, #8]
	ldr	r6, [ip, #12]
	add	r4, r4, #7
	add	r6, r8, r6
	add	ip, r8, r4, lsr #3
	cmp	ip, r6
	bcs	.L2406
	ldrb	r3, [r8, r4, lsr #3]	@ zero_extendqisi2
	add	lr, lr, #1
	cmp	lr, r2
	add	r4, r1, #1
	add	ip, ip, #1
	strb	r3, [r1]
	b	.L2417
.L2408:
	cmp	ip, r6
	mov	r1, r4
	beq	.L2418
	ldrb	r3, [ip], #1	@ zero_extendqisi2
	add	lr, lr, #1
	cmp	lr, r2
	strb	r3, [r4], #1
.L2417:
	ldr	r3, [r0, #368]
	add	r3, r3, r5
	ldr	r1, [r3, #24]
	add	r1, r1, #8
	str	r1, [r3, #24]
	bcc	.L2408
	mov	r0, r2
	ldmfd	sp, {r4, r5, r6, r7, r8, fp, sp, pc}
.L2418:
	ldr	r3, [r0, #368]
.L2406:
	ldrb	ip, [r3]	@ zero_extendqisi2
	add	r7, r7, #1
	add	ip, ip, #1
	strb	ip, [r3]
	ldr	r3, [r0, #368]
	ldr	ip, [r3, #68]
	cmp	ip, r7
	bhi	.L2410
	mov	r0, lr
	ldmfd	sp, {r4, r5, r6, r7, r8, fp, sp, pc}
.L2415:
	mvn	r0, #0
	ldmfd	sp, {r4, r5, r6, r7, r8, fp, sp, pc}
	UNWIND(.fnend)
	.size	GetBytes, .-GetBytes
	.align	2
	.global	H264_DecFramePackingSEI
	.type	H264_DecFramePackingSEI, %function
H264_DecFramePackingSEI:
	UNWIND(.fnstart)
	@ args = 0, pretend = 0, frame = 0
	@ frame_needed = 1, uses_anonymous_args = 0
	UNWIND(.movsp ip)
	mov	ip, sp
	stmfd	sp!, {r4, r5, fp, ip, lr, pc}
	UNWIND(.pad #4)
	UNWIND(.save {r4, r5, fp, ip, lr})
	UNWIND(.setfp fp, ip, #-4)
	sub	fp, ip, #4
	ldr	r1, .L2426
	mov	r5, r0
	bl	ue_v
	add	r4, r5, #24576
	ldr	r2, .L2426+4
	mov	r1, #1
	str	r0, [r4, #1832]
	mov	r0, r5
	bl	u_v
	uxtb	r0, r0
	strb	r0, [r4, #1809]
	cmp	r0, #0
	beq	.L2425
.L2420:
	mov	r0, r5
	ldr	r2, .L2426+8
	mov	r1, #1
	bl	u_v
	mov	r3, #1
	strb	r3, [r4, #1808]
	strb	r0, [r4, #1810]
	mov	r0, #0
	ldmfd	sp, {r4, r5, fp, sp, pc}
.L2425:
	ldr	r2, .L2426+12
	mov	r1, #7
	mov	r0, r5
	bl	u_v
	ldr	r2, .L2426+16
	mov	r1, #1
	str	r0, [r4, #1824]
	mov	r0, r5
	bl	u_v
	ldr	r2, .L2426+20
	mov	r1, #6
	strb	r0, [r4, #1811]
	mov	r0, r5
	bl	u_v
	ldr	r2, .L2426+24
	mov	r1, #1
	str	r0, [r4, #1828]
	mov	r0, r5
	bl	u_v
	ldr	r2, .L2426+28
	mov	r1, #1
	strb	r0, [r4, #1812]
	mov	r0, r5
	bl	u_v
	ldr	r2, .L2426+32
	mov	r1, #1
	strb	r0, [r4, #1813]
	mov	r0, r5
	bl	u_v
	ldr	r2, .L2426+36
	mov	r1, #1
	strb	r0, [r4, #1814]
	mov	r0, r5
	bl	u_v
	ldr	r2, .L2426+40
	mov	r1, #1
	strb	r0, [r4, #1815]
	mov	r0, r5
	bl	u_v
	ldr	r2, .L2426+44
	mov	r1, #1
	strb	r0, [r4, #1816]
	mov	r0, r5
	bl	u_v
	ldrb	r3, [r4, #1811]	@ zero_extendqisi2
	cmp	r3, #0
	strb	r0, [r4, #1817]
	bne	.L2421
	ldr	r3, [r4, #1824]
	cmp	r3, #5
	beq	.L2421
	ldr	r2, .L2426+48
	mov	r1, #1
	mov	r0, r5
	bl	u_v
	ldr	r2, .L2426+52
	mov	r1, #1
	strb	r0, [r4, #1818]
	mov	r0, r5
	bl	u_v
	ldr	r2, .L2426+56
	mov	r1, #1
	strb	r0, [r4, #1819]
	mov	r0, r5
	bl	u_v
	ldr	r2, .L2426+60
	mov	r1, #1
	strb	r0, [r4, #1820]
	mov	r0, r5
	bl	u_v
	strb	r0, [r4, #1821]
.L2421:
	ldr	r2, .L2426+64
	mov	r1, #8
	mov	r0, r5
	bl	u_v
	ldr	r1, .L2426+68
	str	r0, [r4, #1836]
	mov	r0, r5
	bl	ue_v
	str	r0, [r4, #1840]
	b	.L2420
.L2427:
	.align	2
.L2426:
	.word	.LC289
	.word	.LC290
	.word	.LC306
	.word	.LC291
	.word	.LC292
	.word	.LC293
	.word	.LC294
	.word	.LC295
	.word	.LC296
	.word	.LC297
	.word	.LC298
	.word	.LC299
	.word	.LC300
	.word	.LC301
	.word	.LC302
	.word	.LC303
	.word	.LC304
	.word	.LC305
	UNWIND(.fnend)
	.size	H264_DecFramePackingSEI, .-H264_DecFramePackingSEI
	.align	2
	.global	H264_DecPicTimingSEI
	.type	H264_DecPicTimingSEI, %function
H264_DecPicTimingSEI:
	UNWIND(.fnstart)
	@ args = 0, pretend = 0, frame = 0
	@ frame_needed = 1, uses_anonymous_args = 0
	UNWIND(.movsp ip)
	mov	ip, sp
	stmfd	sp!, {r4, r5, r6, r7, fp, ip, lr, pc}
	UNWIND(.pad #4)
	UNWIND(.save {r4, r5, r6, r7, fp, ip, lr})
	UNWIND(.setfp fp, ip, #-4)
	sub	fp, ip, #4
	add	r2, r0, #12288
	mov	r4, #4000
	mov	r5, r0
	ldr	r1, [r2, #1344]
	ldr	r3, [r2, #1300]
	mla	r4, r4, r1, r3
	ldrb	r1, [r4, #23]	@ zero_extendqisi2
	cmp	r1, #0
	bne	.L2429
	ldr	r0, [r2, #1288]
	cmp	r0, #0
	ble	.L2430
	ldrb	r2, [r3, #23]	@ zero_extendqisi2
	cmp	r2, #0
	addeq	r3, r3, #4000
	beq	.L2433
	b	.L2451
.L2434:
	ldrb	r1, [r3, #-3977]	@ zero_extendqisi2
	cmp	r1, #0
	bne	.L2431
.L2433:
	add	r2, r2, #1
	mov	r4, r3
	cmp	r2, r0
	add	r3, r3, #4000
	bne	.L2434
.L2430:
	ldr	r1, .L2454
	mov	r0, #1
	bl	dprint_vfmw
	mvn	r3, #0
.L2435:
	mov	r0, r3
	ldmfd	sp, {r4, r5, r6, r7, fp, sp, pc}
.L2451:
	mov	r4, r3
.L2431:
	cmp	r4, #0
	beq	.L2430
.L2429:
	ldrb	r3, [r4, #22]	@ zero_extendqisi2
	cmp	r3, #0
	beq	.L2437
	ldrb	r3, [r4, #3299]	@ zero_extendqisi2
	cmp	r3, #0
	beq	.L2452
	ldr	r1, [r4, #3676]
	ldr	r7, [r4, #3680]
	add	r1, r1, #1
	add	r7, r7, #1
.L2441:
	ldr	r2, .L2454+4
	mov	r0, r5
	bl	u_v
	add	r6, r5, #24576
	ldr	r2, .L2454+8
	mov	r1, r7
	str	r0, [r6, #1848]
	mov	r0, r5
	bl	u_v
	add	r3, r5, #61440
	ldr	r2, .L2454+12
	str	r0, [r6, #1852]
	ldr	r3, [r3, #2680]
	ldr	r3, [r2, r3, asl #2]
	ldrsb	r2, [r3, #44]
	cmp	r2, #1
	beq	.L2453
.L2437:
	ldrb	r0, [r4, #3303]	@ zero_extendqisi2
	cmp	r0, #0
	moveq	r3, r0
	beq	.L2435
	ldr	r2, .L2454+16
	mov	r1, #4
	mov	r0, r5
	add	r5, r5, #24576
	bl	u_v
	mov	r3, #0
	strb	r0, [r5, #1844]
	mov	r0, r3
	ldmfd	sp, {r4, r5, r6, r7, fp, sp, pc}
.L2452:
	ldrb	r3, [r4, #3302]	@ zero_extendqisi2
	cmp	r3, #0
	beq	.L2437
	ldr	r1, [r4, #3988]
	ldr	r7, [r4, #3992]
	add	r1, r1, #1
	add	r7, r7, #1
	b	.L2441
.L2453:
	ldr	r2, [r3, #160]
	cmp	r2, #1
	bne	.L2437
	ldr	r3, [r3, #164]
	cmp	r3, #2
	bne	.L2437
	mov	r0, r5
	bl	H264_Sei_Get_Dpb_Output_Time
	b	.L2437
.L2455:
	.align	2
.L2454:
	.word	.LC307
	.word	.LC308
	.word	.LC309
	.word	s_pstVfmwChan
	.word	.LC310
	UNWIND(.fnend)
	.size	H264_DecPicTimingSEI, .-H264_DecPicTimingSEI
	.align	2
	.global	H264_DecSEI
	.type	H264_DecSEI, %function
H264_DecSEI:
	UNWIND(.fnstart)
	@ args = 0, pretend = 0, frame = 32
	@ frame_needed = 1, uses_anonymous_args = 0
	UNWIND(.movsp ip)
	mov	ip, sp
	stmfd	sp!, {r4, r5, r6, r7, r8, r9, r10, fp, ip, lr, pc}
	UNWIND(.pad #4)
	UNWIND(.save {r4, r5, r6, r7, r8, r9, r10, fp, ip, lr})
	UNWIND(.setfp fp, ip, #-4)
	sub	fp, ip, #4
	UNWIND(.pad #36)
	sub	sp, sp, #36
	subs	r7, r0, #0
	mov	r3, #0
	strb	r3, [fp, #-45]
	beq	.L2696
	add	r10, r7, #61440
	ldr	r3, .L2732
	ldr	r2, [r10, #2680]
	ldr	r3, [r3, r2, asl #2]
	ldrsb	r2, [r3, #44]
	cmp	r2, #1
	beq	.L2697
.L2459:
	ldr	r3, [r7, #368]
	mov	r2, #32
	str	r2, [r3, #24]
.L2460:
	add	r6, r7, #13504
	add	r4, r7, #12288
	add	r6, r6, #24
	mov	r8, #0
	b	.L2463
.L2699:
	bl	BsSkip
	cmp	r5, #0
	ble	.L2462
	ldrb	r3, [fp, #-45]	@ zero_extendqisi2
	cmp	r3, #255
	bne	.L2698
.L2463:
	mov	r2, #1
	sub	r1, fp, #45
	mov	r0, r7
	bl	GetBytes
	ldr	r3, [r4, #1264]
	ldr	ip, [r4, #1256]
	mov	r1, #8
	add	r3, r3, r1
	ldrb	r2, [fp, #-45]	@ zero_extendqisi2
	cmp	r3, ip, asl #3
	add	r8, r8, r2
	mov	r5, r0
	mov	r0, r6
	bls	.L2699
.L2462:
	ldr	r1, .L2732+4
	mov	r0, #1
	bl	dprint_vfmw
	mvn	r0, #0
	b	.L2458
.L2698:
	mov	r3, #0
	str	r3, [fp, #-60]
.L2642:
	mov	r5, #0
	b	.L2468
.L2701:
	bl	BsSkip
	cmp	r9, #0
	ble	.L2466
	ldrb	r3, [fp, #-45]	@ zero_extendqisi2
	cmp	r3, #255
	bne	.L2700
.L2468:
	mov	r2, #1
	sub	r1, fp, #45
	mov	r0, r7
	bl	GetBytes
	ldr	r3, [r4, #1264]
	ldr	ip, [r4, #1256]
	mov	r1, #8
	add	r3, r3, r1
	ldrb	r2, [fp, #-45]	@ zero_extendqisi2
	cmp	r3, ip, asl #3
	add	r5, r5, r2
	mov	r9, r0
	mov	r0, r6
	bls	.L2701
.L2466:
	ldr	r1, .L2732+8
	mov	r0, #1
	bl	dprint_vfmw
	mvn	r0, #0
.L2458:
	sub	sp, fp, #40
	ldmfd	sp, {r4, r5, r6, r7, r8, r9, r10, fp, sp, pc}
.L2700:
	cmp	r5, #409600
	bgt	.L2466
	ldr	r3, [r7, #368]
	ldr	r2, [r3, #68]
	cmp	r2, #2
	ldreq	r2, [r3, #52]
	ldreq	r3, [r3, #24]
	ldrne	r2, [r3, #24]
	addeq	r2, r2, r3
	moveq	r2, r2, lsr #3
	cmp	r8, #45
	ldrls	pc, [pc, r8, asl #2]
	b	.L2471
.L2473:
	.word	.L2472
	.word	.L2474
	.word	.L2475
	.word	.L2476
	.word	.L2477
	.word	.L2478
	.word	.L2479
	.word	.L2480
	.word	.L2481
	.word	.L2482
	.word	.L2483
	.word	.L2484
	.word	.L2485
	.word	.L2486
	.word	.L2487
	.word	.L2488
	.word	.L2489
	.word	.L2490
	.word	.L2491
	.word	.L2492
	.word	.L2493
	.word	.L2494
	.word	.L2471
	.word	.L2471
	.word	.L2471
	.word	.L2471
	.word	.L2471
	.word	.L2471
	.word	.L2471
	.word	.L2471
	.word	.L2471
	.word	.L2471
	.word	.L2471
	.word	.L2471
	.word	.L2471
	.word	.L2471
	.word	.L2471
	.word	.L2471
	.word	.L2471
	.word	.L2471
	.word	.L2471
	.word	.L2471
	.word	.L2471
	.word	.L2471
	.word	.L2471
	.word	.L2495
.L2495:
	mov	r1, r5
	mov	r0, r7
	ldr	r8, [r4, #1264]
	bl	H264_DecFramePackingSEI
	ldr	r0, [r4, #1264]
	mov	r9, r5, asl #3
	rsb	r3, r8, r0
	cmp	r3, r9
	bge	.L2625
	rsb	r3, r3, r9
	str	r3, [fp, #-56]
	cmp	r3, #0
	add	r8, r3, #7
	movge	r8, r3
	ldr	r3, [r4, #1256]
	mov	r8, r8, asr #3
	cmp	r8, #0
	movle	r3, r3, asl #3
	ble	.L2627
	add	r2, r0, #8
	mov	r3, r3, asl #3
	cmp	r2, r3
	bhi	.L2627
	mov	r9, #0
	b	.L2628
.L2629:
	add	r2, r0, #8
	cmp	r2, r3
	bhi	.L2627
.L2628:
	mov	r1, #8
	mov	r0, r6
	bl	BsSkip
	add	r9, r9, #1
	ldr	r3, [r4, #1256]
	cmp	r9, r8
	ldr	r0, [r4, #1264]
	mov	r3, r3, asl #3
	bne	.L2629
.L2627:
	ldr	r2, [fp, #-56]
	mov	r1, r2, asr #31
	mov	r1, r1, lsr #29
	add	r2, r2, r1
	and	r2, r2, #7
	rsb	r1, r1, r2
	add	r2, r0, r1
	cmp	r3, r2
	bcs	.L2702
.L2625:
	mov	r1, r5
	mov	r0, r7
	bl	PassBytes
	cmp	r0, #0
	blt	.L2703
.L2691:
	ldr	r3, [r10, #1392]
.L2498:
	cmp	r3, #3
	bhi	.L2704
.L2637:
	mov	r8, #0
	b	.L2641
.L2639:
	bl	BsSkip
	cmp	r5, #0
	ble	.L2640
	ldrb	r3, [fp, #-45]	@ zero_extendqisi2
	cmp	r3, #255
	bne	.L2705
.L2641:
	mov	r2, #1
	sub	r1, fp, #45
	mov	r0, r7
	bl	GetBytes
	ldr	r3, [r4, #1264]
	ldr	ip, [r4, #1256]
	mov	r1, #8
	add	r3, r3, r1
	ldrb	r2, [fp, #-45]	@ zero_extendqisi2
	cmp	r3, ip, asl #3
	add	r8, r8, r2
	mov	r5, r0
	mov	r0, r6
	bls	.L2639
.L2640:
	mov	r0, #0
.L2730:
	sub	sp, fp, #40
	ldmfd	sp, {r4, r5, r6, r7, r8, r9, r10, fp, sp, pc}
.L2494:
	mov	r3, r5
	ldr	r1, .L2732+12
	mov	r0, #20
	bl	dprint_vfmw
	mov	r1, r5
	mov	r0, r7
	bl	PassBytes
	cmp	r0, #0
	blt	.L2706
.L2619:
	cmp	r5, #0
	ble	.L2691
	ldr	r3, [r4, #1264]
	ldr	r2, [r4, #1256]
	add	r3, r3, #8
	cmp	r3, r2, asl #3
	bhi	.L2691
	mov	r8, #0
	b	.L2622
.L2623:
	ldr	r3, [r4, #1264]
	ldr	r2, [r4, #1256]
	add	r3, r3, #8
	cmp	r3, r2, asl #3
	bhi	.L2691
.L2622:
	add	r8, r8, #1
	mov	r1, #8
	mov	r0, r6
	bl	BsSkip
	cmp	r5, r8
	bne	.L2623
	b	.L2691
.L2493:
	mov	r3, r5
	ldr	r1, .L2732+16
	mov	r0, #20
	bl	dprint_vfmw
	mov	r1, r5
	mov	r0, r7
	bl	PassBytes
	cmp	r0, #0
	blt	.L2707
.L2614:
	cmp	r5, #0
	ble	.L2691
	ldr	r3, [r4, #1264]
	ldr	r2, [r4, #1256]
	add	r3, r3, #8
	cmp	r3, r2, asl #3
	bhi	.L2691
	mov	r8, #0
	b	.L2617
.L2618:
	ldr	r3, [r4, #1264]
	ldr	r2, [r4, #1256]
	add	r3, r3, #8
	cmp	r3, r2, asl #3
	bhi	.L2691
.L2617:
	add	r8, r8, #1
	mov	r1, #8
	mov	r0, r6
	bl	BsSkip
	cmp	r5, r8
	bne	.L2618
	b	.L2691
.L2489:
	mov	r3, r5
	ldr	r1, .L2732+20
	mov	r0, #20
	bl	dprint_vfmw
	mov	r1, r5
	mov	r0, r7
	bl	PassBytes
	cmp	r0, #0
	blt	.L2708
.L2594:
	cmp	r5, #0
	ble	.L2691
	ldr	r3, [r4, #1264]
	ldr	r2, [r4, #1256]
	add	r3, r3, #8
	cmp	r3, r2, asl #3
	bhi	.L2691
	mov	r8, #0
	b	.L2597
.L2598:
	ldr	r3, [r4, #1264]
	ldr	r2, [r4, #1256]
	add	r3, r3, #8
	cmp	r3, r2, asl #3
	bhi	.L2691
.L2597:
	add	r8, r8, #1
	mov	r1, #8
	mov	r0, r6
	bl	BsSkip
	cmp	r5, r8
	bne	.L2598
	b	.L2691
.L2488:
	mov	r3, r5
	ldr	r1, .L2732+24
	mov	r0, #20
	bl	dprint_vfmw
	mov	r1, r5
	mov	r0, r7
	bl	PassBytes
	cmp	r0, #0
	blt	.L2709
.L2589:
	cmp	r5, #0
	ble	.L2691
	ldr	r3, [r4, #1264]
	ldr	r2, [r4, #1256]
	add	r3, r3, #8
	cmp	r3, r2, asl #3
	bhi	.L2691
	mov	r8, #0
	b	.L2592
.L2593:
	ldr	r3, [r4, #1264]
	ldr	r2, [r4, #1256]
	add	r3, r3, #8
	cmp	r3, r2, asl #3
	bhi	.L2691
.L2592:
	add	r8, r8, #1
	mov	r1, #8
	mov	r0, r6
	bl	BsSkip
	cmp	r5, r8
	bne	.L2593
	b	.L2691
.L2487:
	mov	r3, r5
	ldr	r1, .L2732+28
	mov	r0, #20
	bl	dprint_vfmw
	mov	r1, r5
	mov	r0, r7
	bl	PassBytes
	cmp	r0, #0
	blt	.L2710
.L2584:
	cmp	r5, #0
	ble	.L2691
	ldr	r3, [r4, #1264]
	ldr	r2, [r4, #1256]
	add	r3, r3, #8
	cmp	r3, r2, asl #3
	bhi	.L2691
	mov	r8, #0
	b	.L2587
.L2588:
	ldr	r3, [r4, #1264]
	ldr	r2, [r4, #1256]
	add	r3, r3, #8
	cmp	r3, r2, asl #3
	bhi	.L2691
.L2587:
	add	r8, r8, #1
	mov	r1, #8
	mov	r0, r6
	bl	BsSkip
	cmp	r5, r8
	bne	.L2588
	b	.L2691
.L2486:
	mov	r3, r5
	ldr	r1, .L2732+32
	mov	r0, #20
	bl	dprint_vfmw
	mov	r1, r5
	mov	r0, r7
	bl	PassBytes
	cmp	r0, #0
	blt	.L2711
.L2579:
	cmp	r5, #0
	ble	.L2691
	ldr	r3, [r4, #1264]
	ldr	r2, [r4, #1256]
	add	r3, r3, #8
	cmp	r3, r2, asl #3
	bhi	.L2691
	mov	r8, #0
	b	.L2582
.L2583:
	ldr	r3, [r4, #1264]
	ldr	r2, [r4, #1256]
	add	r3, r3, #8
	cmp	r3, r2, asl #3
	bhi	.L2691
.L2582:
	add	r8, r8, #1
	mov	r1, #8
	mov	r0, r6
	bl	BsSkip
	cmp	r5, r8
	bne	.L2583
	b	.L2691
.L2491:
	mov	r3, r5
	ldr	r1, .L2732+36
	mov	r0, #20
	bl	dprint_vfmw
	mov	r1, r5
	mov	r0, r7
	bl	PassBytes
	cmp	r0, #0
	blt	.L2712
.L2604:
	cmp	r5, #0
	ble	.L2691
	ldr	r3, [r4, #1264]
	ldr	r2, [r4, #1256]
	add	r3, r3, #8
	cmp	r3, r2, asl #3
	bhi	.L2691
	mov	r8, #0
	b	.L2607
.L2608:
	ldr	r3, [r4, #1264]
	ldr	r2, [r4, #1256]
	add	r3, r3, #8
	cmp	r3, r2, asl #3
	bhi	.L2691
.L2607:
	add	r8, r8, #1
	mov	r1, #8
	mov	r0, r6
	bl	BsSkip
	cmp	r5, r8
	bne	.L2608
	b	.L2691
.L2490:
	mov	r3, r5
	ldr	r1, .L2732+40
	mov	r0, #20
	bl	dprint_vfmw
	mov	r1, r5
	mov	r0, r7
	bl	PassBytes
	cmp	r0, #0
	blt	.L2713
.L2599:
	cmp	r5, #0
	ble	.L2691
	ldr	r3, [r4, #1264]
	ldr	r2, [r4, #1256]
	add	r3, r3, #8
	cmp	r3, r2, asl #3
	bhi	.L2691
	mov	r8, #0
	b	.L2602
.L2603:
	ldr	r3, [r4, #1264]
	ldr	r2, [r4, #1256]
	add	r3, r3, #8
	cmp	r3, r2, asl #3
	bhi	.L2691
.L2602:
	add	r8, r8, #1
	mov	r1, #8
	mov	r0, r6
	bl	BsSkip
	cmp	r5, r8
	bne	.L2603
	b	.L2691
.L2492:
	mov	r3, r5
	ldr	r1, .L2732+44
	mov	r0, #20
	bl	dprint_vfmw
	mov	r1, r5
	mov	r0, r7
	bl	PassBytes
	cmp	r0, #0
	blt	.L2714
.L2609:
	cmp	r5, #0
	ble	.L2691
	ldr	r3, [r4, #1264]
	ldr	r2, [r4, #1256]
	add	r3, r3, #8
	cmp	r3, r2, asl #3
	bhi	.L2691
	mov	r8, #0
	b	.L2612
.L2613:
	ldr	r3, [r4, #1264]
	ldr	r2, [r4, #1256]
	add	r3, r3, #8
	cmp	r3, r2, asl #3
	bhi	.L2691
.L2612:
	add	r8, r8, #1
	mov	r1, #8
	mov	r0, r6
	bl	BsSkip
	cmp	r5, r8
	bne	.L2613
	b	.L2691
.L2485:
	mov	r3, r5
	ldr	r1, .L2732+48
	mov	r0, #20
	bl	dprint_vfmw
	mov	r1, r5
	mov	r0, r7
	bl	PassBytes
	cmp	r0, #0
	blt	.L2715
