#include "hi_asm_define.h"
	.arch armv7-a
	.fpu softvfp
	.eabi_attribute 20, 1
	.eabi_attribute 21, 1
	.eabi_attribute 23, 3
	.eabi_attribute 24, 1
	.eabi_attribute 25, 1
	.eabi_attribute 26, 2
	.eabi_attribute 30, 2
	.eabi_attribute 34, 0
	.eabi_attribute 18, 4
	.file	"mvc.c"
	.text
	.align	2
	.global	MVC_IsSTRefFlg
	.type	MVC_IsSTRefFlg, %function
MVC_IsSTRefFlg:
	UNWIND(.fnstart)
	@ args = 0, pretend = 0, frame = 0
	@ frame_needed = 1, uses_anonymous_args = 0
	UNWIND(.movsp ip)
	mov	ip, sp
	stmfd	sp!, {fp, ip, lr, pc}
	UNWIND(.pad #4)
	UNWIND(.save {fp, ip, lr})
	UNWIND(.setfp fp, ip, #-4)
	sub	fp, ip, #4
	ldr	r0, [r0]
	bic	r0, r0, #-16777216
	bic	r0, r0, #255
	sub	r0, r0, #65536
	clz	r0, r0
	mov	r0, r0, lsr #5
	ldmfd	sp, {fp, sp, pc}
	UNWIND(.fnend)
	.size	MVC_IsSTRefFlg, .-MVC_IsSTRefFlg
	.align	2
	.global	MVC_IsLTRefFlg
	.type	MVC_IsLTRefFlg, %function
MVC_IsLTRefFlg:
	UNWIND(.fnstart)
	@ args = 0, pretend = 0, frame = 0
	@ frame_needed = 1, uses_anonymous_args = 0
	UNWIND(.movsp ip)
	mov	ip, sp
	stmfd	sp!, {fp, ip, lr, pc}
	UNWIND(.pad #4)
	UNWIND(.save {fp, ip, lr})
	UNWIND(.setfp fp, ip, #-4)
	sub	fp, ip, #4
	ldr	r0, [r0]
	bic	r0, r0, #-16777216
	bic	r0, r0, #255
	sub	r0, r0, #256
	clz	r0, r0
	mov	r0, r0, lsr #5
	ldmfd	sp, {fp, sp, pc}
	UNWIND(.fnend)
	.size	MVC_IsLTRefFlg, .-MVC_IsLTRefFlg
	.align	2
	.global	MVC_compare_pic_by_pic_num_desc
	.type	MVC_compare_pic_by_pic_num_desc, %function
MVC_compare_pic_by_pic_num_desc:
	UNWIND(.fnstart)
	@ args = 0, pretend = 0, frame = 0
	@ frame_needed = 1, uses_anonymous_args = 0
	UNWIND(.movsp ip)
	mov	ip, sp
	stmfd	sp!, {fp, ip, lr, pc}
	UNWIND(.pad #4)
	UNWIND(.save {fp, ip, lr})
	UNWIND(.setfp fp, ip, #-4)
	sub	fp, ip, #4
	ldr	r2, [r0]
	ldr	r3, [r1]
	ldr	r2, [r2, #12]
	ldr	r3, [r3, #12]
	cmp	r2, r3
	blt	.L5
	mvngt	r0, #0
	movle	r0, #0
	ldmfd	sp, {fp, sp, pc}
.L5:
	mov	r0, #1
	ldmfd	sp, {fp, sp, pc}
	UNWIND(.fnend)
	.size	MVC_compare_pic_by_pic_num_desc, .-MVC_compare_pic_by_pic_num_desc
	.align	2
	.global	MVC_compare_pic_by_lt_pic_num_asc
	.type	MVC_compare_pic_by_lt_pic_num_asc, %function
MVC_compare_pic_by_lt_pic_num_asc:
	UNWIND(.fnstart)
	@ args = 0, pretend = 0, frame = 0
	@ frame_needed = 1, uses_anonymous_args = 0
	UNWIND(.movsp ip)
	mov	ip, sp
	stmfd	sp!, {fp, ip, lr, pc}
	UNWIND(.pad #4)
	UNWIND(.save {fp, ip, lr})
	UNWIND(.setfp fp, ip, #-4)
	sub	fp, ip, #4
	ldr	r2, [r0]
	ldr	r3, [r1]
	ldr	r2, [r2, #8]
	ldr	r3, [r3, #8]
	cmp	r2, r3
	blt	.L9
	movgt	r0, #1
	movle	r0, #0
	ldmfd	sp, {fp, sp, pc}
.L9:
	mvn	r0, #0
	ldmfd	sp, {fp, sp, pc}
	UNWIND(.fnend)
	.size	MVC_compare_pic_by_lt_pic_num_asc, .-MVC_compare_pic_by_lt_pic_num_asc
	.align	2
	.global	MVC_compare_fs_by_frame_num_desc
	.type	MVC_compare_fs_by_frame_num_desc, %function
MVC_compare_fs_by_frame_num_desc:
	UNWIND(.fnstart)
	@ args = 0, pretend = 0, frame = 0
	@ frame_needed = 1, uses_anonymous_args = 0
	UNWIND(.movsp ip)
	mov	ip, sp
	stmfd	sp!, {fp, ip, lr, pc}
	UNWIND(.pad #4)
	UNWIND(.save {fp, ip, lr})
	UNWIND(.setfp fp, ip, #-4)
	sub	fp, ip, #4
	ldr	r2, [r0]
	ldr	r3, [r1]
	ldr	r2, [r2, #24]
	ldr	r3, [r3, #24]
	cmp	r2, r3
	blt	.L12
	mvngt	r0, #0
	movle	r0, #0
	ldmfd	sp, {fp, sp, pc}
.L12:
	mov	r0, #1
	ldmfd	sp, {fp, sp, pc}
	UNWIND(.fnend)
	.size	MVC_compare_fs_by_frame_num_desc, .-MVC_compare_fs_by_frame_num_desc
	.align	2
	.global	MVC_compare_fs_by_lt_pic_idx_asc
	.type	MVC_compare_fs_by_lt_pic_idx_asc, %function
MVC_compare_fs_by_lt_pic_idx_asc:
	UNWIND(.fnstart)
	@ args = 0, pretend = 0, frame = 0
	@ frame_needed = 1, uses_anonymous_args = 0
	UNWIND(.movsp ip)
	mov	ip, sp
	stmfd	sp!, {fp, ip, lr, pc}
	UNWIND(.pad #4)
	UNWIND(.save {fp, ip, lr})
	UNWIND(.setfp fp, ip, #-4)
	sub	fp, ip, #4
	ldr	r2, [r0]
	ldr	r3, [r1]
	ldr	r2, [r2, #28]
	ldr	r3, [r3, #28]
	cmp	r2, r3
	bcc	.L15
	movhi	r0, #1
	movls	r0, #0
	ldmfd	sp, {fp, sp, pc}
.L15:
	mvn	r0, #0
	ldmfd	sp, {fp, sp, pc}
	UNWIND(.fnend)
	.size	MVC_compare_fs_by_lt_pic_idx_asc, .-MVC_compare_fs_by_lt_pic_idx_asc
	.align	2
	.global	MVC_compare_pic_by_poc_asc
	.type	MVC_compare_pic_by_poc_asc, %function
MVC_compare_pic_by_poc_asc:
	UNWIND(.fnstart)
	@ args = 0, pretend = 0, frame = 0
	@ frame_needed = 1, uses_anonymous_args = 0
	UNWIND(.movsp ip)
	mov	ip, sp
	stmfd	sp!, {fp, ip, lr, pc}
	UNWIND(.pad #4)
	UNWIND(.save {fp, ip, lr})
	UNWIND(.setfp fp, ip, #-4)
	sub	fp, ip, #4
	ldr	r2, [r0]
	ldr	r3, [r1]
	ldr	r2, [r2, #16]
	ldr	r3, [r3, #16]
	cmp	r2, r3
	blt	.L18
	movgt	r0, #1
	movle	r0, #0
	ldmfd	sp, {fp, sp, pc}
.L18:
	mvn	r0, #0
	ldmfd	sp, {fp, sp, pc}
	UNWIND(.fnend)
	.size	MVC_compare_pic_by_poc_asc, .-MVC_compare_pic_by_poc_asc
	.align	2
	.global	MVC_compare_pic_by_poc_desc
	.type	MVC_compare_pic_by_poc_desc, %function
MVC_compare_pic_by_poc_desc:
	UNWIND(.fnstart)
	@ args = 0, pretend = 0, frame = 0
	@ frame_needed = 1, uses_anonymous_args = 0
	UNWIND(.movsp ip)
	mov	ip, sp
	stmfd	sp!, {fp, ip, lr, pc}
	UNWIND(.pad #4)
	UNWIND(.save {fp, ip, lr})
	UNWIND(.setfp fp, ip, #-4)
	sub	fp, ip, #4
	ldr	r2, [r0]
	ldr	r3, [r1]
	ldr	r2, [r2, #16]
	ldr	r3, [r3, #16]
	cmp	r2, r3
	blt	.L21
	mvngt	r0, #0
	movle	r0, #0
	ldmfd	sp, {fp, sp, pc}
.L21:
	mov	r0, #1
	ldmfd	sp, {fp, sp, pc}
	UNWIND(.fnend)
	.size	MVC_compare_pic_by_poc_desc, .-MVC_compare_pic_by_poc_desc
	.align	2
	.global	MVC_compare_fs_by_poc_asc
	.type	MVC_compare_fs_by_poc_asc, %function
MVC_compare_fs_by_poc_asc:
	UNWIND(.fnstart)
	@ args = 0, pretend = 0, frame = 0
	@ frame_needed = 1, uses_anonymous_args = 0
	UNWIND(.movsp ip)
	mov	ip, sp
	stmfd	sp!, {fp, ip, lr, pc}
	UNWIND(.pad #4)
	UNWIND(.save {fp, ip, lr})
	UNWIND(.setfp fp, ip, #-4)
	sub	fp, ip, #4
	ldr	r2, [r0]
	ldr	r3, [r1]
	ldr	r2, [r2, #32]
	ldr	r3, [r3, #32]
	cmp	r2, r3
	blt	.L24
	movgt	r0, #1
	movle	r0, #0
	ldmfd	sp, {fp, sp, pc}
.L24:
	mvn	r0, #0
	ldmfd	sp, {fp, sp, pc}
	UNWIND(.fnend)
	.size	MVC_compare_fs_by_poc_asc, .-MVC_compare_fs_by_poc_asc
	.align	2
	.global	MVC_compare_fs_by_poc_desc
	.type	MVC_compare_fs_by_poc_desc, %function
MVC_compare_fs_by_poc_desc:
	UNWIND(.fnstart)
	@ args = 0, pretend = 0, frame = 0
	@ frame_needed = 1, uses_anonymous_args = 0
	UNWIND(.movsp ip)
	mov	ip, sp
	stmfd	sp!, {fp, ip, lr, pc}
	UNWIND(.pad #4)
	UNWIND(.save {fp, ip, lr})
	UNWIND(.setfp fp, ip, #-4)
	sub	fp, ip, #4
	ldr	r2, [r0]
	ldr	r3, [r1]
	ldr	r2, [r2, #32]
	ldr	r3, [r3, #32]
	cmp	r2, r3
	blt	.L27
	mvngt	r0, #0
	movle	r0, #0
	ldmfd	sp, {fp, sp, pc}
.L27:
	mov	r0, #1
	ldmfd	sp, {fp, sp, pc}
	UNWIND(.fnend)
	.size	MVC_compare_fs_by_poc_desc, .-MVC_compare_fs_by_poc_desc
	.align	2
	.type	MVC_SetFrmRepeatCount.part.2, %function
MVC_SetFrmRepeatCount.part.2:
	UNWIND(.fnstart)
	@ args = 0, pretend = 0, frame = 0
	@ frame_needed = 1, uses_anonymous_args = 0
	UNWIND(.movsp ip)
	mov	ip, sp
	stmfd	sp!, {fp, ip, lr, pc}
	UNWIND(.pad #4)
	UNWIND(.save {fp, ip, lr})
	UNWIND(.setfp fp, ip, #-4)
	sub	fp, ip, #4
	add	ip, r0, #11075584
	ldr	lr, [r0, #136]
	add	ip, ip, #45056
	ldr	r3, [r0, #132]
	ldr	r2, [ip, #2920]
	mov	r3, r3, lsr #1
	add	r2, r2, lr, lsr #1
	add	ip, r2, #1
	cmp	r3, ip
	movcc	r3, #0
	strcc	r3, [r1, #16]
	ldmccfd	sp, {fp, sp, pc}
	sub	r3, r3, #1
	rsb	r3, r2, r3
	cmp	r3, #1
	movhi	r3, #2
	movls	r3, #1
	strhi	r3, [r1, #16]
	strls	r3, [r1, #16]
	ldrhi	r3, [r0, #136]
	ldrls	r3, [r0, #136]
	addhi	r3, r3, #4
	addls	r3, r3, #2
	str	r3, [r0, #136]
	ldmfd	sp, {fp, sp, pc}
	UNWIND(.fnend)
	.size	MVC_SetFrmRepeatCount.part.2, .-MVC_SetFrmRepeatCount.part.2
	.align	2
	.type	MVC_CombinePacket.part.14, %function
MVC_CombinePacket.part.14:
	UNWIND(.fnstart)
	@ args = 0, pretend = 0, frame = 0
	@ frame_needed = 1, uses_anonymous_args = 0
	UNWIND(.movsp ip)
	mov	ip, sp
	stmfd	sp!, {r4, r5, r6, fp, ip, lr, pc}
	UNWIND(.pad #4)
	UNWIND(.save {r4, r5, r6, fp, ip, lr})
	UNWIND(.setfp fp, ip, #-4)
	sub	fp, ip, #4
	UNWIND(.pad #12)
	sub	sp, sp, #12
	ldr	r1, .L33
	mov	r4, r0
	mov	r0, #7
	bl	dprint_vfmw
	ldr	ip, [r4, #232]
	ldr	r1, .L33+4
	mov	r0, #7
	mov	r5, #0
	ldr	lr, [ip, #40]
	ldr	r3, [ip, #44]
	ldr	r2, [ip, #16]
	str	lr, [sp, #4]
	ldr	ip, [ip, #12]
	str	ip, [sp]
	bl	dprint_vfmw
	ldr	r3, [r4, #232]
	ldr	ip, .L33+8
	ldr	r2, [r3, #12]
	ldr	r0, [r3, #36]
	ldr	r1, [r3, #8]
	rsb	r0, r2, r0
	ldr	r3, [ip, #52]
	blx	r3
	ldr	r3, [r4, #232]
	mov	ip, #1
	ldr	r1, .L33+12
	mov	r0, #7
	ldr	r2, [r3, #60]
	ldr	r6, [r3, #32]
	str	r2, [r3, #32]
	ldr	r3, [r4, #232]
	str	r5, [r3, #24]
	ldr	r3, [r4, #232]
	ldr	lr, [r3, #12]
	ldr	r2, [r3, #36]
	rsb	r2, lr, r2
	str	r2, [r3, #8]
	ldr	r3, [r4, #232]
	ldr	lr, [r3, #12]
	ldr	r2, [r3, #44]
	rsb	r2, lr, r2
	str	r2, [r3, #16]
	ldr	r3, [r4, #232]
	ldr	lr, [r3, #40]
	ldr	r2, [r3, #12]
	add	r2, r2, lr
	str	r2, [r3, #12]
	ldr	r3, [r4, #232]
	str	ip, [r3, #68]
	ldr	r2, [r4, #232]
	ldr	r3, [r2, #12]
	ldr	r2, [r2, #16]
	bl	dprint_vfmw
	mov	r1, r6
	ldr	r0, [r4, #120]
	bl	SM_ReleaseStreamSeg
	ldr	r3, [r4, #232]
	str	r5, [r3, #36]
	ldr	r3, [r4, #232]
	str	r5, [r3, #52]
	ldr	r3, [r4, #232]
	str	r5, [r3, #40]
	sub	sp, fp, #24
	ldmfd	sp, {r4, r5, r6, fp, sp, pc}
.L34:
	.align	2
.L33:
	.word	.LC0
	.word	.LC1
	.word	vfmw_Osal_Func_Ptr_S
	.word	.LC2
	UNWIND(.fnend)
	.size	MVC_CombinePacket.part.14, .-MVC_CombinePacket.part.14
	.align	2
	.global	mvc_ue_v
	.type	mvc_ue_v, %function
mvc_ue_v:
	UNWIND(.fnstart)
	@ args = 0, pretend = 0, frame = 0
	@ frame_needed = 1, uses_anonymous_args = 0
	UNWIND(.movsp ip)
	mov	ip, sp
	stmfd	sp!, {r4, r5, r6, r7, r8, r9, fp, ip, lr, pc}
	UNWIND(.pad #4)
	UNWIND(.save {r4, r5, r6, r7, r8, r9, fp, ip, lr})
	UNWIND(.setfp fp, ip, #-4)
	sub	fp, ip, #4
	add	r8, r0, #548
	mov	r6, r0
	mov	r7, r1
	mov	r1, #32
	mov	r0, r8
	bl	BsShow
	mov	r5, r0
	bl	ZerosMS_32
	cmp	r0, #15
	mov	r4, r0
	bls	.L39
	cmp	r0, #31
	bls	.L40
	mvn	r5, #0
	mov	r8, #32
	mov	r3, #1
	strb	r3, [r6, #10]
.L37:
	ldr	lr, [r6, #232]
	mov	r2, r7
	mov	r3, r5
	ldr	r1, .L41
	mov	r0, #21
	ldr	ip, [lr, #64]
	add	r4, ip, r8
	str	r4, [lr, #64]
	bl	dprint_vfmw
	mov	r0, r5
	ldmfd	sp, {r4, r5, r6, r7, r8, r9, fp, sp, pc}
.L39:
	mov	r4, r0, asl #1
	mov	r0, r8
	add	r8, r4, #1
	rsb	r4, r4, #31
	mov	r4, r5, lsr r4
	mov	r1, r8
	sub	r5, r4, #1
	bl	BsSkip
	b	.L37
.L40:
	add	r5, r0, #1
	mov	r1, r0
	mov	r0, r8
	bl	BsSkip
	mov	r1, r5
	mov	r0, r8
	bl	BsShow
	mov	r1, r5
	sub	r5, r0, #1
	mov	r0, r8
	bl	BsSkip
	mov	r3, r4, asl #1
	add	r8, r3, #1
	b	.L37
.L42:
	.align	2
.L41:
	.word	.LC3
	UNWIND(.fnend)
	.size	mvc_ue_v, .-mvc_ue_v
	.align	2
	.global	mvc_se_v
	.type	mvc_se_v, %function
mvc_se_v:
	UNWIND(.fnstart)
	@ args = 0, pretend = 0, frame = 0
	@ frame_needed = 1, uses_anonymous_args = 0
	UNWIND(.movsp ip)
	mov	ip, sp
	stmfd	sp!, {r4, r5, r6, r7, r8, r9, fp, ip, lr, pc}
	UNWIND(.pad #4)
	UNWIND(.save {r4, r5, r6, r7, r8, r9, fp, ip, lr})
	UNWIND(.setfp fp, ip, #-4)
	sub	fp, ip, #4
	add	r8, r0, #548
	mov	r6, r0
	mov	r7, r1
	mov	r1, #32
	mov	r0, r8
	bl	BsShow
	mov	r4, r0
	bl	ZerosMS_32
	cmp	r0, #15
	mov	r5, r0
	bhi	.L44
	mov	r5, r0, asl #1
	mov	r0, r8
	rsb	r3, r5, #31
	add	r5, r5, #1
	mov	r3, r4, lsr r3
	and	r2, r3, #1
	mov	r1, r5
	rsb	r4, r2, #0
	eor	r3, r4, r3, lsr #1
	add	r4, r3, r2
	bl	BsSkip
.L45:
	ldr	lr, [r6, #232]
	mov	r2, r7
	mov	r3, r4
	ldr	r1, .L48
	mov	r0, #21
	ldr	ip, [lr, #64]
	add	r5, ip, r5
	str	r5, [lr, #64]
	bl	dprint_vfmw
	mov	r0, r4
	ldmfd	sp, {r4, r5, r6, r7, r8, r9, fp, sp, pc}
.L44:
	cmp	r0, #31
	bls	.L47
	mov	r3, #1
	mvn	r4, #-2147483648
	mov	r5, #32
	strb	r3, [r6, #10]
	b	.L45
.L47:
	mov	r1, r0
	mov	r0, r8
	bl	BsSkip
	mov	r1, r5
	mov	r0, r8
	mov	r5, r5, asl #1
	bl	BsGet
	mov	r1, #1
	add	r5, r5, #1
	mov	r9, r0
	mov	r0, r8
	bl	BsGet
	and	r0, r0, #1
	rsb	r4, r0, #0
	eor	r9, r9, r4
	add	r4, r9, r0
	b	.L45
.L49:
	.align	2
.L48:
	.word	.LC3
	UNWIND(.fnend)
	.size	mvc_se_v, .-mvc_se_v
	.align	2
	.global	mvc_u_v
	.type	mvc_u_v, %function
mvc_u_v:
	UNWIND(.fnstart)
	@ args = 0, pretend = 0, frame = 0
	@ frame_needed = 1, uses_anonymous_args = 0
	UNWIND(.movsp ip)
	mov	ip, sp
	stmfd	sp!, {r4, r5, r6, r7, fp, ip, lr, pc}
	UNWIND(.pad #4)
	UNWIND(.save {r4, r5, r6, r7, fp, ip, lr})
	UNWIND(.setfp fp, ip, #-4)
	sub	fp, ip, #4
	mov	r5, r0
	add	r0, r0, #548
	mov	r6, r1
	mov	r7, r2
	bl	BsGet
	ldr	lr, [r5, #232]
	mov	r2, r7
	ldr	r1, .L51
	ldr	ip, [lr, #64]
	add	ip, ip, r6
	str	ip, [lr, #64]
	mov	r4, r0
	mov	r3, r0
	mov	r0, #21
	bl	dprint_vfmw
	mov	r0, r4
	ldmfd	sp, {r4, r5, r6, r7, fp, sp, pc}
.L52:
	.align	2
.L51:
	.word	.LC3
	UNWIND(.fnend)
	.size	mvc_u_v, .-mvc_u_v
	.align	2
	.global	mvc_u_1
	.type	mvc_u_1, %function
mvc_u_1:
	UNWIND(.fnstart)
	@ args = 0, pretend = 0, frame = 0
	@ frame_needed = 1, uses_anonymous_args = 0
	UNWIND(.movsp ip)
	mov	ip, sp
	stmfd	sp!, {r4, r5, r6, r7, fp, ip, lr, pc}
	UNWIND(.pad #4)
	UNWIND(.save {r4, r5, r6, r7, fp, ip, lr})
	UNWIND(.setfp fp, ip, #-4)
	sub	fp, ip, #4
	mov	r5, r0
	mov	r6, r1
	add	r0, r0, #548
	mov	r1, #1
	bl	BsGet
	ldr	lr, [r5, #232]
	mov	r2, r6
	ldr	r1, .L54
	ldr	ip, [lr, #64]
	add	ip, ip, #1
	str	ip, [lr, #64]
	mov	r4, r0
	mov	r3, r0
	mov	r0, #21
	bl	dprint_vfmw
	mov	r0, r4
	ldmfd	sp, {r4, r5, r6, r7, fp, sp, pc}
.L55:
	.align	2
.L54:
	.word	.LC3
	UNWIND(.fnend)
	.size	mvc_u_1, .-mvc_u_1
	.align	2
	.global	MVC_GetMinPOC
	.type	MVC_GetMinPOC, %function
MVC_GetMinPOC:
	UNWIND(.fnstart)
	@ args = 0, pretend = 0, frame = 8
	@ frame_needed = 1, uses_anonymous_args = 0
	UNWIND(.movsp ip)
	mov	ip, sp
	stmfd	sp!, {r4, r5, r6, r7, r8, r9, r10, fp, ip, lr, pc}
	UNWIND(.pad #4)
	UNWIND(.save {r4, r5, r6, r7, r8, r9, r10, fp, ip, lr})
	UNWIND(.setfp fp, ip, #-4)
	sub	fp, ip, #4
	UNWIND(.pad #12)
	sub	sp, sp, #12
	add	r5, r0, #11075584
	add	r5, r5, #45056
	mov	r9, r3
	mov	r8, r2
	mvn	r3, #-2147483648
	mvn	r2, #0
	str	r2, [r9]
	str	r3, [r8]
	mov	r6, r0
	ldr	r3, [r5, #2920]
	mov	r7, r1
	ldr	r2, [r5, #2924]
	cmp	r2, r3
	strhi	r3, [r5, #2924]
	cmp	r3, #0
	beq	.L63
	movw	r10, #47780
	mvn	r3, #0
	movt	r10, 169
	str	r3, [fp, #-48]
	add	r10, r0, r10
	mov	r4, #0
	b	.L62
.L60:
	ldr	ip, [r8]
	ldr	r1, [r2, #32]
	cmp	ip, r1
	ble	.L59
	ldrb	ip, [r2, #5]	@ zero_extendqisi2
	cmp	ip, #0
	beq	.L59
	ldrb	r0, [r0, #1]	@ zero_extendqisi2
	sub	r0, r0, #1
	cmp	r0, #1
	bls	.L78
.L59:
	ldr	r2, [r5, #2920]
	add	r4, r4, #1
	cmp	r2, r4
	bls	.L63
.L62:
	ldr	r2, [r10, #4]!
	cmp	r2, #0
	beq	.L59
	ldrsb	r1, [r2, #6]
	ldr	r0, [r6, #120]
	bl	FSP_GetLogicFs
	cmp	r0, #0
	beq	.L59
	cmn	r7, #1
	ldr	r2, [r10]
	bne	.L60
	ldrb	r1, [r2, #5]	@ zero_extendqisi2
	cmp	r1, #0
	beq	.L59
	ldrb	r1, [r0, #1]	@ zero_extendqisi2
	sub	r1, r1, #1
	cmp	r1, #1
	bhi	.L59
	ldr	r0, [r8]
	ldr	r1, [r2, #32]
	cmp	r0, r1
	ble	.L61
	str	r1, [r8]
	str	r4, [r9]
	add	r4, r4, #1
	ldr	r2, [r10]
	ldr	r3, [r2, #56]
	ldr	r2, [r5, #2920]
	cmp	r2, r4
	str	r3, [fp, #-48]
	bhi	.L62
.L63:
	ldr	r0, [r9]
	sub	sp, fp, #40
	ldmfd	sp, {r4, r5, r6, r7, r8, r9, r10, fp, sp, pc}
.L78:
	ldr	r2, [r2, #56]
	cmp	r7, r2
	streq	r1, [r8]
	streq	r4, [r9]
	b	.L59
.L61:
	bne	.L59
	ldr	r2, [r2, #56]
	ldr	r3, [fp, #-48]
	cmp	r2, r3
	strlt	r4, [r9]
	ldrlt	r2, [r10]
	ldrlt	r3, [r2, #56]
	strlt	r3, [fp, #-48]
	b	.L59
	UNWIND(.fnend)
	.size	MVC_GetMinPOC, .-MVC_GetMinPOC
	.align	2
	.global	MVC_FrameStoreRefFlg
	.type	MVC_FrameStoreRefFlg, %function
MVC_FrameStoreRefFlg:
	UNWIND(.fnstart)
	@ args = 0, pretend = 0, frame = 0
	@ frame_needed = 1, uses_anonymous_args = 0
	UNWIND(.movsp ip)
	mov	ip, sp
	stmfd	sp!, {fp, ip, lr, pc}
	UNWIND(.pad #4)
	UNWIND(.save {fp, ip, lr})
	UNWIND(.setfp fp, ip, #-4)
	sub	fp, ip, #4
	ldrb	r0, [r0, #3]	@ zero_extendqisi2
	adds	r0, r0, #0
	movne	r0, #1
	ldmfd	sp, {fp, sp, pc}
	UNWIND(.fnend)
	.size	MVC_FrameStoreRefFlg, .-MVC_FrameStoreRefFlg
	.align	2
	.global	MVC_NonLongTermRefFlg
	.type	MVC_NonLongTermRefFlg, %function
MVC_NonLongTermRefFlg:
	UNWIND(.fnstart)
	@ args = 0, pretend = 0, frame = 0
	@ frame_needed = 1, uses_anonymous_args = 0
	UNWIND(.movsp ip)
	mov	ip, sp
	stmfd	sp!, {fp, ip, lr, pc}
	UNWIND(.pad #4)
	UNWIND(.save {fp, ip, lr})
	UNWIND(.setfp fp, ip, #-4)
	sub	fp, ip, #4
	ldrb	r3, [r0, #3]	@ zero_extendqisi2
	cmp	r3, #3
	beq	.L95
	tst	r3, #1
	bne	.L96
.L84:
	and	r3, r3, #2
	ands	r3, r3, #255
	beq	.L88
.L85:
	ldrb	r0, [r0, #785]	@ zero_extendqisi2
	clz	r0, r0
	mov	r0, r0, lsr #5
	ldmfd	sp, {fp, sp, pc}
.L88:
	mov	r0, r3
	ldmfd	sp, {fp, sp, pc}
.L96:
	ldrb	r2, [r0, #749]	@ zero_extendqisi2
	cmp	r2, #0
	bne	.L84
.L89:
	mov	r0, #1
	ldmfd	sp, {fp, sp, pc}
.L95:
	ldrb	r3, [r0, #713]	@ zero_extendqisi2
	cmp	r3, #0
	beq	.L89
	ldrb	r3, [r0, #749]	@ zero_extendqisi2
	cmp	r3, #0
	bne	.L85
	b	.L89
	UNWIND(.fnend)
	.size	MVC_NonLongTermRefFlg, .-MVC_NonLongTermRefFlg
	.align	2
	.global	MVC_ShortTermRefFlg
	.type	MVC_ShortTermRefFlg, %function
MVC_ShortTermRefFlg:
	UNWIND(.fnstart)
	@ args = 0, pretend = 0, frame = 0
	@ frame_needed = 1, uses_anonymous_args = 0
	UNWIND(.movsp ip)
	mov	ip, sp
	stmfd	sp!, {fp, ip, lr, pc}
	UNWIND(.pad #4)
	UNWIND(.save {fp, ip, lr})
	UNWIND(.setfp fp, ip, #-4)
	sub	fp, ip, #4
	ldrb	r3, [r0, #3]	@ zero_extendqisi2
	cmp	r3, #3
	beq	.L112
	tst	r3, #1
	bne	.L113
.L101:
	and	r3, r3, #2
	ands	r3, r3, #255
	beq	.L105
.L102:
	ldr	r0, [r0, #784]
	bic	r0, r0, #-16777216
	bic	r0, r0, #255
	sub	r0, r0, #65536
	clz	r0, r0
	mov	r0, r0, lsr #5
	ldmfd	sp, {fp, sp, pc}
.L105:
	mov	r0, r3
	ldmfd	sp, {fp, sp, pc}
.L113:
	ldr	r2, [r0, #748]
	bic	r2, r2, #-16777216
	bic	r2, r2, #255
	cmp	r2, #65536
	bne	.L101
.L106:
	mov	r0, #1
	ldmfd	sp, {fp, sp, pc}
.L112:
	ldr	r3, [r0, #712]
	bic	r3, r3, #-16777216
	bic	r3, r3, #255
	cmp	r3, #65536
	beq	.L106
	ldr	r3, [r0, #748]
	bic	r3, r3, #-16777216
	bic	r3, r3, #255
	cmp	r3, #65536
	bne	.L102
	b	.L106
	UNWIND(.fnend)
	.size	MVC_ShortTermRefFlg, .-MVC_ShortTermRefFlg
	.align	2
	.global	MVC_LongTermRefFlg
	.type	MVC_LongTermRefFlg, %function
MVC_LongTermRefFlg:
	UNWIND(.fnstart)
	@ args = 0, pretend = 0, frame = 0
	@ frame_needed = 1, uses_anonymous_args = 0
	UNWIND(.movsp ip)
	mov	ip, sp
	stmfd	sp!, {fp, ip, lr, pc}
	UNWIND(.pad #4)
	UNWIND(.save {fp, ip, lr})
	UNWIND(.setfp fp, ip, #-4)
	sub	fp, ip, #4
	ldrb	r3, [r0, #3]	@ zero_extendqisi2
	cmp	r3, #3
	beq	.L129
	tst	r3, #1
	bne	.L130
.L118:
	and	r3, r3, #2
	ands	r3, r3, #255
	beq	.L122
.L119:
	ldr	r0, [r0, #784]
	bic	r0, r0, #-16777216
	bic	r0, r0, #255
	sub	r0, r0, #256
	clz	r0, r0
	mov	r0, r0, lsr #5
	ldmfd	sp, {fp, sp, pc}
.L122:
	mov	r0, r3
	ldmfd	sp, {fp, sp, pc}
.L130:
	ldr	r2, [r0, #748]
	bic	r2, r2, #-16777216
	bic	r2, r2, #255
	cmp	r2, #256
	bne	.L118
.L123:
	mov	r0, #1
	ldmfd	sp, {fp, sp, pc}
.L129:
	ldr	r3, [r0, #712]
	bic	r3, r3, #-16777216
	bic	r3, r3, #255
	cmp	r3, #256
	beq	.L123
	ldr	r3, [r0, #748]
	bic	r3, r3, #-16777216
	bic	r3, r3, #255
	cmp	r3, #256
	bne	.L119
	b	.L123
	UNWIND(.fnend)
	.size	MVC_LongTermRefFlg, .-MVC_LongTermRefFlg
	.align	2
	.global	MVC_UpdateLTReflist
	.type	MVC_UpdateLTReflist, %function
MVC_UpdateLTReflist:
	UNWIND(.fnstart)
	@ args = 0, pretend = 0, frame = 8
	@ frame_needed = 1, uses_anonymous_args = 0
	UNWIND(.movsp ip)
	mov	ip, sp
	stmfd	sp!, {r4, r5, r6, r7, r8, r9, r10, fp, ip, lr, pc}
	UNWIND(.pad #4)
	UNWIND(.save {r4, r5, r6, r7, r8, r9, r10, fp, ip, lr})
	UNWIND(.setfp fp, ip, #-4)
	sub	fp, ip, #4
	UNWIND(.pad #12)
	sub	sp, sp, #12
	add	r3, r0, #11075584
	add	r3, r3, #45056
	mov	r7, r0
	str	r3, [fp, #-48]
	ldr	r10, [r3, #2920]
	cmp	r10, #0
	beq	.L132
	movw	r8, #47780
	add	r9, r0, #11141120
	movt	r8, 169
	mov	r4, #0
	add	r9, r9, #16384
	add	r8, r0, r8
	mov	r6, r4
.L134:
	ldr	r5, [r8, #4]!
	add	r6, r6, #1
	cmp	r5, #0
	mov	r0, r5
	beq	.L133
	bl	MVC_LongTermRefFlg
	cmp	r0, #0
	beq	.L133
	ldr	r2, [r9, #120]
	ldr	r1, [r5, #56]
	cmp	r1, r2
	movweq	r2, #28362
	movteq	r2, 42
	addeq	r2, r4, r2
	addeq	r4, r4, #1
	streq	r5, [r7, r2, asl #2]
.L133:
	cmp	r6, r10
	bne	.L134
	ldr	r3, [fp, #-48]
	cmp	r4, r10
	str	r4, [r3, #2932]
	bcs	.L131
	movw	r0, #28361
	mov	r2, #0
	movt	r0, 42
	add	r0, r4, r0
	add	r0, r7, r0, lsl #2
.L137:
	add	r4, r4, #1
	str	r2, [r0, #4]!
	cmp	r4, r10
	bne	.L137
.L131:
	sub	sp, fp, #40
	ldmfd	sp, {r4, r5, r6, r7, r8, r9, r10, fp, sp, pc}
.L132:
	ldr	r3, [fp, #-48]
	str	r10, [r3, #2932]
	b	.L131
	UNWIND(.fnend)
	.size	MVC_UpdateLTReflist, .-MVC_UpdateLTReflist
	.align	2
	.global	MVC_UpdateReflist
	.type	MVC_UpdateReflist, %function
MVC_UpdateReflist:
	UNWIND(.fnstart)
	@ args = 0, pretend = 0, frame = 8
	@ frame_needed = 1, uses_anonymous_args = 0
	UNWIND(.movsp ip)
	mov	ip, sp
	stmfd	sp!, {r4, r5, r6, r7, r8, r9, r10, fp, ip, lr, pc}
	UNWIND(.pad #4)
	UNWIND(.save {r4, r5, r6, r7, r8, r9, r10, fp, ip, lr})
	UNWIND(.setfp fp, ip, #-4)
	sub	fp, ip, #4
	UNWIND(.pad #12)
	sub	sp, sp, #12
	add	r3, r0, #11075584
	add	r3, r3, #45056
	mov	r7, r0
	str	r3, [fp, #-48]
	ldr	r10, [r3, #2920]
	cmp	r10, #0
	beq	.L148
	movw	r8, #47780
	add	r9, r0, #11141120
	movt	r8, 169
	mov	r4, #0
	add	r9, r9, #16384
	add	r8, r0, r8
	mov	r6, r4
.L150:
	ldr	r5, [r8, #4]!
	add	r6, r6, #1
	cmp	r5, #0
	mov	r0, r5
	beq	.L149
	bl	MVC_ShortTermRefFlg
	cmp	r0, #0
	beq	.L149
	ldr	r2, [r9, #120]
	ldr	r1, [r5, #56]
	cmp	r1, r2
	movweq	r2, #28346
	movteq	r2, 42
	addeq	r2, r4, r2
	addeq	r4, r4, #1
	streq	r5, [r7, r2, asl #2]
.L149:
	cmp	r6, r10
	bne	.L150
	ldr	r3, [fp, #-48]
	cmp	r4, r10
	str	r4, [r3, #2928]
	bcs	.L147
	movw	r0, #28345
	mov	r2, #0
	movt	r0, 42
	add	r0, r4, r0
	add	r0, r7, r0, lsl #2
.L153:
	add	r4, r4, #1
	str	r2, [r0, #4]!
	cmp	r4, r10
	bne	.L153
.L147:
	sub	sp, fp, #40
	ldmfd	sp, {r4, r5, r6, r7, r8, r9, r10, fp, sp, pc}
.L148:
	ldr	r3, [fp, #-48]
	str	r10, [r3, #2928]
	b	.L147
	UNWIND(.fnend)
	.size	MVC_UpdateReflist, .-MVC_UpdateReflist
	.align	2
	.global	MVC_GetPicNumX
	.type	MVC_GetPicNumX, %function
MVC_GetPicNumX:
	UNWIND(.fnstart)
	@ args = 0, pretend = 0, frame = 0
	@ frame_needed = 1, uses_anonymous_args = 0
	UNWIND(.movsp ip)
	mov	ip, sp
	stmfd	sp!, {fp, ip, lr, pc}
	UNWIND(.pad #4)
	UNWIND(.save {fp, ip, lr})
	UNWIND(.setfp fp, ip, #-4)
	sub	fp, ip, #4
	ldrb	r3, [r0, #3]	@ zero_extendqisi2
	cmp	r3, #0
	ldr	r3, [r0, #664]
	mvn	r0, r1
	movne	r3, r3, asl #1
	addne	r3, r3, #1
	add	r0, r0, r3
	ldmfd	sp, {fp, sp, pc}
	UNWIND(.fnend)
	.size	MVC_GetPicNumX, .-MVC_GetPicNumX
	.align	2
	.global	MVC_UnMarkFrameStoreRef
	.type	MVC_UnMarkFrameStoreRef, %function
MVC_UnMarkFrameStoreRef:
	UNWIND(.fnstart)
	@ args = 0, pretend = 0, frame = 0
	@ frame_needed = 1, uses_anonymous_args = 0
	UNWIND(.movsp ip)
	mov	ip, sp
	stmfd	sp!, {fp, ip, lr, pc}
	UNWIND(.pad #4)
	UNWIND(.save {fp, ip, lr})
	UNWIND(.setfp fp, ip, #-4)
	sub	fp, ip, #4
	ldrb	r2, [r1, #2]	@ zero_extendqisi2
	mov	r3, r1
	tst	r2, #1
	beq	.L167
	ldrb	r1, [r1, #3]	@ zero_extendqisi2
	mov	ip, #0
	strb	ip, [r3, #749]
	and	r1, r1, #2
	strb	ip, [r3, #750]
	strb	r1, [r3, #3]
.L167:
	tst	r2, #2
	beq	.L168
	ldrb	r1, [r3, #3]	@ zero_extendqisi2
	mov	ip, #0
	strb	ip, [r3, #785]
	and	r1, r1, #1
	strb	ip, [r3, #786]
	strb	r1, [r3, #3]
.L168:
	cmp	r2, #3
	ldrsb	r1, [r3, #6]
	moveq	r2, #0
	streqb	r2, [r3, #714]
	streqb	r2, [r3, #713]
	mov	r2, #0
	strb	r2, [r3, #3]
	ldr	r0, [r0, #120]
	sub	sp, fp, #12
	ldmia	sp, {fp, sp, lr}
	b	FSP_SetRef
	UNWIND(.fnend)
	.size	MVC_UnMarkFrameStoreRef, .-MVC_UnMarkFrameStoreRef
	.align	2
	.global	MVC_UnMarkLTFrmByFrmIdx
	.type	MVC_UnMarkLTFrmByFrmIdx, %function
MVC_UnMarkLTFrmByFrmIdx:
	UNWIND(.fnstart)
	@ args = 0, pretend = 0, frame = 0
	@ frame_needed = 1, uses_anonymous_args = 0
	UNWIND(.movsp ip)
	mov	ip, sp
	stmfd	sp!, {r4, r5, r6, fp, ip, lr, pc}
	UNWIND(.pad #4)
	UNWIND(.save {r4, r5, r6, fp, ip, lr})
	UNWIND(.setfp fp, ip, #-4)
	sub	fp, ip, #4
	add	r3, r0, #11075584
	add	r3, r3, #45056
	ldr	r4, [r3, #2932]
	cmp	r4, #0
	ldmeqfd	sp, {r4, r5, r6, fp, sp, pc}
	movw	ip, #47908
	add	r6, r0, #11141120
	movt	ip, 169
	add	r6, r6, #16384
	add	ip, r0, ip
	mov	r3, #0
	b	.L179
.L178:
	cmp	r3, r4
	beq	.L184
.L179:
	ldr	r2, [ip, #4]!
	add	r3, r3, #1
	ldr	lr, [r2, #28]
	cmp	lr, r1
	bne	.L178
	ldr	r5, [r2, #56]
	ldr	lr, [r6, #120]
	cmp	r5, lr
	bne	.L178
	mov	r1, r2
	sub	sp, fp, #24
	ldmfd	sp, {r4, r5, r6, fp, sp, lr}
	b	MVC_UnMarkFrameStoreRef
.L184:
	ldmfd	sp, {r4, r5, r6, fp, sp, pc}
	UNWIND(.fnend)
	.size	MVC_UnMarkLTFrmByFrmIdx, .-MVC_UnMarkLTFrmByFrmIdx
	.align	2
	.global	MVC_UnMarkLTFldByFrmIdx
	.type	MVC_UnMarkLTFldByFrmIdx, %function
MVC_UnMarkLTFldByFrmIdx:
	UNWIND(.fnstart)
	@ args = 0, pretend = 0, frame = 0
	@ frame_needed = 1, uses_anonymous_args = 0
	UNWIND(.movsp ip)
	mov	ip, sp
	stmfd	sp!, {r4, r5, r6, r7, r8, fp, ip, lr, pc}
	UNWIND(.pad #4)
	UNWIND(.save {r4, r5, r6, r7, r8, fp, ip, lr})
	UNWIND(.setfp fp, ip, #-4)
	sub	fp, ip, #4
	add	ip, r0, #11075584
	add	ip, ip, #45056
	ldr	r6, [ip, #2932]
	cmp	r6, #0
	ldmeqfd	sp, {r4, r5, r6, r7, r8, fp, sp, pc}
	movw	r4, #47908
	add	r8, r0, #11141120
	movt	r4, 169
	add	r8, r8, #16384
	add	r4, r0, r4
	mov	ip, #0
	b	.L189
.L187:
	cmp	ip, r6
	beq	.L203
.L189:
	ldr	lr, [r4, #4]!
	add	ip, ip, #1
	ldr	r5, [lr, #28]
	cmp	r5, r3
	bne	.L187
	ldr	r7, [lr, #56]
	ldr	r5, [r8, #120]
	cmp	r7, r5
	bne	.L187
	cmp	r2, #1
	ldreqb	r5, [lr, #785]	@ zero_extendqisi2
	beq	.L202
	cmp	r2, #2
	bne	.L187
	ldrb	r5, [lr, #749]	@ zero_extendqisi2
.L202:
	clz	r5, r5
	mov	r5, r5, lsr #5
	cmp	lr, r1
	orrne	r5, r5, #1
	cmp	r5, #0
	beq	.L187
	mov	r1, lr
	sub	sp, fp, #32
	ldmfd	sp, {r4, r5, r6, r7, r8, fp, sp, lr}
	b	MVC_UnMarkFrameStoreRef
.L203:
	ldmfd	sp, {r4, r5, r6, r7, r8, fp, sp, pc}
	UNWIND(.fnend)
	.size	MVC_UnMarkLTFldByFrmIdx, .-MVC_UnMarkLTFldByFrmIdx
	.align	2
	.global	MVC_UnMarkSTRef
	.type	MVC_UnMarkSTRef, %function
MVC_UnMarkSTRef:
	UNWIND(.fnstart)
	@ args = 0, pretend = 0, frame = 0
	@ frame_needed = 1, uses_anonymous_args = 0
	UNWIND(.movsp ip)
	mov	ip, sp
	stmfd	sp!, {r4, r5, r6, r7, r8, fp, ip, lr, pc}
	UNWIND(.pad #4)
	UNWIND(.save {r4, r5, r6, r7, r8, fp, ip, lr})
	UNWIND(.setfp fp, ip, #-4)
	sub	fp, ip, #4
	ldrb	r3, [r1, #3]	@ zero_extendqisi2
	cmp	r3, #0
	bne	.L205
	add	ip, r0, #11075584
	ldr	r1, [r1, #664]
	add	ip, ip, #45056
	sub	r1, r1, #1
	ldr	r4, [ip, #2928]
	rsb	r2, r2, r1
	cmp	r4, #0
	beq	.L234
	movw	ip, #47844
	add	r5, r0, #11141120
	movt	ip, 169
	add	r5, r5, #16384
	add	ip, r0, ip
	b	.L211
.L210:
	cmp	r3, r4
	beq	.L235
.L211:
	ldr	r1, [ip, #4]!
	add	r3, r3, #1
	ldr	lr, [r1, #724]
	cmp	lr, r2
	bne	.L210
	ldrb	lr, [r1, #3]	@ zero_extendqisi2
	cmp	lr, #3
	bne	.L210
	ldr	lr, [r1, #712]
	bic	lr, lr, #-16777216
	bic	lr, lr, #255
	cmp	lr, #65536
	bne	.L210
	ldr	r6, [r1, #56]
	ldr	lr, [r5, #120]
	cmp	r6, lr
	bne	.L210
	sub	sp, fp, #32
	ldmfd	sp, {r4, r5, r6, r7, r8, fp, sp, lr}
	b	MVC_UnMarkFrameStoreRef
.L205:
	add	r3, r0, #11075584
	ldr	r1, [r1, #664]
	add	r3, r3, #45056
	ldr	r5, [r3, #2928]
	rsb	r2, r2, r1, lsl #1
	cmp	r5, #0
	beq	.L236
	movw	r4, #47844
	add	r7, r0, #11141120
	movt	r4, 169
	add	r7, r7, #16384
	add	r4, r0, r4
	mov	ip, #0
	b	.L216
.L212:
	tst	r3, #2
	beq	.L214
	ldr	r3, [r1, #784]
	bic	r3, r3, #-16777216
	bic	r3, r3, #255
	cmp	r3, #65536
	beq	.L237
.L214:
	add	ip, ip, #1
	cmp	ip, r5
	beq	.L238
.L216:
	ldr	r1, [r4, #4]!
	ldrb	r3, [r1, #3]	@ zero_extendqisi2
	ands	r6, r3, #1
	beq	.L212
	ldr	lr, [r1, #748]
	bic	lr, lr, #-16777216
	bic	lr, lr, #255
	cmp	lr, #65536
	bne	.L212
	ldr	r8, [r1, #56]
	ldr	lr, [r7, #120]
	cmp	r8, lr
	bne	.L212
	ldr	lr, [r1, #760]
	cmp	lr, r2
	bne	.L212
	add	r2, r0, ip, lsl #2
	and	r3, r3, #2
	add	r2, r2, #11075584
	strb	r3, [r1, #3]
	add	r2, r2, #45056
	mov	r1, #0
	ldr	r3, [r2, #2792]
	strb	r1, [r3, #750]
	ldr	r3, [r2, #2792]
	ldrb	ip, [r3, #712]	@ zero_extendqisi2
	cmp	ip, #3
	cmpne	ip, r1
	streqb	r1, [r3, #714]
	ldreq	r3, [r2, #2792]
	streqb	r1, [r3, #713]
	ldreq	r3, [r2, #2792]
	ldrb	ip, [r3, #3]	@ zero_extendqisi2
	cmp	ip, #0
	ldmnefd	sp, {r4, r5, r6, r7, r8, fp, sp, pc}
	ldr	r1, [r3, #48]
	mov	r2, ip
	add	r1, r0, r1, lsl #2
	str	ip, [r1, #148]
	ldrsb	r1, [r3, #6]
	b	.L231
.L237:
	ldr	lr, [r1, #56]
	ldr	r3, [r7, #120]
	cmp	lr, r3
	bne	.L214
	ldr	r3, [r1, #796]
	cmp	r3, r2
	bne	.L214
	add	r3, r0, ip, lsl #2
	strb	r6, [r1, #3]
	add	r3, r3, #11075584
	mov	r2, #0
	add	r3, r3, #45056
	ldr	r1, [r3, #2792]
	strb	r2, [r1, #786]
	ldr	r1, [r3, #2792]
	ldrb	ip, [r1, #712]	@ zero_extendqisi2
	cmp	ip, #3
	cmpne	ip, r2
	streqb	r2, [r1, #714]
	ldreq	r1, [r3, #2792]
	streqb	r2, [r1, #713]
	ldreq	r1, [r3, #2792]
	ldrb	ip, [r1, #3]	@ zero_extendqisi2
	cmp	ip, #0
	ldmnefd	sp, {r4, r5, r6, r7, r8, fp, sp, pc}
	ldr	r3, [r1, #48]
	mov	r2, ip
	add	r3, r0, r3, lsl #2
	str	ip, [r3, #148]
	ldrsb	r1, [r1, #6]
.L231:
	ldr	r0, [r0, #120]
	sub	sp, fp, #32
	ldmfd	sp, {r4, r5, r6, r7, r8, fp, sp, lr}
	b	FSP_SetRef
.L238:
	ldmfd	sp, {r4, r5, r6, r7, r8, fp, sp, pc}
.L235:
	ldmfd	sp, {r4, r5, r6, r7, r8, fp, sp, pc}
.L234:
	ldmfd	sp, {r4, r5, r6, r7, r8, fp, sp, pc}
.L236:
	ldmfd	sp, {r4, r5, r6, r7, r8, fp, sp, pc}
	UNWIND(.fnend)
	.size	MVC_UnMarkSTRef, .-MVC_UnMarkSTRef
	.align	2
	.global	MVC_UnMarkLTRef
	.type	MVC_UnMarkLTRef, %function
MVC_UnMarkLTRef:
	UNWIND(.fnstart)
	@ args = 0, pretend = 0, frame = 0
	@ frame_needed = 1, uses_anonymous_args = 0
	UNWIND(.movsp ip)
	mov	ip, sp
	stmfd	sp!, {r4, r5, r6, r7, r8, fp, ip, lr, pc}
	UNWIND(.pad #4)
	UNWIND(.save {r4, r5, r6, r7, r8, fp, ip, lr})
	UNWIND(.setfp fp, ip, #-4)
	sub	fp, ip, #4
	ldrb	r3, [r1, #3]	@ zero_extendqisi2
	cmp	r3, #0
	beq	.L240
	add	r3, r0, #11075584
	add	r3, r3, #45056
	ldr	r5, [r3, #2932]
	cmp	r5, #0
	beq	.L269
	movw	r4, #47908
	add	r7, r0, #11141120
	movt	r4, 169
	add	r7, r7, #16384
	add	r4, r0, r4
	mov	ip, #0
	b	.L249
.L245:
	tst	r3, #2
	beq	.L247
	ldr	r3, [r1, #784]
	bic	r3, r3, #-16777216
	bic	r3, r3, #255
	cmp	r3, #256
	beq	.L270
.L247:
	add	ip, ip, #1
	cmp	ip, r5
	beq	.L271
.L249:
	ldr	r1, [r4, #4]!
	ldrb	r3, [r1, #3]	@ zero_extendqisi2
	ands	r6, r3, #1
	beq	.L245
	ldr	lr, [r1, #748]
	bic	lr, lr, #-16777216
	bic	lr, lr, #255
	cmp	lr, #256
	bne	.L245
	ldr	r8, [r1, #56]
	ldr	lr, [r7, #120]
	cmp	r8, lr
	bne	.L245
	ldr	lr, [r1, #756]
	cmp	r2, lr
	bne	.L245
	add	r2, r0, ip, lsl #2
	and	r3, r3, #2
	add	r2, r2, #11075584
	strb	r3, [r1, #3]
	add	r2, r2, #45056
	mov	r1, #0
	ldr	r3, [r2, #2856]
	strb	r1, [r3, #749]
	ldr	r3, [r2, #2856]
	ldrb	ip, [r3, #712]	@ zero_extendqisi2
	cmp	ip, #3
	cmpne	ip, r1
	streqb	r1, [r3, #714]
	ldreq	r3, [r2, #2856]
	streqb	r1, [r3, #713]
	ldreq	r3, [r2, #2856]
	ldrb	ip, [r3, #3]	@ zero_extendqisi2
	cmp	ip, #0
	ldmnefd	sp, {r4, r5, r6, r7, r8, fp, sp, pc}
	ldr	r1, [r3, #48]
	mov	r2, ip
	add	r1, r0, r1, lsl #2
	str	ip, [r1, #148]
	ldrsb	r1, [r3, #6]
	b	.L266
.L240:
	add	r1, r0, #11075584
	add	r1, r1, #45056
	ldr	r4, [r1, #2932]
	cmp	r4, #0
	beq	.L272
	movw	ip, #47908
	add	r5, r0, #11141120
	movt	ip, 169
	add	r5, r5, #16384
	add	ip, r0, ip
	b	.L251
.L250:
	cmp	r3, r4
	beq	.L273
.L251:
	ldr	r1, [ip, #4]!
	add	r3, r3, #1
	ldr	lr, [r1, #720]
	cmp	lr, r2
	bne	.L250
	ldrb	lr, [r1, #3]	@ zero_extendqisi2
	cmp	lr, #3
	bne	.L250
	ldr	lr, [r1, #712]
	bic	lr, lr, #-16777216
	bic	lr, lr, #255
	cmp	lr, #256
	bne	.L250
	ldr	r6, [r1, #56]
	ldr	lr, [r5, #120]
	cmp	r6, lr
	bne	.L250
	sub	sp, fp, #32
	ldmfd	sp, {r4, r5, r6, r7, r8, fp, sp, lr}
	b	MVC_UnMarkFrameStoreRef
.L270:
	ldr	lr, [r1, #56]
	ldr	r3, [r7, #120]
	cmp	lr, r3
	bne	.L247
	ldr	r3, [r1, #792]
	cmp	r2, r3
	bne	.L247
	add	r3, r0, ip, lsl #2
	strb	r6, [r1, #3]
	add	r3, r3, #11075584
	mov	r2, #0
	add	r3, r3, #45056
	ldr	r1, [r3, #2856]
	strb	r2, [r1, #785]
	ldr	r1, [r3, #2856]
	ldrb	ip, [r1, #712]	@ zero_extendqisi2
	cmp	ip, #3
	cmpne	ip, r2
	streqb	r2, [r1, #714]
	ldreq	r1, [r3, #2856]
	streqb	r2, [r1, #713]
	ldreq	r1, [r3, #2856]
	ldrb	ip, [r1, #3]	@ zero_extendqisi2
	cmp	ip, #0
	ldmnefd	sp, {r4, r5, r6, r7, r8, fp, sp, pc}
	ldr	r3, [r1, #48]
	mov	r2, ip
	add	r3, r0, r3, lsl #2
	str	ip, [r3, #148]
	ldrsb	r1, [r1, #6]
.L266:
	ldr	r0, [r0, #120]
	sub	sp, fp, #32
	ldmfd	sp, {r4, r5, r6, r7, r8, fp, sp, lr}
	b	FSP_SetRef
.L273:
	ldmfd	sp, {r4, r5, r6, r7, r8, fp, sp, pc}
.L271:
	ldmfd	sp, {r4, r5, r6, r7, r8, fp, sp, pc}
.L272:
	ldmfd	sp, {r4, r5, r6, r7, r8, fp, sp, pc}
.L269:
	ldmfd	sp, {r4, r5, r6, r7, r8, fp, sp, pc}
	UNWIND(.fnend)
	.size	MVC_UnMarkLTRef, .-MVC_UnMarkLTRef
	.align	2
	.global	MVC_MarkPicLTRef
	.type	MVC_MarkPicLTRef, %function
MVC_MarkPicLTRef:
	UNWIND(.fnstart)
	@ args = 0, pretend = 0, frame = 0
	@ frame_needed = 1, uses_anonymous_args = 0
	UNWIND(.movsp ip)
	mov	ip, sp
	stmfd	sp!, {r4, r5, r6, r7, r8, r9, fp, ip, lr, pc}
	UNWIND(.pad #4)
	UNWIND(.save {r4, r5, r6, r7, r8, r9, fp, ip, lr})
	UNWIND(.setfp fp, ip, #-4)
	sub	fp, ip, #4
	ldrb	r6, [r3, #3]	@ zero_extendqisi2
	add	r3, r0, #11075584
	add	r3, r3, #45056
	cmp	r6, #0
	beq	.L275
	ldr	r7, [r3, #2928]
	cmp	r7, #0
	beq	.L304
	movw	r5, #47844
	add	r8, r0, #11141120
	movt	r5, 169
	add	r8, r8, #16384
	add	r5, r0, r5
	mov	ip, #0
	b	.L289
.L281:
	tst	r4, #2
	beq	.L284
	ldr	lr, [r3, #784]
	bic	lr, lr, #-16777216
	bic	lr, lr, #255
	cmp	lr, #65536
	beq	.L305
.L284:
	add	ip, ip, #1
	cmp	ip, r7
	beq	.L306
.L289:
	ldr	r3, [r5, #4]!
	ldrb	r4, [r3, #3]	@ zero_extendqisi2
	tst	r4, #1
	beq	.L281
	ldr	lr, [r3, #748]
	bic	lr, lr, #-16777216
	bic	lr, lr, #255
	cmp	lr, #65536
	bne	.L281
	ldr	lr, [r3, #760]
	cmp	lr, r2
	bne	.L281
	ldr	r9, [r3, #56]
	ldr	lr, [r8, #120]
	cmp	r9, lr
	bne	.L281
	ldrb	lr, [r3, #785]	@ zero_extendqisi2
	cmp	lr, #1
	bne	.L285
	ldr	lr, [r3, #28]
	cmp	lr, r1
	bne	.L284
.L285:
	add	r0, r0, ip, lsl #2
	str	r1, [r3, #28]
	add	r3, r0, #11075584
	sub	r6, r6, #1
	add	r3, r3, #45056
	clz	r6, r6
	mov	ip, #1
	mov	r0, #0
	ldr	r2, [r3, #2792]
	mov	r6, r6, lsr #5
	add	r1, r6, r1, lsl #1
	str	r1, [r2, #756]
	ldr	r2, [r3, #2792]
	strb	ip, [r2, #749]
	ldr	r2, [r3, #2792]
	strb	r0, [r2, #750]
	ldr	r2, [r3, #2792]
	ldrb	r1, [r2, #712]	@ zero_extendqisi2
	cmp	r1, #3
	cmpne	r1, r0
	bne	.L307
	ldrb	r1, [r2, #785]	@ zero_extendqisi2
	ldrb	r0, [r2, #749]	@ zero_extendqisi2
	cmp	r1, r0
	streqb	r1, [r2, #713]
	ldreq	r3, [r3, #2792]
	ldreqb	r2, [r3, #750]	@ zero_extendqisi2
	streqb	r2, [r3, #714]
	ldmfd	sp, {r4, r5, r6, r7, r8, r9, fp, sp, pc}
.L275:
	ldr	r4, [r3, #2928]
	cmp	r4, #0
	ldmeqfd	sp, {r4, r5, r6, r7, r8, r9, fp, sp, pc}
	movw	ip, #47844
	add	r5, r0, #11141120
	movt	ip, 169
	add	r5, r5, #16384
	add	ip, r0, ip
	b	.L280
.L279:
	add	r6, r6, #1
	cmp	r6, r4
	beq	.L308
.L280:
	ldr	r3, [ip, #4]!
	ldrb	lr, [r3, #3]	@ zero_extendqisi2
	cmp	lr, #3
	bne	.L279
	ldr	lr, [r3, #712]
	bic	lr, lr, #-16777216
	bic	lr, lr, #255
	cmp	lr, #65536
	bne	.L279
	ldr	lr, [r3, #724]
	cmp	lr, r2
	bne	.L279
	ldr	r7, [r3, #56]
	ldr	lr, [r5, #120]
	cmp	r7, lr
	bne	.L279
	add	r6, r0, r6, lsl #2
	str	r1, [r3, #28]
	add	r3, r6, #11075584
	mov	r0, #1
	add	r3, r3, #45056
	mov	r2, #0
	ldr	ip, [r3, #2792]
	str	r1, [ip, #720]
	ldr	r1, [r3, #2792]
	strb	r0, [r1, #713]
	ldr	r1, [r3, #2792]
	strb	r0, [r1, #749]
	ldr	r1, [r3, #2792]
	strb	r0, [r1, #785]
	ldr	r1, [r3, #2792]
	strb	r2, [r1, #714]
	ldr	r1, [r3, #2792]
	strb	r2, [r1, #750]
	ldr	r3, [r3, #2792]
	strb	r2, [r3, #786]
	ldmfd	sp, {r4, r5, r6, r7, r8, r9, fp, sp, pc}
.L305:
	ldr	lr, [r3, #796]
	cmp	lr, r2
	bne	.L284
	ldr	r4, [r3, #56]
	ldr	lr, [r8, #120]
	cmp	r4, lr
	bne	.L284
	ldrb	lr, [r3, #749]	@ zero_extendqisi2
	cmp	lr, #1
	bne	.L288
	ldr	lr, [r3, #28]
	cmp	lr, r1
	bne	.L284
.L288:
	add	r0, r0, ip, lsl #2
	str	r1, [r3, #28]
	add	r3, r0, #11075584
	sub	r6, r6, #2
	add	r3, r3, #45056
	clz	r6, r6
	mov	ip, #1
	mov	r0, #0
	ldr	r2, [r3, #2792]
	mov	r6, r6, lsr #5
	add	r1, r6, r1, lsl #1
	str	r1, [r2, #792]
	ldr	r2, [r3, #2792]
	strb	ip, [r2, #785]
	ldr	r2, [r3, #2792]
	strb	r0, [r2, #786]
	ldr	r2, [r3, #2792]
	ldrb	r1, [r2, #712]	@ zero_extendqisi2
	cmp	r1, #3
	cmpne	r1, r0
	bne	.L309
	ldrb	r1, [r2, #785]	@ zero_extendqisi2
	ldrb	r0, [r2, #749]	@ zero_extendqisi2
	cmp	r1, r0
	streqb	r1, [r2, #713]
	ldreq	r3, [r3, #2792]
	ldreqb	r2, [r3, #786]	@ zero_extendqisi2
	streqb	r2, [r3, #714]
	ldmfd	sp, {r4, r5, r6, r7, r8, r9, fp, sp, pc}
.L306:
	ldmfd	sp, {r4, r5, r6, r7, r8, r9, fp, sp, pc}
.L308:
	ldmfd	sp, {r4, r5, r6, r7, r8, r9, fp, sp, pc}
.L307:
	ldmfd	sp, {r4, r5, r6, r7, r8, r9, fp, sp, pc}
.L309:
	ldmfd	sp, {r4, r5, r6, r7, r8, r9, fp, sp, pc}
.L304:
	ldmfd	sp, {r4, r5, r6, r7, r8, r9, fp, sp, pc}
	UNWIND(.fnend)
	.size	MVC_MarkPicLTRef, .-MVC_MarkPicLTRef
	.align	2
	.global	MVC_MarkSTToLTRef
	.type	MVC_MarkSTToLTRef, %function
MVC_MarkSTToLTRef:
	UNWIND(.fnstart)
	@ args = 0, pretend = 0, frame = 0
	@ frame_needed = 1, uses_anonymous_args = 0
	UNWIND(.movsp ip)
	mov	ip, sp
	stmfd	sp!, {r4, r5, r6, r7, r8, r9, fp, ip, lr, pc}
	UNWIND(.pad #4)
	UNWIND(.save {r4, r5, r6, r7, r8, r9, fp, ip, lr})
	UNWIND(.setfp fp, ip, #-4)
	sub	fp, ip, #4
	mov	r5, r1
	ldrb	r1, [r1, #3]	@ zero_extendqisi2
	mov	r7, r3
	mov	r6, r0
	cmp	r1, #0
	bne	.L311
	ldr	r4, [r5, #664]
	mov	r1, r3
	sub	r4, r4, #1
	rsb	r4, r2, r4
	bl	MVC_UnMarkLTFrmByFrmIdx
.L312:
	mov	r3, r5
	mov	r2, r4
	mov	r1, r7
	mov	r0, r6
	sub	sp, fp, #36
	ldmfd	sp, {r4, r5, r6, r7, r8, r9, fp, sp, lr}
	b	MVC_MarkPicLTRef
.L311:
	add	r3, r0, #11075584
	ldr	r4, [r5, #664]
	add	r3, r3, #45056
	ldr	lr, [r3, #2928]
	rsb	r4, r2, r4, lsl #1
	cmp	lr, #0
	beq	.L312
	movw	ip, #47844
	add	r8, r0, #11141120
	movt	ip, 169
	add	r8, r8, #16384
	add	ip, r0, ip
	mov	r3, #0
	b	.L315
.L313:
	tst	r2, #2
	beq	.L314
	ldr	r2, [r1, #784]
	bic	r2, r2, #-16777216
	bic	r2, r2, #255
	cmp	r2, #65536
	beq	.L326
.L314:
	cmp	r3, lr
	beq	.L312
.L315:
	ldr	r1, [ip, #4]!
	add	r3, r3, #1
	ldrb	r2, [r1, #3]	@ zero_extendqisi2
	tst	r2, #1
	beq	.L313
	ldr	r0, [r1, #748]
	bic	r0, r0, #-16777216
	bic	r0, r0, #255
	cmp	r0, #65536
	bne	.L313
	ldr	r0, [r1, #760]
	cmp	r0, r4
	bne	.L313
	ldr	r9, [r1, #56]
	ldr	r0, [r8, #120]
	cmp	r9, r0
	bne	.L313
	mov	r3, r7
	mov	r2, #1
	mov	r0, r6
	bl	MVC_UnMarkLTFldByFrmIdx
	b	.L312
.L326:
	ldr	r2, [r1, #796]
	cmp	r2, r4
	bne	.L314
	ldr	r0, [r1, #56]
	ldr	r2, [r8, #120]
	cmp	r0, r2
	bne	.L314
	mov	r3, r7
	mov	r2, #2
	mov	r0, r6
	bl	MVC_UnMarkLTFldByFrmIdx
	b	.L312
	UNWIND(.fnend)
	.size	MVC_MarkSTToLTRef, .-MVC_MarkSTToLTRef
	.align	2
	.global	MVC_UpdateMaxLTFrmIdx
	.type	MVC_UpdateMaxLTFrmIdx, %function
MVC_UpdateMaxLTFrmIdx:
	UNWIND(.fnstart)
	@ args = 0, pretend = 0, frame = 0
	@ frame_needed = 1, uses_anonymous_args = 0
	UNWIND(.movsp ip)
	mov	ip, sp
	stmfd	sp!, {r4, r5, r6, r7, r8, r9, fp, ip, lr, pc}
	UNWIND(.pad #4)
	UNWIND(.save {r4, r5, r6, r7, r8, r9, fp, ip, lr})
	UNWIND(.setfp fp, ip, #-4)
	sub	fp, ip, #4
	add	r5, r0, #11075584
	mov	r8, r0
	add	r5, r5, #45056
	ldr	r3, [r5, #2932]
	str	r1, [r5, #2936]
	cmp	r3, #0
	ldmeqfd	sp, {r4, r5, r6, r7, r8, r9, fp, sp, pc}
	movw	r6, #47908
	add	r7, r0, #11141120
	movt	r6, 169
	add	r7, r7, #16384
	add	r6, r0, r6
	mov	r3, r1
	mov	r4, #0
	b	.L331
.L329:
	ldr	r3, [r5, #2932]
	cmp	r3, r4
	ldmlsfd	sp, {r4, r5, r6, r7, r8, r9, fp, sp, pc}
	ldr	r3, [r5, #2936]
.L331:
	ldr	r1, [r6, #4]!
	add	r4, r4, #1
	ldr	r2, [r1, #28]
	cmp	r2, r3
	bcc	.L329
	ldr	r2, [r1, #56]
	ldr	r3, [r7, #120]
	cmp	r2, r3
	bne	.L329
	mov	r0, r8
	bl	MVC_UnMarkFrameStoreRef
	b	.L329
	UNWIND(.fnend)
	.size	MVC_UpdateMaxLTFrmIdx, .-MVC_UpdateMaxLTFrmIdx
	.align	2
	.global	MVC_UnMarkAllSTRef
	.type	MVC_UnMarkAllSTRef, %function
MVC_UnMarkAllSTRef:
	UNWIND(.fnstart)
	@ args = 0, pretend = 0, frame = 0
	@ frame_needed = 1, uses_anonymous_args = 0
	UNWIND(.movsp ip)
	mov	ip, sp
	stmfd	sp!, {r4, r5, r6, r7, r8, r9, fp, ip, lr, pc}
	UNWIND(.pad #4)
	UNWIND(.save {r4, r5, r6, r7, r8, r9, fp, ip, lr})
	UNWIND(.setfp fp, ip, #-4)
	sub	fp, ip, #4
	add	r6, r0, #11075584
	mov	r8, r0
	add	r6, r6, #45056
	ldr	r3, [r6, #2928]
	cmp	r3, #0
	ldmeqfd	sp, {r4, r5, r6, r7, r8, r9, fp, sp, pc}
	movw	r5, #47844
	add	r7, r0, #11141120
	movt	r5, 169
	add	r7, r7, #16384
	add	r5, r0, r5
	mov	r4, #0
	b	.L335
.L334:
	ldr	r3, [r6, #2928]
	cmp	r3, r4
	bls	.L338
.L335:
	ldr	r1, [r5, #4]!
	add	r4, r4, #1
	ldr	r3, [r7, #120]
	ldr	r2, [r1, #56]
	cmp	r2, r3
	bne	.L334
	mov	r0, r8
	bl	MVC_UnMarkFrameStoreRef
	ldr	r3, [r6, #2928]
	cmp	r3, r4
	bhi	.L335
.L338:
	ldmfd	sp, {r4, r5, r6, r7, r8, r9, fp, sp, pc}
	UNWIND(.fnend)
	.size	MVC_UnMarkAllSTRef, .-MVC_UnMarkAllSTRef
	.align	2
	.global	MVC_MarkCurrPicLT
	.type	MVC_MarkCurrPicLT, %function
MVC_MarkCurrPicLT:
	UNWIND(.fnstart)
	@ args = 0, pretend = 0, frame = 0
	@ frame_needed = 1, uses_anonymous_args = 0
	UNWIND(.movsp ip)
	mov	ip, sp
	stmfd	sp!, {r4, r5, fp, ip, lr, pc}
	UNWIND(.pad #4)
	UNWIND(.save {r4, r5, fp, ip, lr})
	UNWIND(.setfp fp, ip, #-4)
	sub	fp, ip, #4
	mov	r5, r2
	ldrb	r2, [r1, #3]	@ zero_extendqisi2
	mov	r4, r1
	cmp	r2, #0
	beq	.L342
	mov	r3, r5
	ldr	r1, [r1, #656]
	bl	MVC_UnMarkLTFldByFrmIdx
.L341:
	mov	r2, #1
	mov	r3, #0
	str	r5, [r4, #668]
	strb	r2, [r4, #4]
	strb	r3, [r4, #5]
	ldmfd	sp, {r4, r5, fp, sp, pc}
.L342:
	mov	r1, r5
	bl	MVC_UnMarkLTFrmByFrmIdx
	b	.L341
	UNWIND(.fnend)
	.size	MVC_MarkCurrPicLT, .-MVC_MarkCurrPicLT
	.align	2
	.global	MVC_RemoveFrameStoreOutDPB
	.type	MVC_RemoveFrameStoreOutDPB, %function
MVC_RemoveFrameStoreOutDPB:
	UNWIND(.fnstart)
	@ args = 0, pretend = 0, frame = 0
	@ frame_needed = 1, uses_anonymous_args = 0
	UNWIND(.movsp ip)
	mov	ip, sp
	stmfd	sp!, {r4, r5, r6, r7, fp, ip, lr, pc}
	UNWIND(.pad #4)
	UNWIND(.save {r4, r5, r6, r7, fp, ip, lr})
	UNWIND(.setfp fp, ip, #-4)
	sub	fp, ip, #4
	add	r1, r0, r1, lsl #2
	mov	r5, r0
	add	r4, r1, #11075584
	add	r7, r4, #45056
	ldr	r2, [r7, #2728]
	cmp	r2, #0
	ldmeqfd	sp, {r4, r5, r6, r7, fp, sp, pc}
	ldr	r1, [r2, #52]
	movw	r3, #47992
	add	r6, r0, #11075584
	movt	r3, 169
	add	r1, r0, r1
	add	r0, r6, #45056
	add	r3, r1, r3
	mov	r1, #0
	strb	r1, [r3, #4]
	ldr	r3, [r0, #3152]
	cmp	r3, r1
	subne	r3, r3, #1
	str	r3, [r0, #3152]
	ldrsb	r1, [r2, #6]
	ldr	r0, [r5, #120]
	bl	FSP_GetLogicFs
	cmp	r0, #0
	beq	.L346
	ldrsb	r3, [r0, #1]
	cmp	r3, #3
	beq	.L347
	ldr	r3, [r7, #2728]
	mov	r2, #0
	ldr	r0, [r5, #120]
	ldrsb	r1, [r3, #6]
	bl	FSP_SetDisplay
.L347:
	ldr	r3, [r7, #2728]
	mov	r2, #0
	ldr	r0, [r5, #120]
	ldrsb	r1, [r3, #6]
	bl	FSP_SetRef
.L346:
	add	r1, r4, #45056
	mov	r3, #0
	add	r6, r6, #45056
	ldr	r2, [r1, #2728]
	strb	r3, [r2, #2]
	ldr	r2, [r1, #2728]
	strb	r3, [r2, #5]
	ldr	r2, [r1, #2728]
	strb	r3, [r2, #3]
	str	r3, [r1, #2728]
	ldr	r3, [r6, #2924]
	sub	r3, r3, #1
	str	r3, [r6, #2924]
	ldmfd	sp, {r4, r5, r6, r7, fp, sp, pc}
	UNWIND(.fnend)
	.size	MVC_RemoveFrameStoreOutDPB, .-MVC_RemoveFrameStoreOutDPB
	.align	2
	.global	MVC_RemoveUnUsedFrameStore
	.type	MVC_RemoveUnUsedFrameStore, %function
MVC_RemoveUnUsedFrameStore:
	UNWIND(.fnstart)
	@ args = 0, pretend = 0, frame = 0
	@ frame_needed = 1, uses_anonymous_args = 0
	UNWIND(.movsp ip)
	mov	ip, sp
	stmfd	sp!, {r4, r5, r6, r7, r8, r9, fp, ip, lr, pc}
	UNWIND(.pad #4)
	UNWIND(.save {r4, r5, r6, r7, r8, r9, fp, ip, lr})
	UNWIND(.setfp fp, ip, #-4)
	sub	fp, ip, #4
	add	r3, r0, #11075584
	mov	r8, r0
	add	r3, r3, #45056
	mov	r7, r1
	ldr	r6, [r3, #2920]
	cmp	r6, #0
	beq	.L375
	movw	r5, #47780
	mov	r4, #0
	movt	r5, 169
	add	r5, r0, r5
.L363:
	ldr	r3, [r5, #4]!
	cmp	r3, #0
	beq	.L362
	ldrb	r2, [r3, #3]	@ zero_extendqisi2
	cmp	r2, #0
	bne	.L362
	ldrb	r2, [r3, #5]	@ zero_extendqisi2
	cmp	r2, #0
	bne	.L362
	ldr	r1, [r3, #56]
	cmn	r7, #1
	cmpne	r1, r7
	beq	.L376
.L362:
	add	r4, r4, #1
	cmp	r4, r6
	bne	.L363
.L375:
	mov	r0, #0
	ldmfd	sp, {r4, r5, r6, r7, r8, r9, fp, sp, pc}
.L376:
	ldr	ip, [r3, #16]
	mov	r1, r4
	mov	r0, r8
	cmp	ip, #1
	beq	.L362
	strb	r2, [r3, #2]
	bl	MVC_RemoveFrameStoreOutDPB
	b	.L362
	UNWIND(.fnend)
	.size	MVC_RemoveUnUsedFrameStore, .-MVC_RemoveUnUsedFrameStore
	.align	2
	.global	MVC_CheckFrameStore
	.type	MVC_CheckFrameStore, %function
MVC_CheckFrameStore:
	UNWIND(.fnstart)
	@ args = 0, pretend = 0, frame = 0
	@ frame_needed = 1, uses_anonymous_args = 0
	UNWIND(.movsp ip)
	mov	ip, sp
	stmfd	sp!, {r4, r5, fp, ip, lr, pc}
	UNWIND(.pad #4)
	UNWIND(.save {r4, r5, fp, ip, lr})
	UNWIND(.setfp fp, ip, #-4)
	sub	fp, ip, #4
	UNWIND(.pad #8)
	sub	sp, sp, #8
	ldrb	r3, [r0, #6]	@ zero_extendqisi2
	mov	r5, r0
	mov	r4, r1
	cmp	r3, #0
	bne	.L378
	ldrsb	r3, [r1, #8]
	cmp	r3, #1
	bne	.L390
	strb	r3, [r0, #6]
.L378:
	ldrsb	r1, [r4, #6]
	ldr	r0, [r5, #120]
	bl	FSP_GetLogicFs
	cmp	r0, #0
	beq	.L380
	ldrsb	r3, [r0, #1]
	cmp	r3, #3
	cmpne	r3, #0
	beq	.L400
	ldrb	r2, [r4, #2]	@ zero_extendqisi2
	ldrb	r3, [r4, #1]	@ zero_extendqisi2
	cmp	r2, #0
	beq	.L389
	cmp	r3, #1
	beq	.L389
	cmp	r2, #3
	beq	.L401
	cmp	r2, #1
	beq	.L402
	cmp	r2, #2
	beq	.L403
.L385:
	ldr	r3, [r5, #224]
	ldr	r2, [r0, #192]
	ldr	r3, [r3, #4]
	cmp	r2, r3
	movls	r0, #0
	bhi	.L404
.L398:
	sub	sp, fp, #20
	ldmfd	sp, {r4, r5, fp, sp, pc}
.L400:
	ldrsb	r2, [r4, #6]
	mov	r0, #1
	ldr	r1, .L405
	bl	dprint_vfmw
.L382:
	ldr	r3, [r4, #16]
	cmp	r3, #1
	mvnne	r0, #2
	moveq	r3, #2
	mvneq	r0, #2
	streq	r3, [r4, #16]
	b	.L398
.L401:
	ldrb	r3, [r4, #4]	@ zero_extendqisi2
	cmp	r3, #3
	bne	.L385
	mov	r2, r3
	ldr	r1, .L405+4
	mov	r0, #1
	bl	dprint_vfmw
	mvn	r0, #0
	b	.L398
.L402:
	ldrb	r3, [r4, #4]	@ zero_extendqisi2
	tst	r3, #1
	beq	.L385
	mov	r0, r2
	ldr	r1, .L405+8
	bl	dprint_vfmw
	mvn	r0, #0
	b	.L398
.L403:
	ldrb	r3, [r4, #4]	@ zero_extendqisi2
	tst	r3, #2
	beq	.L385
	ldr	r1, .L405+12
	mov	r0, #1
	bl	dprint_vfmw
	mvn	r0, #0
	b	.L398
.L390:
	mvn	r0, #0
	b	.L398
.L380:
	ldrsb	ip, [r4, #6]
	mov	r2, r4
	ldr	r3, [r4, #16]
	mov	r0, #1
	ldr	r1, .L405+16
	str	ip, [sp]
	bl	dprint_vfmw
	b	.L382
.L389:
	ldr	r1, .L405+20
	mov	r0, #1
	bl	dprint_vfmw
	mvn	r0, #0
	b	.L398
.L404:
	ldr	r1, .L405+24
	mov	r0, #1
	bl	dprint_vfmw
	mvn	r0, #0
	b	.L398
.L406:
	.align	2
.L405:
	.word	.LC4
	.word	.LC7
	.word	.LC8
	.word	.LC9
	.word	.LC5
	.word	.LC6
	.word	.LC10
	UNWIND(.fnend)
	.size	MVC_CheckFrameStore, .-MVC_CheckFrameStore
	.align	2
	.global	MVC_ExchangePts
	.type	MVC_ExchangePts, %function
MVC_ExchangePts:
	UNWIND(.fnstart)
	@ args = 0, pretend = 0, frame = 8
	@ frame_needed = 1, uses_anonymous_args = 0
	UNWIND(.movsp ip)
	mov	ip, sp
	stmfd	sp!, {r4, r5, r6, r7, r8, r9, r10, fp, ip, lr, pc}
	UNWIND(.pad #4)
	UNWIND(.save {r4, r5, r6, r7, r8, r9, r10, fp, ip, lr})
	UNWIND(.setfp fp, ip, #-4)
	sub	fp, ip, #4
	UNWIND(.pad #20)
	sub	sp, sp, #20
	add	r8, r1, #656
	mvn	r7, #0
	mvn	r6, #0
	ldrd	r2, [r8]
	mov	r5, r0
	cmp	r3, r7
	cmpeq	r2, r6
	beq	.L407
	add	r9, r0, #11075584
	add	r9, r9, #45056
	ldr	r3, [r9, #2920]
	cmp	r3, #0
	beq	.L407
	movw	r10, #47780
	mvn	r6, #1
	movt	r10, 169
	add	r10, r0, r10
	mvn	r7, #0
	mov	r4, #0
	mvn	r3, #0
	str	r3, [fp, #-48]
.L412:
	ldr	r3, [r10, #4]!
	cmp	r3, #0
	beq	.L411
	ldrsb	r1, [r3, #6]
	ldr	r0, [r5, #120]
	bl	FSP_GetLogicFs
	cmp	r0, #0
	beq	.L411
	ldrsb	r3, [r0, #1]
	cmp	r3, #3
	cmpne	r3, #0
	beq	.L411
	ldr	r3, [r10]
	add	r3, r3, #656
	ldrd	r0, [r3]
	cmp	r1, r7
	cmpeq	r0, r6
	strcc	r4, [fp, #-48]
	movcc	r6, r0
	movcc	r7, r1
.L411:
	ldr	r3, [r9, #2920]
	add	r4, r4, #1
	cmp	r4, r3
	bcc	.L412
	ldr	r3, [fp, #-48]
	cmn	r3, #1
	beq	.L407
	ldrd	r2, [r8]
	cmp	r3, r7
	cmpeq	r2, r6
	bhi	.L426
.L407:
	sub	sp, fp, #40
	ldmfd	sp, {r4, r5, r6, r7, r8, r9, r10, fp, sp, pc}
.L426:
	strd	r6, [sp]
	mov	r0, #29
	ldr	r1, .L427
	bl	dprint_vfmw
	ldr	r3, [fp, #-48]
	movw	r1, #28330
	movt	r1, 42
	add	r1, r3, r1
	ldrd	r2, [r8]
	ldr	r1, [r5, r1, asl #2]
	add	r1, r1, #656
	strd	r2, [r1]
	strd	r6, [r8]
	sub	sp, fp, #40
	ldmfd	sp, {r4, r5, r6, r7, r8, r9, r10, fp, sp, pc}
.L428:
	.align	2
.L427:
	.word	.LC11
	UNWIND(.fnend)
	.size	MVC_ExchangePts, .-MVC_ExchangePts
	.align	2
	.global	MVC_GetImagePara
	.type	MVC_GetImagePara, %function
MVC_GetImagePara:
	UNWIND(.fnstart)
	@ args = 0, pretend = 0, frame = 0
	@ frame_needed = 1, uses_anonymous_args = 0
	UNWIND(.movsp ip)
	mov	ip, sp
	stmfd	sp!, {r3, r4, r5, r6, r7, r8, r9, r10, fp, ip, lr, pc}
	UNWIND(.pad #4)
	UNWIND(.save {r3, r4, r5, r6, r7, r8, r9, r10, fp, ip, lr})
	UNWIND(.setfp fp, ip, #-4)
	sub	fp, ip, #4
	add	r3, r0, #11075584
	mov	r4, r1
	add	ip, r3, #40960
	ldr	r2, [r0, #252]
	mov	r5, r0
	mov	r0, #2240
	ldr	r1, [ip, #1080]
	movw	r8, #3992
	ldrb	r9, [r4, #15]	@ zero_extendqisi2
	ldrb	r6, [r4, #137]	@ zero_extendqisi2
	mla	r1, r0, r1, r2
	ldrb	lr, [r4, #136]	@ zero_extendqisi2
	ldrb	r0, [r4, #138]	@ zero_extendqisi2
	bfc	r6, #0, #2
	ldr	r7, [r5, #248]
	bfc	lr, #0, #2
	ldr	r2, [r1, #28]
	ldrb	r1, [r4, #14]	@ zero_extendqisi2
	strb	r6, [r4, #137]
	bfi	r0, r1, #1, #1
	strb	lr, [r4, #136]
	strb	r0, [r4, #138]
	str	r9, [r4, #192]
	ldr	r1, [r5, #56]
	ldrb	r0, [r4, #2]	@ zero_extendqisi2
	mla	r2, r8, r2, r7
	str	r1, [r4, #180]
	cmp	r0, #3
	ldrls	pc, [pc, r0, asl #2]
	b	.L468
.L432:
	.word	.L431
	.word	.L433
	.word	.L434
	.word	.L431
.L434:
	ldrb	r1, [r4, #137]	@ zero_extendqisi2
	add	r3, r5, #11075584
	ldr	r6, [r4, #44]
	add	r3, r3, #45056
	and	r1, r1, #240
	ldrb	lr, [r4, #136]	@ zero_extendqisi2
	orr	r1, r1, #11
	strb	r1, [r4, #137]
	ldrb	r1, [r4]	@ zero_extendqisi2
	str	r6, [r4, #224]
	bfi	lr, r1, #0, #2
	strb	lr, [r4, #136]
.L430:
	ldrb	r1, [r2, #20]	@ zero_extendqisi2
	str	r1, [r4, #468]
	str	r1, [r4, #472]
	ldrb	r1, [r2, #24]	@ zero_extendqisi2
	cmp	r1, #0
	ldrne	r1, [r2, #68]
	mov	r2, #1
	str	r2, [r4, #476]
	str	r1, [r4, #480]
	ldrb	r2, [ip, #1075]	@ zero_extendqisi2
	cmp	r2, #1
	movne	r2, #0
	str	r2, [r4, #264]
	ldr	r2, [r5, #224]
	ldr	r2, [r2, #24]
	cmp	r2, #0
	beq	.L452
	ldrb	r2, [r4, #712]	@ zero_extendqisi2
	cmp	r2, #0
	bne	.L452
	cmp	r0, #3
	ldreqb	r1, [r4, #137]	@ zero_extendqisi2
	bfieq	r1, r2, #0, #2
	streqb	r1, [r4, #137]
.L452:
	ldrb	r2, [r3, #2680]	@ zero_extendqisi2
	cmp	r2, #0
	beq	.L453
	ldr	r2, [r3, #2696]
	cmp	r2, #3
	moveq	r3, #1
	streq	r3, [r4, #348]
	beq	.L453
	cmp	r2, #4
	moveq	r3, #2
	streq	r3, [r4, #348]
	beq	.L453
	cmp	r2, #5
	moveq	r3, #3
	streq	r3, [r4, #348]
	beq	.L453
	mov	r0, #0
	ldr	r1, .L482
	str	r0, [r4, #348]
	ldr	r2, [r3, #2696]
	bl	dprint_vfmw
.L453:
	ldr	r0, [r5, #120]
	ldrsb	r1, [r4, #6]
	bl	FSP_GetFsImagePtr
	subs	r5, r0, #0
	ldmeqfd	sp, {r3, r4, r5, r6, r7, r8, r9, r10, fp, sp, pc}
	ldr	r3, .L482+4
	mov	r2, #640
	add	r1, r4, #72
	ldr	r3, [r3, #52]
	blx	r3
	mov	r3, #15
	str	r3, [r5, #296]
	mov	r2, #1
	ldrb	r3, [r4, #712]	@ zero_extendqisi2
	strb	r2, [r5, #291]
	cmp	r3, #0
	movne	r3, #4
	strb	r3, [r5, #284]
	ldr	r3, [r4, #740]
	strb	r2, [r5, #289]
	str	r3, [r5, #300]
	str	r3, [r5, #308]
	str	r3, [r5, #304]
	ldmfd	sp, {r3, r4, r5, r6, r7, r8, r9, r10, fp, sp, pc}
.L433:
	ldrb	r1, [r4, #137]	@ zero_extendqisi2
	add	r3, r5, #11075584
	ldr	r6, [r4, #44]
	add	r3, r3, #45056
	ldrb	lr, [r4, #136]	@ zero_extendqisi2
	orr	r1, r1, #3
	strb	r1, [r4, #137]
	ldrb	r1, [r4]	@ zero_extendqisi2
	str	r6, [r4, #224]
	bfi	lr, r1, #0, #2
	strb	lr, [r4, #136]
	b	.L430
.L431:
	ldrb	r1, [r4, #712]	@ zero_extendqisi2
	cmp	r1, #0
	bne	.L435
	ldr	lr, [r4, #40]
	ldr	r1, [r4, #44]
	cmp	lr, #0
	ldrb	r8, [r4]	@ zero_extendqisi2
	movne	r6, #3
	str	r1, [r4, #224]
	movne	r7, r6
	moveq	r6, #2
	moveq	r7, #3
.L436:
	ldr	lr, [r4, #764]
	ldr	r1, [r4, #800]
	cmp	lr, r1
	beq	.L480
	movle	lr, #1
	movgt	lr, #0
.L447:
	add	r3, r3, #45056
	ldrb	r1, [r3, #2716]	@ zero_extendqisi2
	cmp	r1, #3
	moveq	lr, #1
	beq	.L448
	cmp	r1, #4
	moveq	lr, #0
.L448:
	ldrb	r1, [r4, #137]	@ zero_extendqisi2
	ldrb	r9, [r4, #136]	@ zero_extendqisi2
	bfi	r1, lr, #4, #2
	bfi	r1, r7, #2, #2
	bfi	r9, r8, #0, #2
	bfi	r1, r6, #0, #2
	strb	r9, [r4, #136]
	strb	r1, [r4, #137]
	b	.L430
.L435:
	ldr	lr, [r4, #772]
	ldr	r1, [r5, #116]
	ldr	r10, [r4, #808]
	cmp	lr, r1
	bhi	.L481
	cmp	r1, r10
	bcc	.L440
.L438:
	ldr	r1, [r4, #44]
	mov	r7, #3
	ldrb	r8, [r4]	@ zero_extendqisi2
	ldrb	r6, [r4, #751]	@ zero_extendqisi2
	ldrb	r9, [r4, #787]	@ zero_extendqisi2
	str	r1, [r4, #224]
.L441:
	ldrb	r1, [r4, #4]	@ zero_extendqisi2
	cmp	r1, #1
	streq	r10, [r4, #224]
	moveq	r8, r9
	moveq	r7, #2
	beq	.L443
	cmp	r1, #2
	streq	lr, [r4, #224]
	moveq	r8, r6
	moveq	r7, #1
.L443:
	str	r6, [r4, #128]
	mov	r6, #3
	str	r9, [r4, #132]
	b	.L436
.L440:
	ldrb	r8, [r4, #751]	@ zero_extendqisi2
	mov	r7, #1
	ldrb	r9, [r4, #787]	@ zero_extendqisi2
	str	lr, [r4, #224]
	mov	r6, r8
	b	.L441
.L480:
	ldr	r1, [r4, #140]
	cmp	r1, #720
	movne	lr, #1
	bne	.L447
	ldr	lr, [r4, #144]
	subs	lr, lr, #480
	movne	lr, #1
	b	.L447
.L481:
	cmp	r1, r10
	bcc	.L438
	ldrb	r8, [r4, #787]	@ zero_extendqisi2
	mov	r7, #2
	str	r10, [r4, #224]
	ldrb	r6, [r4, #751]	@ zero_extendqisi2
	mov	r9, r8
	b	.L441
.L468:
	add	r3, r5, #11075584
	add	r3, r3, #45056
	b	.L430
.L483:
	.align	2
.L482:
	.word	.LC12
	.word	vfmw_Osal_Func_Ptr_S
	UNWIND(.fnend)
	.size	MVC_GetImagePara, .-MVC_GetImagePara
	.align	2
	.global	MVC_SetFrmRepeatCount
	.type	MVC_SetFrmRepeatCount, %function
MVC_SetFrmRepeatCount:
	UNWIND(.fnstart)
	@ args = 0, pretend = 0, frame = 0
	@ frame_needed = 1, uses_anonymous_args = 0
	UNWIND(.movsp ip)
	mov	ip, sp
	stmfd	sp!, {fp, ip, lr, pc}
	UNWIND(.pad #4)
	UNWIND(.save {fp, ip, lr})
	UNWIND(.setfp fp, ip, #-4)
	sub	fp, ip, #4
	ldr	r3, [r0, #224]
	ldr	r3, [r3, #620]
	add	r3, r3, #2032
	add	r3, r3, #15
	cmp	r3, #4096
	movcc	r3, #0
	strcc	r3, [r1, #16]
	ldmccfd	sp, {fp, sp, pc}
	sub	sp, fp, #12
	ldmia	sp, {fp, sp, lr}
	b	MVC_SetFrmRepeatCount.part.2
	UNWIND(.fnend)
	.size	MVC_SetFrmRepeatCount, .-MVC_SetFrmRepeatCount
	.align	2
	.global	MVC_SplitFrmToFlds
	.type	MVC_SplitFrmToFlds, %function
MVC_SplitFrmToFlds:
	UNWIND(.fnstart)
	@ args = 0, pretend = 0, frame = 0
	@ frame_needed = 1, uses_anonymous_args = 0
	UNWIND(.movsp ip)
	mov	ip, sp
	stmfd	sp!, {r4, r5, fp, ip, lr, pc}
	UNWIND(.pad #4)
	UNWIND(.save {r4, r5, fp, ip, lr})
	UNWIND(.setfp fp, ip, #-4)
	sub	fp, ip, #4
	ldrb	lr, [r0, #713]	@ zero_extendqisi2
	mov	r5, #1
	ldrb	ip, [r0, #714]	@ zero_extendqisi2
	mov	r4, #2
	ldr	r1, [r0, #736]
	ldrb	r2, [r0, #715]	@ zero_extendqisi2
	ldr	r3, [r0, #716]
	strb	r5, [r0, #748]
	strb	r4, [r0, #784]
	strb	lr, [r0, #749]
	strb	lr, [r0, #785]
	strb	ip, [r0, #750]
	strb	ip, [r0, #786]
	str	r1, [r0, #772]
	str	r1, [r0, #808]
	strb	r2, [r0, #751]
	strb	r2, [r0, #787]
	str	r3, [r0, #752]
	str	r3, [r0, #788]
	ldmfd	sp, {r4, r5, fp, sp, pc}
	UNWIND(.fnend)
	.size	MVC_SplitFrmToFlds, .-MVC_SplitFrmToFlds
	.align	2
	.global	MVC_CombineFldsToFrm
	.type	MVC_CombineFldsToFrm, %function
MVC_CombineFldsToFrm:
	UNWIND(.fnstart)
	@ args = 0, pretend = 0, frame = 0
	@ frame_needed = 1, uses_anonymous_args = 0
	UNWIND(.movsp ip)
	mov	ip, sp
	stmfd	sp!, {r4, r5, fp, ip, lr, pc}
	UNWIND(.pad #4)
	UNWIND(.save {r4, r5, fp, ip, lr})
	UNWIND(.setfp fp, ip, #-4)
	sub	fp, ip, #4
	ldr	r2, [r0, #800]
	mov	lr, #3
	ldr	r1, [r0, #764]
	ldr	r3, [r0, #808]
	cmp	r2, r1
	ldr	r5, [r0, #772]
	ldrb	r4, [r0, #785]	@ zero_extendqisi2
	ldr	ip, [r0, #752]
	movge	r2, r1
	add	r3, r3, r5
	cmp	r4, #0
	strb	lr, [r0, #712]
	mov	r3, r3, lsr #1
	str	ip, [r0, #716]
	str	r2, [r0, #728]
	str	r2, [r0, #32]
	str	r3, [r0, #736]
	beq	.L488
	ldrb	r2, [r0, #749]	@ zero_extendqisi2
	cmp	r2, #0
	bne	.L489
.L488:
	ldr	r2, [r0, #784]
	mov	r1, #0
	strb	r1, [r0, #713]
	bic	r2, r2, #-16777216
	bic	r2, r2, #255
	cmp	r2, r1
	beq	.L493
	ldr	r2, [r0, #748]
	bic	r2, r2, #-16777216
	bic	r2, r2, #255
	cmp	r2, #0
	movne	ip, #1
	bne	.L491
.L493:
	mov	ip, #0
.L491:
	ldrb	r2, [r0, #787]	@ zero_extendqisi2
	ldrb	r1, [r0, #751]	@ zero_extendqisi2
	str	r3, [r0, #44]
	cmp	r2, r1
	strb	ip, [r0, #714]
	movcs	r3, r2
	movcc	r3, r1
	strb	r3, [r0, #715]
	strb	r3, [r0]
	ldmfd	sp, {r4, r5, fp, sp, pc}
.L489:
	mov	r1, #1
	strb	r1, [r0, #713]
	b	.L493
	UNWIND(.fnend)
	.size	MVC_CombineFldsToFrm, .-MVC_CombineFldsToFrm
	.align	2
	.global	MVC_GetAPC
	.type	MVC_GetAPC, %function
MVC_GetAPC:
	UNWIND(.fnstart)
	@ args = 0, pretend = 0, frame = 0
	@ frame_needed = 1, uses_anonymous_args = 0
	UNWIND(.movsp ip)
	mov	ip, sp
	stmfd	sp!, {r4, r5, r6, r7, r8, r9, r10, fp, ip, lr, pc}
	UNWIND(.pad #4)
	UNWIND(.save {r4, r5, r6, r7, r8, r9, r10, fp, ip, lr})
	UNWIND(.setfp fp, ip, #-4)
	sub	fp, ip, #4
	UNWIND(.pad #12)
	sub	sp, sp, #12
	subs	r6, r1, #0
	mov	r5, r0
	beq	.L524
	cmp	r2, #1
	beq	.L505
	cmp	r2, #2
	beq	.L506
	ldr	r9, [r6, #764]
	ldr	r10, [r6, #800]
.L507:
	add	r8, r5, #11075584
	add	r7, r8, #45056
	ldr	r1, [r7, #3148]
	cmp	r1, #0
	beq	.L516
	ldrb	r4, [r7, #2940]	@ zero_extendqisi2
	cmp	r4, #0
	movwne	r3, #47996
	movne	r4, #0
	movtne	r3, 169
	addne	r3, r5, r3
	bne	.L510
	b	.L508
.L514:
	ldrb	r2, [r3, #1]!	@ zero_extendqisi2
	cmp	r2, #0
	beq	.L508
.L510:
	add	r4, r4, #1
	cmp	r4, r1
	bne	.L514
.L516:
	mvn	r0, #0
.L520:
	sub	sp, fp, #40
	ldmfd	sp, {r4, r5, r6, r7, r8, r9, r10, fp, sp, pc}
.L506:
	ldr	r9, [r6, #800]
	mov	r10, r9
	b	.L507
.L508:
	ldrsb	r1, [r6, #6]
	ldr	r0, [r5, #120]
	bl	FSP_GetLogicFs
	cmp	r0, #0
	beq	.L511
	ldr	r3, [r0, #28]
	cmp	r3, #0
	beq	.L511
	add	r2, r5, r4
	movw	r3, #47992
	movt	r3, 169
	add	r3, r2, r3
	mov	r2, #1
	add	r5, r5, r4, lsl #2
	strb	r2, [r3, #4]
	add	r5, r5, #11075584
	ldr	r3, [r0, #28]
	add	r5, r5, #45056
	add	r8, r8, #45056
	ldr	r1, .L525
	mov	r0, #13
	ldr	r3, [r3, #4]
	str	r9, [r5, #3020]
	str	r10, [r5, #3084]
	str	r3, [r5, #2956]
	ldr	r3, [r7, #3152]
	cmp	r3, #15
	addls	r2, r3, r2
	mov	r3, r4
	movhi	r2, #16
	str	r2, [r8, #3152]
	ldr	r2, [r6, #220]
	bl	dprint_vfmw
	mov	r0, #0
	str	r4, [r6, #52]
	sub	sp, fp, #40
	ldmfd	sp, {r4, r5, r6, r7, r8, r9, r10, fp, sp, pc}
.L505:
	ldr	r9, [r6, #764]
	mov	r10, r9
	b	.L507
.L511:
	mov	r1, #0
	ldrsb	r2, [r6, #6]
	ldrb	r3, [r6, #3]	@ zero_extendqisi2
	stmia	sp, {r0, r1}
	mov	r0, r1
	ldr	r1, .L525+4
	bl	dprint_vfmw
	mvn	r0, #0
	b	.L520
.L524:
	mov	r0, r6
	movw	r3, #2023
	ldr	r2, .L525+8
	ldr	r1, .L525+12
	bl	dprint_vfmw
	mvn	r0, #0
	b	.L520
.L526:
	.align	2
.L525:
	.word	.LC15
	.word	.LC16
	.word	.LC13
	.word	.LC14
	UNWIND(.fnend)
	.size	MVC_GetAPC, .-MVC_GetAPC
	.align	2
	.global	MVC_SlidingWinMark
	.type	MVC_SlidingWinMark, %function
MVC_SlidingWinMark:
	UNWIND(.fnstart)
	@ args = 0, pretend = 0, frame = 8
	@ frame_needed = 1, uses_anonymous_args = 0
	UNWIND(.movsp ip)
	mov	ip, sp
	stmfd	sp!, {r4, r5, r6, r7, r8, r9, r10, fp, ip, lr, pc}
	UNWIND(.pad #4)
	UNWIND(.save {r4, r5, r6, r7, r8, r9, r10, fp, ip, lr})
	UNWIND(.setfp fp, ip, #-4)
	sub	fp, ip, #4
	UNWIND(.pad #12)
	sub	sp, sp, #12
	add	r3, r0, #11075584
	ldr	r2, [r0, #236]
	add	r3, r3, #45056
	mov	r10, r0
	ldr	r0, [r3, #2932]
	ldr	r2, [r2, #3944]
	ldr	r1, [r3, #2928]
	rsb	r2, r0, r2
	cmp	r1, r2
	beq	.L552
.L527:
	sub	sp, fp, #40
	ldmfd	sp, {r4, r5, r6, r7, r8, r9, r10, fp, sp, pc}
.L552:
	ldr	r8, [r3, #2920]
	cmp	r8, #0
	beq	.L532
	movw	r6, #47780
	add	r1, r10, #11141120
	movt	r6, 169
	mov	r2, #0
	add	r1, r1, #16384
	add	r6, r10, r6
	mov	r5, r2
	mvn	r9, #-2147483648
.L531:
	ldr	r4, [r6, #4]!
	cmp	r4, #0
	beq	.L530
	ldr	r7, [r4, #64]
	cmp	r9, r7
	bls	.L530
	ldrb	r3, [r4, #3]	@ zero_extendqisi2
	mov	r0, r4
	cmp	r3, #0
	beq	.L530
	str	r1, [fp, #-52]
	str	r2, [fp, #-48]
	bl	MVC_NonLongTermRefFlg
	ldr	r2, [fp, #-48]
	ldr	r1, [fp, #-52]
	cmp	r0, #0
	beq	.L530
	ldr	r0, [r4, #56]
	ldr	r3, [r1, #120]
	cmp	r0, r3
	moveq	r9, r7
	moveq	r2, r5
.L530:
	add	r5, r5, #1
	cmp	r5, r8
	bne	.L531
.L529:
	movw	r3, #28330
	movt	r3, 42
	add	r3, r2, r3
	ldr	r4, [r10, r3, asl #2]
	cmp	r4, #0
	beq	.L527
	ldrb	r3, [r4, #3]	@ zero_extendqisi2
	cmp	r3, #0
	beq	.L527
	mov	r0, r4
	bl	MVC_NonLongTermRefFlg
	cmp	r0, #0
	beq	.L527
	add	r3, r10, #11141120
	ldr	r2, [r4, #56]
	add	r3, r3, #16384
	ldr	r3, [r3, #120]
	cmp	r2, r3
	bne	.L527
	mov	r0, r10
	mov	r1, r4
	bl	MVC_UnMarkFrameStoreRef
	mov	r0, r10
	sub	sp, fp, #40
	ldmfd	sp, {r4, r5, r6, r7, r8, r9, r10, fp, sp, lr}
	b	MVC_UpdateReflist
.L532:
	mov	r2, r8
	b	.L529
	UNWIND(.fnend)
	.size	MVC_SlidingWinMark, .-MVC_SlidingWinMark
	.align	2
	.global	MVC_DumpDPB
	.type	MVC_DumpDPB, %function
MVC_DumpDPB:
	UNWIND(.fnstart)
	@ args = 0, pretend = 0, frame = 0
	@ frame_needed = 1, uses_anonymous_args = 0
	UNWIND(.movsp ip)
	mov	ip, sp
	stmfd	sp!, {r4, r5, r6, r7, fp, ip, lr, pc}
	UNWIND(.pad #4)
	UNWIND(.save {r4, r5, r6, r7, fp, ip, lr})
	UNWIND(.setfp fp, ip, #-4)
	sub	fp, ip, #4
	UNWIND(.pad #8)
	sub	sp, sp, #8
	ldr	r3, .L563
	mov	r7, r0
	ldr	r3, [r3]
	tst	r3, #16384
	beq	.L553
	add	r6, r0, #11075584
	add	r6, r6, #45056
	ldr	r3, [r6, #2924]
	cmp	r3, #0
	movwne	r5, #47780
	movne	r4, #0
	movtne	r5, 169
	addne	r5, r0, r5
	beq	.L559
.L558:
	ldr	ip, [r5, #4]!
	mov	r2, r4
	ldr	r1, .L563+4
	mov	r0, #14
	add	r4, r4, #1
	ldrb	lr, [ip, #3]	@ zero_extendqisi2
	ldr	r3, [ip, #20]
	str	lr, [sp, #4]
	ldr	ip, [ip, #32]
	str	ip, [sp]
	bl	dprint_vfmw
	ldr	r3, [r6, #2924]
	cmp	r3, r4
	bhi	.L558
.L559:
	ldr	r1, .L563+8
	mov	r0, #14
	bl	dprint_vfmw
	ldr	r3, [r6, #2928]
	cmp	r3, #0
	movwne	r5, #47844
	movne	r4, #0
	movtne	r5, 169
	addne	r5, r7, r5
	beq	.L557
.L560:
	ldr	ip, [r5, #4]!
	mov	r2, r4
	ldr	r1, .L563+12
	mov	r0, #14
	ldrb	lr, [ip, #3]	@ zero_extendqisi2
	ldr	r3, [ip, #20]
	str	lr, [sp, #4]
	ldr	ip, [ip, #32]
	str	ip, [sp]
	bl	dprint_vfmw
	ldr	r3, [r5]
	mov	r2, r4
	ldr	r1, .L563+16
	mov	r0, #14
	add	r4, r4, #1
	ldr	r3, [r3, #728]
	bl	dprint_vfmw
	ldr	r3, [r6, #2928]
	cmp	r3, r4
	bhi	.L560
.L557:
	ldr	r1, .L563+8
	mov	r0, #14
	sub	sp, fp, #28
	ldmfd	sp, {r4, r5, r6, r7, fp, sp, lr}
	b	dprint_vfmw
.L553:
	sub	sp, fp, #28
	ldmfd	sp, {r4, r5, r6, r7, fp, sp, pc}
.L564:
	.align	2
.L563:
	.word	g_PrintEnable
	.word	.LC18
	.word	.LC17
	.word	.LC19
	.word	.LC20
	UNWIND(.fnend)
	.size	MVC_DumpDPB, .-MVC_DumpDPB
	.align	2
	.global	MVC_UpdateCurrFrameInfo
	.type	MVC_UpdateCurrFrameInfo, %function
MVC_UpdateCurrFrameInfo:
	UNWIND(.fnstart)
	@ args = 0, pretend = 0, frame = 0
	@ frame_needed = 1, uses_anonymous_args = 0
	UNWIND(.movsp ip)
	mov	ip, sp
	stmfd	sp!, {r4, r5, r6, r7, r8, r9, fp, ip, lr, pc}
	UNWIND(.pad #4)
	UNWIND(.save {r4, r5, r6, r7, r8, r9, fp, ip, lr})
	UNWIND(.setfp fp, ip, #-4)
	sub	fp, ip, #4
	add	r0, r0, #11141120
	add	r3, r0, #12288
	add	r1, r0, #16384
	ldrb	r2, [r3, #3482]	@ zero_extendqisi2
	ldr	r4, [r1, #40]
	strb	r2, [r4, #1]
	ldrb	r2, [r3, #3484]	@ zero_extendqisi2
	cmp	r2, #0
	movne	r2, #3
	bne	.L566
	ldrb	r2, [r3, #3485]	@ zero_extendqisi2
	cmp	r2, #0
	movne	r2, #3
.L566:
	add	ip, r0, #16384
	strb	r2, [r4, #3]
	ldr	r2, [ip, #48]
	str	r2, [r4, #20]
	ldr	r2, [ip, #92]
	str	r2, [r4, #44]
	ldrb	r2, [r3, #3492]	@ zero_extendqisi2
	strb	r2, [r4]
	ldr	r2, [ip, #60]
	str	r2, [r4, #32]
	ldr	r2, [ip, #116]
	str	r2, [r4, #48]
	ldr	r2, [ip, #52]
	str	r2, [r4, #28]
	ldrb	r2, [r3, #3489]	@ zero_extendqisi2
	str	r2, [r4, #40]
	ldrb	r2, [r3, #3487]	@ zero_extendqisi2
	cmp	r2, #1
	moveq	r1, #3
	movne	r1, #0
	strb	r1, [r4, #4]
	ldrb	r2, [r3, #3483]	@ zero_extendqisi2
	cmp	r2, #1
	beq	.L569
	bcc	.L570
	cmp	r2, #2
	ldmnefd	sp, {r4, r5, r6, r7, r8, r9, fp, sp, pc}
	str	r4, [r4, #788]
	mov	lr, #1
	strb	lr, [r4, #784]
	mov	r6, #0
	ldrb	lr, [r3, #3484]	@ zero_extendqisi2
	strb	lr, [r4, #785]
	ldrb	lr, [r3, #3485]	@ zero_extendqisi2
	strb	lr, [r4, #786]
	ldr	lr, [ip, #68]
	str	lr, [r4, #800]
	ldrb	lr, [r3, #3492]	@ zero_extendqisi2
	strb	lr, [r4, #787]
	ldr	ip, [ip, #92]
	str	r6, [r4, #40]
	str	ip, [r4, #808]
	ldrb	r5, [r3, #3481]	@ zero_extendqisi2
	cmp	r5, r6
	beq	.L587
	ldr	r2, [r4, #772]
	mov	r5, #3
	strb	r5, [r4, #2]
	add	r3, r3, #4080
	add	ip, ip, r2
	str	ip, [r4, #44]
	str	ip, [r4, #736]
	mvn	r7, #0
	ldrb	r2, [r3, #-593]	@ zero_extendqisi2
	cmp	r2, #1
	orreq	r6, r1, #2
	strb	r6, [r4, #4]
	ldrd	r8, [r3]
	mvn	r6, #0
	cmp	r9, r7
	cmpeq	r8, r6
	beq	.L578
	add	r1, r4, #656
	ldrd	r2, [r1]
	cmp	r3, r7
	cmpeq	r2, r6
	beq	.L588
.L578:
	ldrb	r3, [r4, #751]	@ zero_extendqisi2
.L585:
	add	r1, r0, #16384
	cmp	r3, lr
	mov	r0, r4
	movcc	r3, lr
	strb	r3, [r4]
	ldr	r3, [r1, #60]
	str	r3, [r4, #32]
	sub	sp, fp, #36
	ldmfd	sp, {r4, r5, r6, r7, r8, r9, fp, sp, lr}
	b	MVC_CombineFldsToFrm
.L570:
	str	r4, [r4, #716]
	mov	r1, #3
	mov	r2, #0
	strb	r1, [r4, #2]
	strb	r2, [r4, #712]
	add	r1, r3, #3488
	ldrb	r5, [r3, #3484]	@ zero_extendqisi2
	mov	r2, #640
	add	r1, r1, #8
	add	r0, r4, #72
	strb	r5, [r4, #713]
	ldrb	r6, [r3, #3485]	@ zero_extendqisi2
	strb	r6, [r4, #714]
	ldr	lr, [ip, #64]
	str	lr, [r4, #728]
	ldrb	r7, [r3, #3492]	@ zero_extendqisi2
	strb	r7, [r4, #715]
	ldr	r8, [ip, #92]
	str	r8, [r4, #736]
	ldr	r3, [ip, #68]
	str	r3, [r4, #764]
	ldr	r3, [ip, #72]
	str	r3, [r4, #800]
	bl	memcpy
	mov	r2, #1
	mov	r3, #2
	str	r8, [r4, #772]
	str	r8, [r4, #808]
	strb	r7, [r4, #751]
	strb	r7, [r4, #787]
	strb	r6, [r4, #750]
	strb	r6, [r4, #786]
	strb	r5, [r4, #749]
	strb	r5, [r4, #785]
	str	r4, [r4, #752]
	str	r4, [r4, #788]
	strb	r2, [r4, #748]
	strb	r3, [r4, #784]
	ldmfd	sp, {r4, r5, r6, r7, r8, r9, fp, sp, pc}
.L569:
	strb	r2, [r4, #748]
	mov	r5, #0
	str	r4, [r4, #752]
	ldrb	lr, [r3, #3484]	@ zero_extendqisi2
	strb	lr, [r4, #749]
	ldrb	lr, [r3, #3485]	@ zero_extendqisi2
	strb	lr, [r4, #750]
	ldr	lr, [ip, #68]
	str	lr, [r4, #764]
	ldrb	lr, [r3, #3492]	@ zero_extendqisi2
	strb	lr, [r4, #751]
	ldr	ip, [ip, #92]
	str	r5, [r4, #40]
	str	ip, [r4, #772]
	ldrb	r6, [r3, #3481]	@ zero_extendqisi2
	cmp	r6, r5
	beq	.L589
	ldr	r2, [r4, #808]
	mov	r6, #3
	strb	r6, [r4, #2]
	add	r3, r3, #4080
	add	ip, ip, r2
	str	ip, [r4, #44]
	str	ip, [r4, #736]
	mvn	r7, #0
	ldrb	r2, [r3, #-593]	@ zero_extendqisi2
	mvn	r6, #0
	cmp	r2, #1
	orreq	r5, r1, #1
	strb	r5, [r4, #4]
	ldrd	r8, [r3]
	cmp	r9, r7
	cmpeq	r8, r6
	beq	.L574
	add	r1, r4, #656
	ldrd	r2, [r1]
	cmp	r3, r7
	cmpeq	r2, r6
	streqd	r8, [r1]
.L574:
	ldrb	r3, [r4, #787]	@ zero_extendqisi2
	b	.L585
.L587:
	strb	r2, [r4, #2]
	add	r1, r0, #15744
	str	ip, [r4, #44]
	add	r1, r1, #40
	str	ip, [r4, #736]
	add	r0, r4, #72
	ldrb	r3, [r3, #3487]	@ zero_extendqisi2
	mov	r2, #640
	cmp	r3, #1
	moveq	r5, #2
	strb	r5, [r4, #4]
	bl	memcpy
	ldmfd	sp, {r4, r5, r6, r7, r8, r9, fp, sp, pc}
.L589:
	strb	r2, [r4, #2]
	add	r1, r3, #3488
	str	ip, [r4, #44]
	add	r1, r1, #8
	str	ip, [r4, #736]
	add	r0, r4, #72
	ldrb	r3, [r3, #3487]	@ zero_extendqisi2
	mov	r2, #640
	sub	r3, r3, #1
	clz	r3, r3
	mov	r3, r3, lsr #5
	strb	r3, [r4, #4]
	bl	memcpy
	ldmfd	sp, {r4, r5, r6, r7, r8, r9, fp, sp, pc}
.L588:
	strd	r8, [r1]
	b	.L578
	UNWIND(.fnend)
	.size	MVC_UpdateCurrFrameInfo, .-MVC_UpdateCurrFrameInfo
	.align	2
	.global	MVC_SimpleSlideDPB
	.type	MVC_SimpleSlideDPB, %function
MVC_SimpleSlideDPB:
	UNWIND(.fnstart)
	@ args = 0, pretend = 0, frame = 0
	@ frame_needed = 1, uses_anonymous_args = 0
	UNWIND(.movsp ip)
	mov	ip, sp
	stmfd	sp!, {r4, r5, r6, r7, r8, r9, fp, ip, lr, pc}
	UNWIND(.pad #4)
	UNWIND(.save {r4, r5, r6, r7, r8, r9, fp, ip, lr})
	UNWIND(.setfp fp, ip, #-4)
	sub	fp, ip, #4
	add	r3, r0, #11075584
	mov	r6, r0
	add	r3, r3, #45056
	ldr	r4, [r3, #2920]
	ldr	r3, [r3, #2924]
	cmp	r3, r4
	addcc	r5, r0, #11141120
	bcc	.L591
	cmp	r4, #0
	beq	.L596
	movw	r1, #47780
	add	r5, r0, #11141120
	movt	r1, 169
	mov	lr, #0
	add	r8, r5, #16384
	add	r1, r0, r1
	mov	r3, lr
	mvn	ip, #-2147483648
.L594:
	ldr	r2, [r1, #4]!
	cmp	r2, #0
	beq	.L593
	ldr	r0, [r2, #64]
	cmp	ip, r0
	bls	.L593
	ldr	r7, [r2, #56]
	ldr	r2, [r8, #120]
	cmp	r7, r2
	moveq	ip, r0
	moveq	lr, r3
.L593:
	add	r3, r3, #1
	cmp	r3, r4
	bne	.L594
	mov	r4, lr
.L592:
	movw	r3, #28330
	mov	r0, r6
	movt	r3, 42
	add	r3, lr, r3
	ldr	r1, [r6, r3, asl #2]
	bl	MVC_UnMarkFrameStoreRef
	mov	r1, r4
	mov	r0, r6
	bl	MVC_RemoveFrameStoreOutDPB
.L591:
	add	r3, r5, #12288
	add	r5, r5, #16384
	mov	r2, #0
	strb	r2, [r3, #3484]
	ldr	r2, [r5, #56]
	cmp	r2, #0
	movne	r2, #1
	strneb	r2, [r3, #3485]
	ldmfd	sp, {r4, r5, r6, r7, r8, r9, fp, sp, pc}
.L596:
	add	r5, r0, #11141120
	mov	lr, r4
	b	.L592
	UNWIND(.fnend)
	.size	MVC_SimpleSlideDPB, .-MVC_SimpleSlideDPB
	.align	2
	.global	MVC_ReleaseNAL
	.type	MVC_ReleaseNAL, %function
MVC_ReleaseNAL:
	UNWIND(.fnstart)
	@ args = 0, pretend = 0, frame = 0
	@ frame_needed = 1, uses_anonymous_args = 0
	UNWIND(.movsp ip)
	mov	ip, sp
	stmfd	sp!, {r4, r5, r6, r7, fp, ip, lr, pc}
	UNWIND(.pad #4)
	UNWIND(.save {r4, r5, r6, r7, fp, ip, lr})
	UNWIND(.setfp fp, ip, #-4)
	sub	fp, ip, #4
	subs	r5, r1, #0
	mov	r6, r0
	beq	.L614
	add	r7, r5, #56
	mov	r4, r5
	mov	r3, #0
	strb	r3, [r5, #1]
	strb	r3, [r5, #3]
.L609:
	ldr	r3, [r4, #8]
	mov	r0, r6
	cmp	r3, #0
	beq	.L608
	ldr	r1, [r4, #32]
	bl	SM_ReleaseStreamSeg
	ldr	r3, [r4, #12]
	ldr	r2, [r4, #8]
	mov	r0, #7
	ldr	r1, .L615
	bl	dprint_vfmw
	mov	r3, #0
	str	r3, [r4, #8]
	str	r3, [r4, #24]
	str	r3, [r4, #12]
.L608:
	add	r4, r4, #28
	cmp	r4, r7
	bne	.L609
	mov	r3, #0
	strb	r3, [r5]
	str	r3, [r5, #68]
	ldmfd	sp, {r4, r5, r6, r7, fp, sp, pc}
.L614:
	mov	r0, r5
	movw	r3, #3891
	ldr	r2, .L615+4
	ldr	r1, .L615+8
	sub	sp, fp, #28
	ldmfd	sp, {r4, r5, r6, r7, fp, sp, lr}
	b	dprint_vfmw
.L616:
	.align	2
.L615:
	.word	.LC21
	.word	.LC13
	.word	.LC14
	UNWIND(.fnend)
	.size	MVC_ReleaseNAL, .-MVC_ReleaseNAL
	.align	2
	.global	MVC_ClearCurrNal
	.type	MVC_ClearCurrNal, %function
MVC_ClearCurrNal:
	UNWIND(.fnstart)
	@ args = 0, pretend = 0, frame = 0
	@ frame_needed = 1, uses_anonymous_args = 0
	UNWIND(.movsp ip)
	mov	ip, sp
	stmfd	sp!, {r4, r5, fp, ip, lr, pc}
	UNWIND(.pad #4)
	UNWIND(.save {r4, r5, fp, ip, lr})
	UNWIND(.setfp fp, ip, #-4)
	sub	fp, ip, #4
	ldr	r1, [r0, #232]
	mov	r4, r0
	cmp	r1, #0
	beq	.L618
	ldr	r0, [r0, #120]
	bl	MVC_ReleaseNAL
	mov	r3, #0
	str	r3, [r4, #232]
.L618:
	mov	r0, #0
	ldmfd	sp, {r4, r5, fp, sp, pc}
	UNWIND(.fnend)
	.size	MVC_ClearCurrNal, .-MVC_ClearCurrNal
	.align	2
	.global	MVC_ClearCurrSlice
	.type	MVC_ClearCurrSlice, %function
MVC_ClearCurrSlice:
	UNWIND(.fnstart)
	@ args = 0, pretend = 0, frame = 0
	@ frame_needed = 1, uses_anonymous_args = 0
	UNWIND(.movsp ip)
	mov	ip, sp
	stmfd	sp!, {r4, r5, fp, ip, lr, pc}
	UNWIND(.pad #4)
	UNWIND(.save {r4, r5, fp, ip, lr})
	UNWIND(.setfp fp, ip, #-4)
	sub	fp, ip, #4
	ldr	r1, .L627
	mov	r4, r0
	mov	r0, #1
	bl	dprint_vfmw
	ldr	r1, [r4, #232]
	cmp	r1, #0
	beq	.L623
	ldr	r0, [r4, #120]
	bl	MVC_ReleaseNAL
	mov	r3, #0
	str	r3, [r4, #232]
.L623:
	ldr	r3, [r4, #80]
	mov	r0, #0
	add	r3, r3, #1
	str	r3, [r4, #80]
	ldmfd	sp, {r4, r5, fp, sp, pc}
.L628:
	.align	2
.L627:
	.word	.LC22
	UNWIND(.fnend)
	.size	MVC_ClearCurrSlice, .-MVC_ClearCurrSlice
	.align	2
	.global	MVC_ClearAllNal
	.type	MVC_ClearAllNal, %function
MVC_ClearAllNal:
	UNWIND(.fnstart)
	@ args = 0, pretend = 0, frame = 0
	@ frame_needed = 1, uses_anonymous_args = 0
	UNWIND(.movsp ip)
	mov	ip, sp
	stmfd	sp!, {r4, r5, r6, r7, fp, ip, lr, pc}
	UNWIND(.pad #4)
	UNWIND(.save {r4, r5, r6, r7, fp, ip, lr})
	UNWIND(.setfp fp, ip, #-4)
	sub	fp, ip, #4
	mov	r6, r0
	add	r4, r0, #936
	add	r5, r0, #12992
	b	.L631
.L630:
	add	r4, r4, #88
	cmp	r4, r5
	beq	.L633
.L631:
	ldrb	r3, [r4, #1]	@ zero_extendqisi2
	cmp	r3, #1
	bne	.L630
	mov	r1, r4
	ldr	r0, [r6, #120]
	add	r4, r4, #88
	bl	MVC_ReleaseNAL
	cmp	r4, r5
	bne	.L631
.L633:
	mov	r0, #0
	ldmfd	sp, {r4, r5, r6, r7, fp, sp, pc}
	UNWIND(.fnend)
	.size	MVC_ClearAllNal, .-MVC_ClearAllNal
	.align	2
	.global	MVC_ClearAllSlice
	.type	MVC_ClearAllSlice, %function
MVC_ClearAllSlice:
	UNWIND(.fnstart)
	@ args = 0, pretend = 0, frame = 0
	@ frame_needed = 1, uses_anonymous_args = 0
	UNWIND(.movsp ip)
	mov	ip, sp
	stmfd	sp!, {r4, r5, r6, r7, fp, ip, lr, pc}
	UNWIND(.pad #4)
	UNWIND(.save {r4, r5, r6, r7, fp, ip, lr})
	UNWIND(.setfp fp, ip, #-4)
	sub	fp, ip, #4
	movw	r4, #17280
	movw	r5, #17824
	movt	r4, 170
	movt	r5, 170
	add	r4, r0, r4
	add	r5, r0, r5
	mov	r6, r0
	mov	r7, #0
.L636:
	ldr	r1, [r4, #4]!
	cmp	r1, #0
	beq	.L635
	ldr	r0, [r6, #120]
	bl	MVC_ReleaseNAL
	str	r7, [r4]
.L635:
	cmp	r4, r5
	bne	.L636
	mov	r0, #0
	str	r0, [r6, #64]
	str	r0, [r6, #104]
	ldmfd	sp, {r4, r5, r6, r7, fp, sp, pc}
	UNWIND(.fnend)
	.size	MVC_ClearAllSlice, .-MVC_ClearAllSlice
	.align	2
	.global	MVC_ClearCurrPic
	.type	MVC_ClearCurrPic, %function
MVC_ClearCurrPic:
	UNWIND(.fnstart)
	@ args = 0, pretend = 0, frame = 0
	@ frame_needed = 1, uses_anonymous_args = 0
	UNWIND(.movsp ip)
	mov	ip, sp
	stmfd	sp!, {r4, r5, fp, ip, lr, pc}
	UNWIND(.pad #4)
	UNWIND(.save {r4, r5, fp, ip, lr})
	UNWIND(.setfp fp, ip, #-4)
	sub	fp, ip, #4
	subs	r4, r0, #0
	beq	.L644
	bl	MVC_ClearAllSlice
	ldr	ip, [r4, #40]
	add	r3, r4, #11075584
	mov	r2, #0
	add	r3, r3, #40960
	movw	r1, #23352
	movt	r1, 1
	mov	r0, r2
	str	ip, [r3, #2732]
	mov	ip, #2
	str	r1, [r3, #2736]
	mov	r1, #7
	strb	ip, [r3, #2721]
	mov	ip, #32
	strb	r1, [r3, #2723]
	mov	r1, #3
	strb	ip, [r3, #2722]
	mvn	ip, #0
	str	r1, [r3, #2744]
	mov	r1, #262144
	str	ip, [r3, #2748]
	str	r1, [r3, #2760]
	strb	r2, [r3, #2720]
	str	r2, [r3, #2752]
	str	r2, [r3, #2756]
	ldmfd	sp, {r4, r5, fp, sp, pc}
.L644:
	ldr	r3, .L645
	mov	r2, #300
	ldr	r1, .L645+4
	bl	dprint_vfmw
	mvn	r0, #0
	ldmfd	sp, {r4, r5, fp, sp, pc}
.L646:
	.align	2
.L645:
	.word	.LC23
	.word	.LC24
	UNWIND(.fnend)
	.size	MVC_ClearCurrPic, .-MVC_ClearCurrPic
	.align	2
	.global	MVC_ArrangeVahbMem
	.type	MVC_ArrangeVahbMem, %function
MVC_ArrangeVahbMem:
	UNWIND(.fnstart)
	@ args = 4, pretend = 0, frame = 24
	@ frame_needed = 1, uses_anonymous_args = 0
	UNWIND(.movsp ip)
	mov	ip, sp
	stmfd	sp!, {r4, r5, r6, fp, ip, lr, pc}
	UNWIND(.pad #4)
	UNWIND(.save {r4, r5, r6, fp, ip, lr})
	UNWIND(.setfp fp, ip, #-4)
	sub	fp, ip, #4
	UNWIND(.pad #28)
	sub	sp, sp, #28
	mov	r5, r2
	sub	r2, r1, #32
	sub	r3, r5, #32
	mov	r6, r1
	movw	r1, #8160
	cmp	r3, r1
	cmpls	r2, r1
	mov	r4, r0
	movhi	r1, #1
	movls	r1, #0
	bhi	.L657
	ldr	r3, .L659
	mov	r2, #20
	sub	r0, fp, #48
	ldr	r3, [r3, #48]
	blx	r3
	ldr	r3, [r4, #224]
	str	r6, [fp, #-44]
	str	r5, [fp, #-40]
	ldr	r3, [r3, #28]
	str	r6, [fp, #-36]
	cmp	r3, #24
	str	r5, [fp, #-32]
	beq	.L650
	add	r2, r4, #11075584
	ldrb	r3, [fp, #4]	@ zero_extendqisi2
	add	r2, r2, #45056
	mov	r1, #5
	strb	r1, [fp, #-46]
	ldr	r2, [r2, #2920]
	add	r2, r2, #3
	strb	r2, [fp, #-47]
.L655:
	sub	r1, fp, #48
	ldr	r0, [r4, #120]
	strb	r3, [fp, #-45]
	bl	FSP_ConfigInstance
	cmp	r0, #0
	bne	.L651
	ldr	r1, [r4, #224]
	sub	r3, fp, #52
	ldr	r0, [r4, #120]
	ldr	r2, [r1, #20]
	ldr	r1, [r1, #16]
	bl	FSP_ConfigFrameBuf
	cmp	r0, #2
	beq	.L658
	cmp	r0, #0
	moveq	r0, #1
	bne	.L653
.L656:
	sub	sp, fp, #24
	ldmfd	sp, {r4, r5, r6, fp, sp, pc}
.L650:
	mov	r3, #1
	mov	r2, #5
	strb	r3, [fp, #-47]
	strb	r2, [fp, #-46]
	b	.L655
.L658:
	add	r0, r4, #584
	bl	ResetVoQueue
.L653:
	ldr	r1, .L659+4
	mov	r0, #0
	bl	dprint_vfmw
	mvn	r0, #19
	b	.L656
.L657:
	mov	r3, r5
	mov	r2, r6
	ldr	r1, .L659+8
	mov	r0, #0
	bl	dprint_vfmw
	mvn	r0, #19
	sub	sp, fp, #24
	ldmfd	sp, {r4, r5, r6, fp, sp, pc}
.L651:
	ldr	r1, .L659+12
	mov	r0, #0
	bl	dprint_vfmw
	mvn	r0, #19
	b	.L656
.L660:
	.align	2
.L659:
	.word	vfmw_Osal_Func_Ptr_S
	.word	.LC26
	.word	.LC25
	.word	.LC27
	UNWIND(.fnend)
	.size	MVC_ArrangeVahbMem, .-MVC_ArrangeVahbMem
	.align	2
	.global	MVC_RepairList
	.type	MVC_RepairList, %function
MVC_RepairList:
	UNWIND(.fnstart)
	@ args = 0, pretend = 0, frame = 0
	@ frame_needed = 1, uses_anonymous_args = 0
	UNWIND(.movsp ip)
	mov	ip, sp
	stmfd	sp!, {r3, r4, r5, r6, r7, r8, r9, r10, fp, ip, lr, pc}
	UNWIND(.pad #4)
	UNWIND(.save {r3, r4, r5, r6, r7, r8, r9, r10, fp, ip, lr})
	UNWIND(.setfp fp, ip, #-4)
	sub	fp, ip, #4
	add	r3, r0, #11075584
	mov	r6, r0
	add	r3, r3, #40960
	ldrb	r3, [r3, #1064]	@ zero_extendqisi2
	cmp	r3, #1
	beq	.L663
	bcc	.L678
	cmp	r3, #2
	bne	.L684
.L679:
	mov	r0, #0
	ldmfd	sp, {r3, r4, r5, r6, r7, r8, r9, r10, fp, sp, pc}
.L675:
	mov	r0, r6
.L684:
	bl	MVC_ClearCurrSlice
	mvn	r0, #0
	ldmfd	sp, {r3, r4, r5, r6, r7, r8, r9, r10, fp, sp, pc}
.L663:
	mov	r7, #2
.L664:
	movw	r5, #42068
	add	r8, r6, #11141120
	movt	r5, 169
	add	r5, r6, r5
	add	r8, r8, #16384
	add	r4, r6, #256
	ldr	r2, [r5, #4]!
	mov	ip, r6
	mov	lr, #0
	mov	r9, #1
	cmp	r2, #0
	beq	.L666
.L686:
	ldr	r10, [ip, #256]
	cmp	r10, #0
	bne	.L680
	mov	r0, r4
	mov	r3, r10
	b	.L668
.L669:
	ldr	r1, [r0, #4]!
	cmp	r1, #0
	bne	.L671
.L668:
	add	r3, r3, #1
	cmp	r3, r2
	bne	.L669
	ldr	r3, [r6, #224]
	ldr	r3, [r3, #24]
	cmp	r3, #2
	bne	.L675
	ldr	r1, [r8, #40]
	add	r1, r1, #712
.L671:
	mov	r0, r4
	mov	r3, #0
	b	.L677
.L673:
	ldr	r10, [r0, #4]!
.L677:
	add	r3, r3, #1
	cmp	r10, #0
	streq	r1, [r0]
	cmp	r3, r2
	bne	.L673
.L674:
	add	lr, lr, #1
	add	r4, r4, #132
	cmp	r7, lr
	add	ip, ip, #132
	bls	.L679
	ldr	r2, [r5, #4]!
	cmp	r2, #0
	bne	.L686
.L666:
	ldr	r3, [r6, #224]
	ldr	r3, [r3, #24]
	cmp	r3, #2
	bne	.L675
	str	r9, [r5]
	ldr	r3, [r8, #40]
	add	r3, r3, #712
	str	r3, [ip, #256]
	b	.L674
.L680:
	mov	r1, r10
	b	.L671
.L678:
	mov	r7, #1
	b	.L664
	UNWIND(.fnend)
	.size	MVC_RepairList, .-MVC_RepairList
	.align	2
	.global	MVC_GetShortTermPicPoint
	.type	MVC_GetShortTermPicPoint, %function
MVC_GetShortTermPicPoint:
	UNWIND(.fnstart)
	@ args = 0, pretend = 0, frame = 0
	@ frame_needed = 1, uses_anonymous_args = 0
	UNWIND(.movsp ip)
	mov	ip, sp
	stmfd	sp!, {r4, r5, fp, ip, lr, pc}
	UNWIND(.pad #4)
	UNWIND(.save {r4, r5, fp, ip, lr})
	UNWIND(.setfp fp, ip, #-4)
	sub	fp, ip, #4
	add	r3, r0, #11075584
	add	r2, r3, #40960
	ldrb	r4, [r2, #1065]	@ zero_extendqisi2
	cmp	r4, #0
	beq	.L688
	ldrb	r2, [r2, #1066]	@ zero_extendqisi2
	cmp	r2, #0
	movne	r4, #2
	moveq	r4, #1
.L688:
	add	r3, r3, #45056
	ldr	r5, [r3, #2928]
	cmp	r5, #0
	beq	.L696
	movw	r3, #47848
	mov	r2, #0
	movt	r3, 169
	add	r3, r0, r3
	b	.L693
.L706:
	ldrb	ip, [r0, #3]	@ zero_extendqisi2
	cmp	ip, #3
	beq	.L704
.L691:
	add	r2, r2, #1
	add	r3, r3, #4
	cmp	r2, r5
	beq	.L705
.L693:
	cmp	r4, #0
	ldr	r0, [r3]
	beq	.L706
	ldrb	lr, [r0, #3]	@ zero_extendqisi2
	tst	lr, #1
	beq	.L692
	ldr	ip, [r0, #748]
	bic	ip, ip, #-16777216
	bic	ip, ip, #255
	cmp	ip, #65536
	beq	.L707
.L692:
	tst	lr, #2
	beq	.L691
	ldr	ip, [r0, #784]
	bic	ip, ip, #-16777216
	bic	ip, ip, #255
	cmp	ip, #65536
	bne	.L691
	ldr	ip, [r0, #796]
	cmp	ip, r1
	bne	.L691
	add	r0, r0, #784
	ldmfd	sp, {r4, r5, fp, sp, pc}
.L704:
	ldr	ip, [r0, #712]
	bic	ip, ip, #-16777216
	bic	ip, ip, #255
	cmp	ip, #65536
	bne	.L691
	ldr	ip, [r0, #724]
	cmp	ip, r1
	bne	.L691
	add	r0, r0, #712
	ldmfd	sp, {r4, r5, fp, sp, pc}
.L707:
	ldr	ip, [r0, #760]
	cmp	ip, r1
	bne	.L692
	add	r0, r0, #748
	ldmfd	sp, {r4, r5, fp, sp, pc}
.L705:
	mov	r0, #0
	ldmfd	sp, {r4, r5, fp, sp, pc}
.L696:
	mov	r0, r5
	ldmfd	sp, {r4, r5, fp, sp, pc}
	UNWIND(.fnend)
	.size	MVC_GetShortTermPicPoint, .-MVC_GetShortTermPicPoint
	.align	2
	.global	MVC_GetLongTermPicPoint
	.type	MVC_GetLongTermPicPoint, %function
MVC_GetLongTermPicPoint:
	UNWIND(.fnstart)
	@ args = 0, pretend = 0, frame = 0
	@ frame_needed = 1, uses_anonymous_args = 0
	UNWIND(.movsp ip)
	mov	ip, sp
	stmfd	sp!, {r4, r5, fp, ip, lr, pc}
	UNWIND(.pad #4)
	UNWIND(.save {r4, r5, fp, ip, lr})
	UNWIND(.setfp fp, ip, #-4)
	sub	fp, ip, #4
	add	r3, r0, #11075584
	add	r2, r3, #40960
	ldrb	r4, [r2, #1065]	@ zero_extendqisi2
	cmp	r4, #0
	beq	.L709
	ldrb	r2, [r2, #1066]	@ zero_extendqisi2
	cmp	r2, #0
	movne	r4, #2
	moveq	r4, #1
.L709:
	add	r3, r3, #45056
	ldr	r5, [r3, #2932]
	cmp	r5, #0
	beq	.L717
	movw	r3, #47912
	mov	r2, #0
	movt	r3, 169
	add	r3, r0, r3
	b	.L714
.L727:
	ldrb	ip, [r0, #3]	@ zero_extendqisi2
	cmp	ip, #3
	beq	.L725
.L712:
	add	r2, r2, #1
	add	r3, r3, #4
	cmp	r2, r5
	beq	.L726
.L714:
	cmp	r4, #0
	ldr	r0, [r3]
	beq	.L727
	ldrb	lr, [r0, #3]	@ zero_extendqisi2
	tst	lr, #1
	beq	.L713
	ldr	ip, [r0, #748]
	bic	ip, ip, #-16777216
	bic	ip, ip, #255
	cmp	ip, #256
	beq	.L728
.L713:
	tst	lr, #2
	beq	.L712
	ldr	ip, [r0, #784]
	bic	ip, ip, #-16777216
	bic	ip, ip, #255
	cmp	ip, #256
	bne	.L712
	ldr	ip, [r0, #792]
	cmp	ip, r1
	bne	.L712
	add	r0, r0, #784
	ldmfd	sp, {r4, r5, fp, sp, pc}
.L725:
	ldr	ip, [r0, #712]
	bic	ip, ip, #-16777216
	bic	ip, ip, #255
	cmp	ip, #256
	bne	.L712
	ldr	ip, [r0, #720]
	cmp	ip, r1
	bne	.L712
	add	r0, r0, #712
	ldmfd	sp, {r4, r5, fp, sp, pc}
.L728:
	ldr	ip, [r0, #756]
	cmp	ip, r1
	bne	.L713
	add	r0, r0, #748
	ldmfd	sp, {r4, r5, fp, sp, pc}
.L726:
	mov	r0, #0
	ldmfd	sp, {r4, r5, fp, sp, pc}
.L717:
	mov	r0, r5
	ldmfd	sp, {r4, r5, fp, sp, pc}
	UNWIND(.fnend)
	.size	MVC_GetLongTermPicPoint, .-MVC_GetLongTermPicPoint
	.align	2
	.global	MVC_ReorderSTList
	.type	MVC_ReorderSTList, %function
MVC_ReorderSTList:
	UNWIND(.fnstart)
	@ args = 8, pretend = 0, frame = 0
	@ frame_needed = 1, uses_anonymous_args = 0
	UNWIND(.movsp ip)
	mov	ip, sp
	stmfd	sp!, {r4, r5, r6, r7, r8, r9, fp, ip, lr, pc}
	UNWIND(.pad #4)
	UNWIND(.save {r4, r5, r6, r7, r8, r9, fp, ip, lr})
	UNWIND(.setfp fp, ip, #-4)
	sub	fp, ip, #4
	mov	ip, r1, asl #7
	ldr	r6, [fp, #4]
	add	r5, ip, r1, lsl #2
	mov	r1, r3
	add	r5, r5, #256
	mov	r7, r2
	mov	r4, r3
	add	r5, r0, r5
	bl	MVC_GetShortTermPicPoint
	ldr	lr, [r6]
	add	r2, r7, #1
	ldr	r8, [fp, #8]
	cmp	r2, lr
	ble	.L730
	add	ip, r5, r2, lsl #2
	mov	r1, r2
.L731:
	ldr	r3, [ip, #-4]!
	sub	r1, r1, #1
	str	r3, [ip, #4]
	ldr	lr, [r6]
	cmp	lr, r1
	blt	.L731
.L730:
	add	r3, lr, #1
	str	r3, [r6]
	str	r0, [r5, lr, asl #2]
	ldr	r0, [r6]
	cmp	r2, r0
	ldmltfd	sp, {r4, r5, r6, r7, r8, r9, fp, sp, pc}
	add	r7, r7, #2
	add	lr, r5, r0, lsl #2
	mov	ip, r0
	b	.L735
.L734:
	str	r1, [r5, ip, asl #2]
	add	ip, ip, #1
.L733:
	cmp	r0, r7
	beq	.L743
.L735:
	ldr	r1, [lr], #4
	add	r0, r0, #1
	cmp	r1, #0
	beq	.L733
	ldrb	r3, [r1, #1]	@ zero_extendqisi2
	cmp	r3, #0
	bne	.L734
	ldr	r3, [r1, #12]
	cmp	r3, r4
	bne	.L734
	ldr	r3, [r1, #4]
	ldr	r3, [r3, #56]
	cmp	r3, r8
	bne	.L734
	cmp	r0, r7
	bne	.L735
.L743:
	ldmfd	sp, {r4, r5, r6, r7, r8, r9, fp, sp, pc}
	UNWIND(.fnend)
	.size	MVC_ReorderSTList, .-MVC_ReorderSTList
	.align	2
	.global	MVC_ReorderLTList
	.type	MVC_ReorderLTList, %function
MVC_ReorderLTList:
	UNWIND(.fnstart)
	@ args = 8, pretend = 0, frame = 0
	@ frame_needed = 1, uses_anonymous_args = 0
	UNWIND(.movsp ip)
	mov	ip, sp
	stmfd	sp!, {r4, r5, r6, r7, r8, r9, fp, ip, lr, pc}
	UNWIND(.pad #4)
	UNWIND(.save {r4, r5, r6, r7, r8, r9, fp, ip, lr})
	UNWIND(.setfp fp, ip, #-4)
	sub	fp, ip, #4
	mov	ip, r1, asl #7
	ldr	r6, [fp, #4]
	add	r5, ip, r1, lsl #2
	mov	r1, r3
	add	r5, r5, #256
	mov	r7, r2
	mov	r4, r3
	add	r5, r0, r5
	bl	MVC_GetLongTermPicPoint
	ldr	lr, [r6]
	add	r2, r7, #1
	ldr	r8, [fp, #8]
	cmp	r2, lr
	ble	.L745
	add	ip, r5, r2, lsl #2
	mov	r1, r2
.L746:
	ldr	r3, [ip, #-4]!
	sub	r1, r1, #1
	str	r3, [ip, #4]
	ldr	lr, [r6]
	cmp	lr, r1
	blt	.L746
.L745:
	add	r3, lr, #1
	str	r3, [r6]
	str	r0, [r5, lr, asl #2]
	ldr	r0, [r6]
	cmp	r2, r0
	ldmltfd	sp, {r4, r5, r6, r7, r8, r9, fp, sp, pc}
	add	r7, r7, #2
	add	lr, r5, r0, lsl #2
	mov	ip, r0
	b	.L750
.L749:
	str	r1, [r5, ip, asl #2]
	add	ip, ip, #1
.L748:
	cmp	r0, r7
	beq	.L761
.L750:
	ldr	r1, [lr], #4
	add	r0, r0, #1
	cmp	r1, #0
	beq	.L748
	ldrb	r3, [r1, #1]	@ zero_extendqisi2
	cmp	r3, #0
	beq	.L749
	ldr	r3, [r1, #8]
	cmp	r3, r4
	bne	.L749
	ldr	r3, [r1, #4]
	ldr	r3, [r3, #56]
	cmp	r3, r8
	bne	.L749
	cmp	r0, r7
	bne	.L750
.L761:
	ldmfd	sp, {r4, r5, r6, r7, r8, r9, fp, sp, pc}
	UNWIND(.fnend)
	.size	MVC_ReorderLTList, .-MVC_ReorderLTList
	.align	2
	.global	MVC_GetMaxViewIdx
	.type	MVC_GetMaxViewIdx, %function
MVC_GetMaxViewIdx:
	UNWIND(.fnstart)
	@ args = 0, pretend = 0, frame = 0
	@ frame_needed = 1, uses_anonymous_args = 0
	UNWIND(.movsp ip)
	mov	ip, sp
	stmfd	sp!, {r4, r5, r6, fp, ip, lr, pc}
	UNWIND(.pad #4)
	UNWIND(.save {r4, r5, r6, fp, ip, lr})
	UNWIND(.setfp fp, ip, #-4)
	sub	fp, ip, #4
	add	ip, r0, #10747904
	movw	lr, #22868
	add	ip, ip, #20480
	movt	lr, 164
	add	lr, r0, lr
	ldr	r5, [ip, #2384]
	adds	r5, r5, #1
	beq	.L769
	ldr	ip, [ip, #2388]
	cmp	r1, ip
	beq	.L770
	mov	r6, r5
	mov	ip, #0
	b	.L764
.L766:
	ldr	r4, [lr, #4]!
	cmp	r1, r4
	beq	.L772
.L764:
	add	ip, ip, #1
	cmp	ip, r5
	bne	.L766
	cmp	r6, #0
	blt	.L773
.L763:
	cmp	r2, #0
	add	r6, r6, r3, lsl #1
	movwne	r3, #5718
	movweq	r3, #5726
	movt	r3, 41
	add	r3, r6, r3
	add	r0, r0, r3, lsl #2
	ldr	r0, [r0, #4]
	ldmfd	sp, {r4, r5, r6, fp, sp, pc}
.L772:
	mov	r6, ip
	cmp	r6, #0
	bge	.L763
.L773:
	mov	r0, #0
	ldmfd	sp, {r4, r5, r6, fp, sp, pc}
.L769:
	mov	r6, r5
	b	.L763
.L770:
	mov	r6, #0
	b	.L763
	UNWIND(.fnend)
	.size	MVC_GetMaxViewIdx, .-MVC_GetMaxViewIdx
	.align	2
	.global	mvc_get_inter_view_pic
	.type	mvc_get_inter_view_pic, %function
mvc_get_inter_view_pic:
	UNWIND(.fnstart)
	@ args = 0, pretend = 0, frame = 0
	@ frame_needed = 1, uses_anonymous_args = 0
	UNWIND(.movsp ip)
	mov	ip, sp
	stmfd	sp!, {r4, fp, ip, lr, pc}
	UNWIND(.pad #4)
	UNWIND(.save {r4, fp, ip, lr})
	UNWIND(.setfp fp, ip, #-4)
	sub	fp, ip, #4
	movw	ip, #27302
	mov	r4, #1648
	movt	ip, 42
	add	ip, r3, ip
	mla	r3, r4, r3, r0
	ldr	lr, [r0, ip, asl #2]
	movw	ip, #31360
	cmp	lr, #0
	movt	ip, 169
	add	ip, r3, ip
	beq	.L780
	add	r4, r0, #11141120
	mov	r3, #0
	mov	r0, ip
	add	r4, r4, #12288
	b	.L779
.L776:
	cmp	r3, lr
	add	r0, r0, #824
	beq	.L782
.L779:
	ldr	ip, [r0, #56]
	add	r3, r3, #1
	cmp	ip, r1
	bne	.L776
	ldrb	ip, [r4, #3483]	@ zero_extendqisi2
	cmp	ip, #0
	bne	.L777
	ldr	ip, [r0, #732]
	cmp	ip, r2
	bne	.L776
	add	r0, r0, #712
	ldmfd	sp, {r4, fp, sp, pc}
.L777:
	cmp	ip, #1
	beq	.L783
	cmp	ip, #2
	bne	.L776
	ldr	ip, [r0, #804]
	cmp	ip, r2
	bne	.L776
	add	r0, r0, #784
	ldmfd	sp, {r4, fp, sp, pc}
.L783:
	ldr	ip, [r0, #768]
	cmp	ip, r2
	bne	.L776
	add	r0, r0, #748
	ldmfd	sp, {r4, fp, sp, pc}
.L782:
	mov	r0, #0
	ldmfd	sp, {r4, fp, sp, pc}
.L780:
	mov	r0, lr
	ldmfd	sp, {r4, fp, sp, pc}
	UNWIND(.fnend)
	.size	mvc_get_inter_view_pic, .-mvc_get_inter_view_pic
	.align	2
	.global	mvc_reorder_interview
	.type	mvc_reorder_interview, %function
mvc_reorder_interview:
	UNWIND(.fnstart)
	@ args = 8, pretend = 0, frame = 0
	@ frame_needed = 1, uses_anonymous_args = 0
	UNWIND(.movsp ip)
	mov	ip, sp
	stmfd	sp!, {r4, r5, r6, r7, r8, r9, fp, ip, lr, pc}
	UNWIND(.pad #4)
	UNWIND(.save {r4, r5, r6, r7, r8, r9, fp, ip, lr})
	UNWIND(.setfp fp, ip, #-4)
	sub	fp, ip, #4
	ldr	r4, [fp, #8]
	mov	r7, r2
	ldr	r6, [fp, #4]
	mov	r5, r3
	mov	r8, r1
	mov	r1, r3
	mov	r2, r4, asl #7
	mov	r3, r4
	add	r4, r2, r4, lsl #2
	mov	r2, r6
	add	r4, r4, #256
	add	r4, r0, r4
	bl	mvc_get_inter_view_pic
	cmp	r0, #0
	ldmeqfd	sp, {r4, r5, r6, r7, r8, r9, fp, sp, pc}
	ldr	ip, [r7]
	add	r1, r8, #1
	cmp	r1, ip
	bls	.L786
	add	r2, r4, r1, lsl #2
	mov	r3, r1
.L787:
	ldr	ip, [r2, #-4]!
	sub	r3, r3, #1
	str	ip, [r2, #4]
	ldr	ip, [r7]
	cmp	ip, r3
	bcc	.L787
.L786:
	add	r3, ip, #1
	str	r3, [r7]
	str	r0, [r4, ip, asl #2]
	ldr	r2, [r7]
	cmp	r1, r2
	ldmccfd	sp, {r4, r5, r6, r7, r8, r9, fp, sp, pc}
	add	ip, r4, r2, lsl #2
	mov	r0, r2
	b	.L791
.L789:
	cmp	r1, r2
	str	r3, [r4, r0, asl #2]
	add	r0, r0, #1
	bcc	.L798
.L791:
	ldr	r3, [ip], #4
	add	r2, r2, #1
	cmp	r3, #0
	beq	.L789
	ldr	lr, [r3, #4]
	ldr	lr, [lr, #56]
	cmp	lr, r5
	bne	.L789
	ldr	lr, [r3, #20]
	cmp	lr, r6
	bne	.L789
	cmp	r1, r2
	bcs	.L791
.L798:
	ldmfd	sp, {r4, r5, r6, r7, r8, r9, fp, sp, pc}
	UNWIND(.fnend)
	.size	mvc_reorder_interview, .-mvc_reorder_interview
	.align	2
	.global	MVC_ReorderRefPiclist
	.type	MVC_ReorderRefPiclist, %function
MVC_ReorderRefPiclist:
	UNWIND(.fnstart)
	@ args = 0, pretend = 0, frame = 56
	@ frame_needed = 1, uses_anonymous_args = 0
	UNWIND(.movsp ip)
	mov	ip, sp
	stmfd	sp!, {r4, r5, r6, r7, r8, r9, r10, fp, ip, lr, pc}
	UNWIND(.pad #4)
	UNWIND(.save {r4, r5, r6, r7, r8, r9, r10, fp, ip, lr})
	UNWIND(.setfp fp, ip, #-4)
	sub	fp, ip, #4
	UNWIND(.pad #68)
	sub	sp, sp, #68
	add	r9, r0, #11075584
	add	r9, r9, #40960
	str	r2, [fp, #-64]
	mov	r2, #0
	mov	r5, r0
	ldrb	r3, [r9, #1065]	@ zero_extendqisi2
	mov	r10, r1
	str	r2, [fp, #-48]
	cmp	r3, r2
	beq	.L800
	ldrb	r3, [r9, #1066]	@ zero_extendqisi2
	cmp	r3, r2
	movne	r3, #2
	moveq	r3, #1
.L800:
	cmp	r10, #1
	bls	.L849
.L799:
	sub	sp, fp, #40
	ldmfd	sp, {r4, r5, r6, r7, r8, r9, r10, fp, sp, pc}
.L849:
	ldr	r0, [r5, #236]
	cmp	r10, #0
	movweq	r1, #40976
	movweq	r8, #41240
	movweq	r2, #41504
	movweq	r7, #41760
	movwne	r1, #41108
	movwne	r8, #41372
	movwne	r2, #41632
	movwne	r7, #41892
	cmp	r3, #0
	ldr	r3, [r0, #2896]
	movt	r2, 169
	add	r2, r5, r2
	add	r3, r3, #4
	str	r2, [fp, #-100]
	mov	r2, #1
	movt	r1, 169
	mov	r3, r2, asl r3
	str	r3, [fp, #-88]
	ldr	r3, [r9, #1092]
	movt	r8, 169
	ldrne	r2, [fp, #-88]
	movt	r7, 169
	add	r1, r5, r1
	add	r8, r5, r8
	movne	r3, r3, asl #1
	add	r7, r5, r7
	addne	r3, r3, #1
	str	r3, [fp, #-92]
	ldr	r3, [fp, #-64]
	movne	r2, r2, asl #1
	strne	r2, [fp, #-88]
	adds	r3, r3, #2
	str	r3, [fp, #-72]
	beq	.L799
	ldr	r2, [r1]
	cmp	r2, #3
	beq	.L799
	movw	r3, #22868
	str	r9, [fp, #-68]
	mov	r0, r3
	mov	r3, #0
	mov	r4, r3
	str	r3, [fp, #-76]
	str	r3, [fp, #-80]
	mov	r6, r3
	ldr	r3, [fp, #-92]
	movt	r0, 164
	mov	r9, r1
	add	r0, r5, r0
	str	r0, [fp, #-96]
	str	r3, [fp, #-60]
	mov	r3, #1
	str	r3, [fp, #-84]
	b	.L807
.L808:
	cmp	r2, #2
	beq	.L850
	ldr	r3, [fp, #-84]
	cmp	r3, #1
	beq	.L814
	ldr	r3, [fp, #-68]
	ldrb	r3, [r3, #1073]	@ zero_extendqisi2
	str	r3, [fp, #-56]
	mov	r3, r10, asl #1
.L815:
	cmp	r2, #4
	ldr	r2, [r7]
	beq	.L851
	add	r2, r2, #1
	add	r4, r2, r4
	ldr	r2, [fp, #-76]
	cmp	r2, r4
	rsble	r4, r2, r4
.L825:
	ldr	r2, [fp, #-56]
	add	r0, r5, #11141120
	add	r0, r0, #16384
	ldr	r1, [fp, #-64]
	cmp	r2, #0
	ldr	r2, [fp, #-80]
	add	r3, r3, r2
	movwne	r2, #5722
	add	r3, r3, r4
	movweq	r2, #5730
	movt	r2, 41
	add	r2, r3, r2
	add	r2, r5, r2, lsl #2
	ldr	r3, [r2, #4]
	sub	r2, fp, #48
	str	r10, [sp, #4]
	ldr	ip, [r0, #60]
	mov	r0, r5
	str	ip, [sp]
	bl	mvc_reorder_interview
.L812:
	ldr	r3, [fp, #-72]
	add	r6, r6, #1
	cmp	r6, r3
	beq	.L799
	ldr	r2, [r9, #4]!
	add	r7, r7, #4
	add	r8, r8, #4
	cmp	r2, #3
	beq	.L799
.L807:
	cmp	r2, #1
	bhi	.L808
	cmp	r2, #0
	ldr	r3, [r8]
	bne	.L809
	ldr	r2, [fp, #-60]
	mvn	r3, r3
	adds	r3, r2, r3
	str	r3, [fp, #-60]
	bmi	.L852
.L810:
	ldr	r2, [fp, #-60]
	mov	r1, r10
	ldr	r3, [fp, #-92]
	mov	r0, r5
	cmp	r3, r2
	movlt	r3, r2
	ldrlt	r2, [fp, #-88]
	ldrge	r3, [fp, #-60]
	rsblt	r3, r2, r3
	ldr	r2, [fp, #-68]
	ldr	ip, [r2, #2704]
	sub	r2, fp, #48
	str	r2, [sp]
	ldr	r2, [fp, #-64]
	str	ip, [sp, #4]
	bl	MVC_ReorderSTList
	b	.L812
.L851:
	mvn	r2, r2
	adds	r4, r2, r4
	ldrmi	r2, [fp, #-76]
	addmi	r4, r4, r2
	b	.L825
.L814:
	ldr	r1, [fp, #-68]
	add	r3, r5, #10747904
	add	r3, r3, #20480
	ldr	r0, [r1, #2704]
	ldr	r1, [r3, #2384]
	adds	r1, r1, #1
	beq	.L816
	ldr	r3, [r3, #2388]
	cmp	r0, r3
	beq	.L817
	ldr	ip, [fp, #-96]
	mov	r3, #0
	str	r1, [fp, #-80]
	b	.L818
.L820:
	ldr	lr, [ip, #4]!
	cmp	r0, lr
	beq	.L834
.L818:
	add	r3, r3, #1
	cmp	r3, r1
	bne	.L820
.L819:
	ldr	r3, [fp, #-68]
	mov	r4, r1
	ldr	ip, [fp, #-96]
	ldrb	r3, [r3, #1073]	@ zero_extendqisi2
	str	r3, [fp, #-56]
	mov	r3, #0
	b	.L830
.L822:
	ldr	lr, [ip, #4]!
	cmp	r0, lr
	beq	.L835
.L830:
	add	r3, r3, #1
	cmp	r3, r1
	bne	.L822
	cmp	r4, #0
	blt	.L836
.L829:
	ldr	r3, [fp, #-56]
	cmp	r3, #0
	mov	r3, r10, asl #1
	beq	.L823
	add	r4, r3, r4
	movw	r1, #5718
	movt	r1, 41
	add	r1, r4, r1
	mov	r0, #0
	str	r0, [fp, #-84]
	add	r1, r5, r1, lsl #2
	mvn	r4, #0
	ldr	r1, [r1, #4]
	str	r1, [fp, #-76]
	b	.L815
.L809:
	ldr	r2, [fp, #-60]
	add	r3, r3, #1
	add	r3, r2, r3
	ldr	r2, [fp, #-88]
	str	r3, [fp, #-60]
	cmp	r2, r3
	rsble	r3, r2, r3
	strle	r3, [fp, #-60]
	b	.L810
.L850:
	ldr	r1, [fp, #-68]
	sub	r0, fp, #48
	ldr	r3, [fp, #-100]
	ldr	r2, [fp, #-64]
	ldr	ip, [r1, #2704]
	mov	r1, r10
	ldr	r3, [r3, r6, asl #2]
	str	r0, [sp]
	mov	r0, r5
	str	ip, [sp, #4]
	bl	MVC_ReorderLTList
	b	.L812
.L834:
	str	r3, [fp, #-80]
	b	.L819
.L835:
	mov	r4, r3
	cmp	r4, #0
	bge	.L829
.L836:
	mov	r3, #0
	mvn	r4, #0
	mov	r1, r3
	str	r3, [fp, #-84]
	str	r1, [fp, #-76]
	mov	r3, r10, asl #1
	b	.L815
.L823:
	add	r4, r3, r4
	movw	r1, #5726
	movt	r1, 41
	add	r1, r4, r1
	ldr	r0, [fp, #-56]
	mvn	r4, #0
	add	r1, r5, r1, lsl #2
	str	r0, [fp, #-84]
	ldr	r1, [r1, #4]
	str	r1, [fp, #-76]
	b	.L815
.L852:
	ldr	r2, [fp, #-88]
	add	r3, r3, r2
	str	r3, [fp, #-60]
	b	.L810
.L816:
	ldr	r3, [fp, #-68]
	mov	r4, r1
	str	r1, [fp, #-80]
	ldrb	r3, [r3, #1073]	@ zero_extendqisi2
	str	r3, [fp, #-56]
	b	.L829
.L817:
	ldr	r1, [fp, #-68]
	mov	r3, #0
	mov	r4, r3
	str	r3, [fp, #-80]
	ldrb	r1, [r1, #1073]	@ zero_extendqisi2
	str	r1, [fp, #-56]
	b	.L829
	UNWIND(.fnend)
	.size	MVC_ReorderRefPiclist, .-MVC_ReorderRefPiclist
	.align	2
	.global	MVC_ReorderListX
	.type	MVC_ReorderListX, %function
MVC_ReorderListX:
	UNWIND(.fnstart)
	@ args = 0, pretend = 0, frame = 0
	@ frame_needed = 1, uses_anonymous_args = 0
	UNWIND(.movsp ip)
	mov	ip, sp
	stmfd	sp!, {r4, r5, r6, r7, fp, ip, lr, pc}
	UNWIND(.pad #4)
	UNWIND(.save {r4, r5, r6, r7, fp, ip, lr})
	UNWIND(.setfp fp, ip, #-4)
	sub	fp, ip, #4
	add	r5, r0, #11075584
	mov	r6, r0
	add	r4, r5, #40960
	ldrb	r1, [r4, #1064]	@ zero_extendqisi2
	cmp	r1, #2
	ldmeqfd	sp, {r4, r5, r6, r7, fp, sp, pc}
	ldrb	r3, [r4, #12]	@ zero_extendqisi2
	cmp	r3, #0
	bne	.L865
.L856:
	ldr	r3, [r4, #1124]
	cmp	r1, #1
	add	r3, r3, #1
	str	r3, [r4, #1112]
	ldmnefd	sp, {r4, r5, r6, r7, fp, sp, pc}
	ldrb	r3, [r4, #13]	@ zero_extendqisi2
	cmp	r3, #0
	bne	.L866
.L858:
	add	r5, r5, #40960
	ldr	r3, [r5, #1128]
	add	r3, r3, #1
	str	r3, [r5, #1116]
	ldmfd	sp, {r4, r5, r6, r7, fp, sp, pc}
.L865:
	mov	r1, #0
	ldr	r2, [r4, #1124]
	bl	MVC_ReorderRefPiclist
	ldrb	r1, [r4, #1064]	@ zero_extendqisi2
	b	.L856
.L866:
	ldr	r2, [r4, #1128]
	mov	r0, r6
	bl	MVC_ReorderRefPiclist
	b	.L858
	UNWIND(.fnend)
	.size	MVC_ReorderListX, .-MVC_ReorderListX
	.align	2
	.global	MVC_GenPiclistfromFrmlist
	.type	MVC_GenPiclistfromFrmlist, %function
MVC_GenPiclistfromFrmlist:
	UNWIND(.fnstart)
	@ args = 8, pretend = 0, frame = 8
	@ frame_needed = 1, uses_anonymous_args = 0
	UNWIND(.movsp ip)
	mov	ip, sp
	stmfd	sp!, {r4, r5, r6, r7, r8, r9, r10, fp, ip, lr, pc}
	UNWIND(.pad #4)
	UNWIND(.save {r4, r5, r6, r7, r8, r9, r10, fp, ip, lr})
	UNWIND(.setfp fp, ip, #-4)
	sub	fp, ip, #4
	UNWIND(.pad #12)
	sub	sp, sp, #12
	cmp	r2, #31
	ldr	r6, [fp, #8]
	mov	r7, r1
	ldr	lr, .L930
	movcc	r4, r2
	ldr	ip, .L930+4
	movcs	r4, #31
	cmp	r6, #0
	str	r3, [fp, #-52]
	movne	r6, lr
	moveq	r6, ip
	cmp	r0, #1
	moveq	r5, #0
	moveq	r10, r5
	beq	.L870
	cmp	r0, #2
	moveq	r5, #0
	moveq	r10, r5
	bne	.L878
.L879:
	cmp	r10, r4
	movcs	r3, #0
	movcc	r3, #1
	cmp	r5, r4
	str	r3, [fp, #-48]
	movcs	r2, #0
	movcc	r2, #1
	orrs	r3, r2, r3
	beq	.L878
	cmp	r2, #0
	beq	.L884
	add	r8, r7, r5, lsl #2
	b	.L883
.L880:
	add	r5, r5, #1
	cmp	r4, r5
	bls	.L884
.L883:
	mov	r9, r8
	ldr	r0, [r8], #4
	ldrb	ip, [r0, #2]	@ zero_extendqisi2
	tst	ip, #2
	beq	.L880
	add	r0, r0, #784
	blx	r6
	cmp	r0, #0
	beq	.L880
	ldr	r3, [fp, #4]
	add	r5, r5, #1
	ldr	r2, [r9]
	ldr	r0, [r3]
	add	r2, r2, #784
	ldr	r3, [fp, #-52]
	str	r2, [r3, r0, asl #2]
	ldr	r3, [fp, #4]
	ldr	r2, [r3]
	add	r2, r2, #1
	str	r2, [r3]
.L884:
	ldr	r3, [fp, #-48]
	cmp	r3, #0
	addne	r8, r7, r10, lsl #2
	bne	.L886
	b	.L879
.L885:
	add	r10, r10, #1
	cmp	r4, r10
	bls	.L879
.L886:
	mov	r9, r8
	ldr	r0, [r8], #4
	ldrb	r1, [r0, #2]	@ zero_extendqisi2
	tst	r1, #1
	beq	.L885
	add	r0, r0, #748
	blx	r6
	cmp	r0, #0
	beq	.L885
	ldr	r3, [fp, #4]
	add	r10, r10, #1
	ldr	r2, [r9]
	ldr	r1, [r3]
	add	r2, r2, #748
	ldr	r3, [fp, #-52]
	str	r2, [r3, r1, asl #2]
	ldr	r3, [fp, #4]
	ldr	r2, [r3]
	add	r2, r2, #1
	str	r2, [r3]
	b	.L879
.L929:
	add	r0, r0, #748
	blx	r6
	cmp	r0, #0
	beq	.L871
	ldr	r3, [fp, #4]
	add	r10, r10, #1
	ldr	r2, [r8]
	ldr	r0, [r3]
	add	r2, r2, #748
	ldr	r3, [fp, #-52]
	str	r2, [r3, r0, asl #2]
	ldr	r3, [fp, #4]
	ldr	r2, [r3]
	add	r2, r2, #1
	str	r2, [r3]
.L875:
	ldr	r3, [fp, #-48]
	cmp	r3, #0
	addne	r8, r7, r5, lsl #2
	bne	.L877
	b	.L870
.L876:
	add	r5, r5, #1
	cmp	r4, r5
	bls	.L870
.L877:
	mov	r9, r8
	ldr	r0, [r8], #4
	ldrb	r1, [r0, #2]	@ zero_extendqisi2
	tst	r1, #2
	beq	.L876
	add	r0, r0, #784
	blx	r6
	cmp	r0, #0
	beq	.L876
	ldr	r3, [fp, #4]
	add	r5, r5, #1
	ldr	r2, [r9]
	ldr	r1, [r3]
	add	r2, r2, #784
	ldr	r3, [fp, #-52]
	str	r2, [r3, r1, asl #2]
	ldr	r3, [fp, #4]
	ldr	r2, [r3]
	add	r2, r2, #1
	str	r2, [r3]
.L870:
	cmp	r10, r4
	movcs	r2, #0
	movcc	r2, #1
	cmp	r5, r4
	movcs	r3, #0
	movcc	r3, #1
	str	r3, [fp, #-48]
	orrs	r3, r3, r2
	beq	.L878
	cmp	r2, #0
	beq	.L875
	add	r9, r7, r10, lsl #2
	b	.L874
.L871:
	add	r10, r10, #1
	cmp	r4, r10
	bls	.L875
.L874:
	mov	r8, r9
	ldr	r0, [r9], #4
	ldrb	ip, [r0, #2]	@ zero_extendqisi2
	tst	ip, #1
	beq	.L871
	b	.L929
.L878:
	mov	r0, #0
	sub	sp, fp, #40
	ldmfd	sp, {r4, r5, r6, r7, r8, r9, r10, fp, sp, pc}
.L931:
	.align	2
.L930:
	.word	MVC_IsLTRefFlg
	.word	MVC_IsSTRefFlg
	UNWIND(.fnend)
	.size	MVC_GenPiclistfromFrmlist, .-MVC_GenPiclistfromFrmlist
	.align	2
	.global	MVC_GetBaseViewId
	.type	MVC_GetBaseViewId, %function
MVC_GetBaseViewId:
	UNWIND(.fnstart)
	@ args = 0, pretend = 0, frame = 0
	@ frame_needed = 1, uses_anonymous_args = 0
	UNWIND(.movsp ip)
	mov	ip, sp
	stmfd	sp!, {fp, ip, lr, pc}
	UNWIND(.pad #4)
	UNWIND(.save {fp, ip, lr})
	UNWIND(.setfp fp, ip, #-4)
	sub	fp, ip, #4
	add	r3, r0, #12992
	mov	r2, #0
	add	r3, r3, #16
.L935:
	ldr	r1, [r3]
	cmp	r1, #0
	beq	.L933
	ldrb	r1, [r3, #-4]	@ zero_extendqisi2
	cmp	r1, #0
	bne	.L943
.L933:
	add	r2, r2, #1
	add	r3, r3, #335872
	cmp	r2, #32
	add	r3, r3, #308
	bne	.L935
	mvn	r0, #0
	ldmfd	sp, {fp, sp, pc}
.L943:
	movw	r3, #8500
	movt	r3, 5
	mla	r2, r3, r2, r0
	add	r2, r2, #12992
	ldr	r0, [r2, #20]
	ldmfd	sp, {fp, sp, pc}
	UNWIND(.fnend)
	.size	MVC_GetBaseViewId, .-MVC_GetBaseViewId
	.align	2
	.global	MVC_GetVOIdx
	.type	MVC_GetVOIdx, %function
MVC_GetVOIdx:
	UNWIND(.fnstart)
	@ args = 0, pretend = 0, frame = 0
	@ frame_needed = 1, uses_anonymous_args = 0
	UNWIND(.movsp ip)
	mov	ip, sp
	stmfd	sp!, {fp, ip, lr, pc}
	UNWIND(.pad #4)
	UNWIND(.save {fp, ip, lr})
	UNWIND(.setfp fp, ip, #-4)
	sub	fp, ip, #4
	cmp	r1, #0
	beq	.L948
	ldr	r3, [r0]
	cmp	r3, r2
	beq	.L949
	mov	ip, r0
	mov	r3, #0
	mov	r0, r1
	b	.L946
.L947:
	ldr	lr, [ip, #4]!
	cmp	lr, r2
	beq	.L950
.L946:
	add	r3, r3, #1
	cmp	r3, r1
	bne	.L947
	ldmfd	sp, {fp, sp, pc}
.L950:
	mov	r0, r3
	ldmfd	sp, {fp, sp, pc}
.L948:
	mov	r0, r1
	ldmfd	sp, {fp, sp, pc}
.L949:
	mov	r0, #0
	ldmfd	sp, {fp, sp, pc}
	UNWIND(.fnend)
	.size	MVC_GetVOIdx, .-MVC_GetVOIdx
	.align	2
	.global	MVC_is_view_id_in_ref_view_list
	.type	MVC_is_view_id_in_ref_view_list, %function
MVC_is_view_id_in_ref_view_list:
	UNWIND(.fnstart)
	@ args = 0, pretend = 0, frame = 0
	@ frame_needed = 1, uses_anonymous_args = 0
	UNWIND(.movsp ip)
	mov	ip, sp
	stmfd	sp!, {fp, ip, lr, pc}
	UNWIND(.pad #4)
	UNWIND(.save {fp, ip, lr})
	UNWIND(.setfp fp, ip, #-4)
	sub	fp, ip, #4
	cmp	r2, #0
	beq	.L955
	ldr	r3, [r1]
	cmp	r3, r0
	beq	.L956
	mov	r3, #0
	b	.L953
.L954:
	ldr	ip, [r1, #4]!
	cmp	ip, r0
	beq	.L952
.L953:
	add	r3, r3, #1
	cmp	r3, r2
	mov	lr, r3
	bne	.L954
.L952:
	cmp	r2, #0
	cmpne	r2, lr
	movhi	r0, #1
	movls	r0, #0
	ldmfd	sp, {fp, sp, pc}
.L955:
	mov	lr, r2
	b	.L952
.L956:
	mov	lr, #0
	b	.L952
	UNWIND(.fnend)
	.size	MVC_is_view_id_in_ref_view_list, .-MVC_is_view_id_in_ref_view_list
	.align	2
	.global	MVC_GenPiclistfromFrmlist_Interview
	.type	MVC_GenPiclistfromFrmlist_Interview, %function
MVC_GenPiclistfromFrmlist_Interview:
	UNWIND(.fnstart)
	@ args = 4, pretend = 0, frame = 0
	@ frame_needed = 1, uses_anonymous_args = 0
	UNWIND(.movsp ip)
	mov	ip, sp
	stmfd	sp!, {fp, ip, lr, pc}
	UNWIND(.pad #4)
	UNWIND(.save {fp, ip, lr})
	UNWIND(.setfp fp, ip, #-4)
	sub	fp, ip, #4
	cmp	r0, #1
	ldr	ip, [fp, #4]
	beq	.L973
	cmp	r0, #2
	ldmnefd	sp, {fp, sp, pc}
	cmp	r2, #0
	ldmeqfd	sp, {fp, sp, pc}
	ldr	r0, [ip]
	add	r1, r1, #784
	mov	lr, #0
.L964:
	add	lr, lr, #1
	str	r1, [r3, r0, asl #2]
	cmp	lr, r2
	ldr	r0, [ip]
	add	r1, r1, #824
	add	r0, r0, #1
	str	r0, [ip]
	bne	.L964
	ldmfd	sp, {fp, sp, pc}
.L973:
	cmp	r2, #0
	ldmeqfd	sp, {fp, sp, pc}
	ldr	r0, [ip]
	add	r1, r1, #748
	mov	lr, #0
.L960:
	add	lr, lr, #1
	str	r1, [r3, r0, asl #2]
	cmp	lr, r2
	ldr	r0, [ip]
	add	r1, r1, #824
	add	r0, r0, #1
	str	r0, [ip]
	bne	.L960
	ldmfd	sp, {fp, sp, pc}
	UNWIND(.fnend)
	.size	MVC_GenPiclistfromFrmlist_Interview, .-MVC_GenPiclistfromFrmlist_Interview
	.align	2
	.global	mvc_append_interview_list
	.type	mvc_append_interview_list, %function
mvc_append_interview_list:
	UNWIND(.fnstart)
	@ args = 0, pretend = 0, frame = 16
	@ frame_needed = 1, uses_anonymous_args = 0
	UNWIND(.movsp ip)
	mov	ip, sp
	stmfd	sp!, {r4, r5, r6, r7, r8, r9, r10, fp, ip, lr, pc}
	UNWIND(.pad #4)
	UNWIND(.save {r4, r5, r6, r7, r8, r9, r10, fp, ip, lr})
	UNWIND(.setfp fp, ip, #-4)
	sub	fp, ip, #4
	UNWIND(.pad #20)
	sub	sp, sp, #20
	add	lr, r0, #10747904
	add	lr, lr, #20480
	add	ip, r0, #11075584
	add	r4, ip, #40960
	mov	r10, r0
	ldr	r5, [lr, #2384]
	movw	r0, #22868
	movt	r0, 164
	str	r2, [fp, #-48]
	adds	r5, r5, #1
	str	r3, [fp, #-52]
	ldr	r6, [r4, #2704]
	add	r0, r10, r0
	beq	.L993
	ldr	r3, [lr, #2388]
	cmp	r6, r3
	beq	.L994
	mov	r2, r0
	mov	r3, #0
	b	.L976
.L977:
	ldr	r0, [r2, #4]!
	cmp	r6, r0
	beq	.L975
.L976:
	add	r3, r3, #1
	cmp	r3, r5
	mov	lr, r3
	bne	.L977
.L975:
	ldrb	r3, [r4, #1073]	@ zero_extendqisi2
	add	lr, lr, r1, lsl #1
	add	r8, r10, #11141120
	add	ip, ip, #45056
	cmp	r3, #0
	add	r6, r8, #12288
	movwne	r3, #5718
	movweq	r3, #5726
	movtne	r3, 41
	movteq	r3, 41
	addne	r3, lr, r3
	addeq	r3, lr, r3
	ldrb	r2, [r6, #3483]	@ zero_extendqisi2
	addne	lr, r10, lr, lsl #2
	add	r3, r10, r3, lsl #2
	movwne	r9, #22892
	sub	r2, r2, #2
	addeq	lr, r10, lr, lsl #2
	ldr	r7, [r3, #4]
	movweq	r9, #22924
	ldr	r3, [ip, #2920]
	clz	r2, r2
	movt	r9, 164
	add	r9, lr, r9
	subs	r4, r3, #1
	mov	r2, r2, lsr #5
	bmi	.L974
	movw	r5, #28330
	str	r10, [fp, #-56]
	movt	r5, 42
	add	r5, r3, r5
	add	r8, r8, #16384
	add	r5, r10, r5, lsl #2
	mov	r10, r2
	b	.L991
.L1017:
	ldrb	r3, [r1, #2]	@ zero_extendqisi2
	cmp	r3, #3
	ldreq	r2, [r1, #732]
	bne	.L981
.L983:
	add	r3, r1, r10
	ldrb	r3, [r3, #12]	@ zero_extendqisi2
	cmp	r3, #0
	beq	.L981
	ldr	r3, [r8, #60]
	cmp	r3, r2
	beq	.L1016
.L981:
	subs	r4, r4, #1
	bmi	.L974
.L991:
	ldr	r1, [r5, #-4]!
	cmp	r1, #0
	beq	.L981
	ldrb	r3, [r6, #3483]	@ zero_extendqisi2
	cmp	r3, #0
	beq	.L1017
	cmp	r3, #1
	beq	.L1018
	cmp	r3, #2
	bne	.L981
	ldrb	r2, [r6, #3481]	@ zero_extendqisi2
	ldrb	r3, [r1, #2]	@ zero_extendqisi2
	cmp	r2, #0
	ubfx	r3, r3, #1, #1
	beq	.L986
	ldr	r2, [r8, #40]
	ldr	r0, [r1, #768]
	ldr	r2, [r2, #768]
	cmp	r0, r2
	movne	r3, #0
	andeq	r3, r3, #1
.L986:
	cmp	r3, #0
	ldrne	r2, [r1, #804]
	bne	.L983
	subs	r4, r4, #1
	bpl	.L991
.L974:
	sub	sp, fp, #40
	ldmfd	sp, {r4, r5, r6, r7, r8, r9, r10, fp, sp, pc}
.L1018:
	ldrb	r2, [r6, #3481]	@ zero_extendqisi2
	ldrb	r3, [r1, #2]	@ zero_extendqisi2
	cmp	r2, #0
	and	r3, r3, #1
	beq	.L985
	ldr	r2, [r8, #40]
	ldr	r0, [r1, #804]
	ldr	r2, [r2, #804]
	cmp	r0, r2
	movne	r3, #0
	andeq	r3, r3, #1
.L985:
	cmp	r3, #0
	ldrne	r2, [r1, #768]
	bne	.L983
	b	.L981
.L1016:
	cmp	r7, #0
	ldr	ip, [r1, #56]
	beq	.L981
	ldr	r3, [r9]
	cmp	ip, r3
	beq	.L987
	mov	r2, r9
	mov	r3, #0
.L988:
	add	r3, r3, #1
	cmp	r3, r7
	beq	.L981
	ldr	r0, [r2, #4]!
	cmp	ip, r0
	bne	.L988
.L987:
	ldr	r3, [fp, #-52]
	mov	r2, #824
	ldr	ip, .L1019
	ldr	r0, [r3]
	ldr	r3, [ip, #52]
	ldr	ip, [fp, #-48]
	mla	r0, r2, r0, ip
	blx	r3
	ldr	r0, [fp, #-52]
	ldr	ip, [fp, #-48]
	mov	r2, #824
	ldr	r3, [r0]
	mla	r3, r2, r3, ip
	ldr	r2, [fp, #-56]
	str	r3, [r3, #788]
	str	r3, [r3, #752]
	str	r3, [r3, #716]
	ldr	r3, [r0]
	ldr	r1, [r2, #52]
	mov	r2, #824
	mla	r2, r2, r3, ip
	sub	r3, r1, #1
	str	r3, [r2, #48]
	ldr	r3, [r0]
	cmp	r3, r7
	beq	.L974
	add	r3, r3, #1
	mov	r2, r0
	str	r3, [r0]
	b	.L981
.L993:
	mov	lr, r5
	b	.L975
.L994:
	mov	lr, #0
	b	.L975
.L1020:
	.align	2
.L1019:
	.word	vfmw_Osal_Func_Ptr_S
	UNWIND(.fnend)
	.size	mvc_append_interview_list, .-mvc_append_interview_list
	.align	2
	.global	MVC_InitListX
	.type	MVC_InitListX, %function
MVC_InitListX:
	UNWIND(.fnstart)
	@ args = 0, pretend = 0, frame = 208
	@ frame_needed = 1, uses_anonymous_args = 0
	UNWIND(.movsp ip)
	mov	ip, sp
	stmfd	sp!, {r4, r5, r6, r7, r8, r9, r10, fp, ip, lr, pc}
	UNWIND(.pad #4)
	UNWIND(.save {r4, r5, r6, r7, r8, r9, r10, fp, ip, lr})
	UNWIND(.setfp fp, ip, #-4)
	sub	fp, ip, #4
	UNWIND(.pad #220)
	sub	sp, sp, #220
	add	r2, r0, #11075584
	add	r4, r2, #40960
	mov	r3, #0
	mov	r5, r0
	add	r9, r0, #11141120
	ldrb	r7, [r4, #1064]	@ zero_extendqisi2
	str	r3, [r4, #2716]
	cmp	r7, r3
	str	r3, [r4, #2712]
	bne	.L1022
	add	r3, r9, #12288
	str	r3, [fp, #-240]
	ldrb	r6, [r3, #3483]	@ zero_extendqisi2
	add	r3, r2, #45056
	str	r3, [fp, #-244]
	cmp	r6, #0
	bne	.L1180
	ldr	ip, [r3, #2928]
	cmp	ip, #0
	beq	.L1106
	movw	r1, #47844
	mov	r3, r6
	movt	r1, 169
	add	r1, r0, r1
	b	.L1028
.L1027:
	cmp	r3, ip
	beq	.L1026
.L1028:
	ldr	r2, [r1, #4]!
	add	r3, r3, #1
	ldrb	r0, [r2, #3]	@ zero_extendqisi2
	cmp	r0, #3
	bne	.L1027
	ldr	r0, [r2, #712]
	bic	r0, r0, #-16777216
	bic	r0, r0, #255
	cmp	r0, #65536
	addeq	r0, r6, #64
	addeq	r2, r2, #712
	addeq	r6, r6, #1
	streq	r2, [r5, r0, asl #2]
	cmp	r3, ip
	bne	.L1028
.L1026:
	add	r3, r5, #256
	mov	r1, r6
	str	r3, [fp, #-248]
	mov	r2, #4
	mov	r0, r3
	ldr	r3, .L1190
	bl	qsort
	ldr	r3, [fp, #-244]
	str	r6, [r4, #1112]
	ldr	r1, [r3, #2932]
	cmp	r1, #0
	beq	.L1107
	movw	r0, #47908
	mov	r7, r6
	movt	r0, 169
	mov	r3, #0
	add	r0, r5, r0
	b	.L1031
.L1030:
	cmp	r3, r1
	beq	.L1181
.L1031:
	ldr	r2, [r0, #4]!
	add	r3, r3, #1
	ldrb	ip, [r2, #3]	@ zero_extendqisi2
	cmp	ip, #3
	bne	.L1030
	ldr	ip, [r2, #712]
	bic	ip, ip, #-16777216
	bic	ip, ip, #255
	cmp	ip, #256
	addeq	ip, r7, #64
	addeq	r2, r2, #712
	addeq	r7, r7, #1
	streq	r2, [r5, ip, asl #2]
	cmp	r3, r1
	bne	.L1031
.L1181:
	rsb	r1, r6, r7
.L1029:
	add	r0, r6, #64
	ldr	r3, .L1190+4
	mov	r2, #4
	add	r0, r5, r0, lsl #2
	bl	qsort
	str	r7, [r4, #1112]
	b	.L1032
.L1022:
	add	r1, r9, #12288
	str	r1, [fp, #-240]
	ldrb	r6, [r1, #3483]	@ zero_extendqisi2
	cmp	r6, #0
	beq	.L1049
	add	r2, r2, #45056
	str	r2, [fp, #-244]
	ldr	r10, [r2, #2928]
	cmp	r10, #0
	beq	.L1182
	movw	r7, #47844
	add	r8, r9, #16384
	movt	r7, 169
	add	r7, r0, r7
	mov	r6, r3
	mov	r1, r7
.L1068:
	ldr	r2, [r1, #4]!
	add	r3, r3, #1
	ldrb	r0, [r2, #2]	@ zero_extendqisi2
	cmp	r0, #0
	beq	.L1067
	sub	r0, fp, #44
	ldr	ip, [r8, #60]
	add	lr, r0, r6, lsl #2
	ldr	r0, [r2, #32]
	cmp	ip, r0
	strge	r2, [lr, #-192]
	addge	r6, r6, #1
.L1067:
	cmp	r3, r10
	bne	.L1068
	sub	r3, fp, #236
	mov	r2, #4
	str	r3, [fp, #-252]
	mov	r1, r6
	mov	r0, r3
	ldr	r3, .L1190+8
	bl	qsort
	ldr	r3, [fp, #-244]
	ldr	r8, [r3, #2928]
	cmp	r8, #0
	beq	.L1177
.L1104:
	add	r9, r9, #16384
	mov	r3, r7
	mov	r2, #0
	mov	r7, r6
.L1071:
	ldr	r1, [r3, #4]!
	add	r2, r2, #1
	ldrb	r0, [r1, #2]	@ zero_extendqisi2
	cmp	r0, #0
	beq	.L1070
	sub	r0, fp, #44
	ldr	ip, [r9, #60]
	add	lr, r0, r7, lsl #2
	ldr	r0, [r1, #32]
	cmp	ip, r0
	strlt	r1, [lr, #-192]
	addlt	r7, r7, #1
.L1070:
	cmp	r2, r8
	bne	.L1071
	ldr	r3, [fp, #-252]
	rsb	r8, r6, r7
	mov	r9, r6, asl #2
	mov	r2, #4
	add	r0, r3, r9
	mov	r1, r8
	ldr	r3, .L1190+12
	bl	qsort
	cmp	r6, #0
	subeq	r10, fp, #172
	beq	.L1072
.L1099:
	sub	r10, fp, #172
	ldr	r2, [fp, #-252]
	add	r8, r10, r8, lsl #2
	mov	r3, #0
.L1073:
	add	r3, r3, #1
	ldr	r1, [r2], #4
	cmp	r3, r6
	str	r1, [r8], #4
	bcc	.L1073
.L1072:
	cmp	r7, r6
	bls	.L1074
	ldr	r3, [fp, #-252]
	add	r9, r3, r9
	mov	r3, r10
.L1075:
	add	r6, r6, #1
	ldr	r2, [r9], #4
	cmp	r6, r7
	str	r2, [r3], #4
	bne	.L1075
.L1074:
	ldr	r8, [fp, #-240]
	movw	r9, #42072
	mov	r6, #0
	add	r3, r5, #256
	str	r6, [r4, #1112]
	mov	r2, r7
	str	r6, [r4, #1116]
	movt	r9, 169
	ldrb	r0, [r8, #3483]	@ zero_extendqisi2
	add	r9, r5, r9
	ldr	r1, [fp, #-252]
	str	r6, [sp, #4]
	str	r9, [sp]
	str	r3, [fp, #-248]
	bl	MVC_GenPiclistfromFrmlist
	ldrb	r0, [r8, #3483]	@ zero_extendqisi2
	movw	r8, #42076
	add	r3, r5, #388
	mov	r2, r7
	mov	r1, r10
	str	r6, [sp, #4]
	movt	r8, 169
	add	r8, r5, r8
	str	r8, [sp]
	str	r3, [fp, #-252]
	bl	MVC_GenPiclistfromFrmlist
	ldr	r3, [fp, #-244]
	ldr	r7, [r3, #2932]
	cmp	r7, r6
	subeq	r10, fp, #108
	beq	.L1076
	movw	r3, #47908
	sub	r10, fp, #108
	movt	r3, 169
	add	r3, r5, r3
	mov	r2, r10
.L1077:
	add	r6, r6, #1
	ldr	r1, [r3, #4]!
	cmp	r6, r7
	str	r1, [r2], #4
	bne	.L1077
.L1076:
	ldr	r3, .L1190+16
	mov	r2, #4
	mov	r1, r7
	mov	r0, r10
	bl	qsort
	ldr	r3, [fp, #-240]
	mov	r6, #1
	mov	r2, r7
	mov	r1, r10
	ldrb	r0, [r3, #3483]	@ zero_extendqisi2
	ldr	r3, [fp, #-248]
	str	r6, [sp, #4]
	str	r9, [sp]
	bl	MVC_GenPiclistfromFrmlist
	ldr	r3, [fp, #-240]
	mov	r2, r7
	mov	r1, r10
	ldrb	r0, [r3, #3483]	@ zero_extendqisi2
	str	r6, [sp, #4]
	ldr	r3, [fp, #-252]
	str	r8, [sp]
	bl	MVC_GenPiclistfromFrmlist
	ldr	r6, [r4, #1112]
	ldr	r3, [r4, #1116]
	rsb	r3, r3, r6
	clz	r3, r3
	mov	r3, r3, lsr #5
.L1066:
	cmp	r6, #1
	movls	r3, #0
	andhi	r3, r3, #1
	cmp	r3, #0
	beq	.L1078
	cmp	r6, #0
	beq	.L1079
	ldr	lr, [r5, #256]
	ldr	r3, [r5, #388]
	cmp	lr, r3
	bne	.L1078
	ldr	r1, [fp, #-248]
	add	r2, r5, #388
	mov	r3, #0
	b	.L1080
.L1081:
	ldr	ip, [r1, #4]!
	ldr	r0, [r2, #4]!
	cmp	ip, r0
	bne	.L1078
.L1080:
	add	r3, r3, #1
	cmp	r3, r6
	bne	.L1081
.L1082:
	ldr	r3, [r5, #392]
	str	lr, [r5, #392]
	str	r3, [r5, #388]
	ldrb	r3, [r4, #1076]	@ zero_extendqisi2
.L1100:
	cmp	r3, #0
	bne	.L1169
.L1083:
	movw	r6, #31360
	movw	r3, #43672
	movt	r6, 169
	add	r6, r5, r6
	mov	r0, r5
	movt	r3, 169
	mov	r1, #0
	add	r3, r5, r3
	mov	r2, r6
	bl	mvc_append_interview_list
	ldr	r3, [fp, #-240]
	ldrb	r0, [r3, #3483]	@ zero_extendqisi2
	cmp	r0, #0
	bne	.L1183
	ldr	r1, [r4, #2712]
	ldr	ip, [r4, #1112]
	cmp	r1, #0
	beq	.L1085
	add	r2, ip, #63
	movw	r3, #32072
	movt	r3, 169
	add	r3, r5, r3
	add	r2, r5, r2, lsl #2
.L1086:
	add	r0, r0, #1
	str	r3, [r2, #4]!
	cmp	r0, r1
	add	r3, r3, #824
	bne	.L1086
	add	ip, ip, r0
.L1085:
	str	ip, [r4, #1112]
.L1087:
	ldrb	r1, [r4, #1064]	@ zero_extendqisi2
	cmp	r1, #1
	beq	.L1184
.L1170:
	ldr	r0, [r4, #1112]
.L1084:
	cmp	r1, #0
	bne	.L1042
	cmp	r0, #0
	ldreq	r1, .L1190+20
	beq	.L1171
.L1041:
	ldr	r2, [r4, #1124]
	ldr	r3, [r4, #1128]
	add	r2, r2, #1
	ldr	r1, [r4, #1116]
	cmp	r0, r2
	add	r3, r3, #1
	movcc	r2, r0
	cmp	r3, r1
	str	r2, [r4, #1112]
	movcs	r3, r1
	cmp	r2, #32
	str	r3, [r4, #1116]
	bhi	.L1093
.L1101:
	add	r1, r2, #63
	mov	r0, #0
	add	r1, r5, r1, lsl #2
.L1094:
	add	r2, r2, #1
	str	r0, [r1, #4]!
	cmp	r2, #32
	bls	.L1094
.L1093:
	cmp	r3, #32
	bhi	.L1097
	add	r3, r3, #96
	add	r1, r5, #516
	mov	r2, #0
	add	r5, r5, r3, lsl #2
.L1096:
	str	r2, [r5, #4]!
	cmp	r5, r1
	bne	.L1096
.L1097:
	mov	r0, #0
.L1163:
	sub	sp, fp, #40
	ldmfd	sp, {r4, r5, r6, r7, r8, r9, r10, fp, sp, pc}
.L1049:
	add	r3, r2, #45056
	str	r3, [fp, #-244]
	ldr	r10, [r3, #2928]
	cmp	r10, #0
	beq	.L1052
	movw	r7, #47844
	add	lr, r9, #16384
	movt	r7, 169
	add	r7, r0, r7
	mov	r3, r6
	mov	r1, r7
	b	.L1054
.L1053:
	cmp	r3, r10
	beq	.L1185
.L1054:
	ldr	r2, [r1, #4]!
	add	r3, r3, #1
	ldrb	r0, [r2, #3]	@ zero_extendqisi2
	cmp	r0, #3
	bne	.L1053
	ldr	r0, [r2, #728]
	add	r8, r6, #64
	ldr	ip, [lr, #64]
	add	r2, r2, #712
	cmp	ip, r0
	strge	r2, [r5, r8, asl #2]
	addge	r6, r6, #1
	cmp	r3, r10
	bne	.L1054
.L1185:
	add	r3, r5, #256
	mov	r2, #4
	str	r3, [fp, #-248]
	mov	r1, r6
	mov	r0, r3
	ldr	r3, .L1190+24
	bl	qsort
	ldr	r3, [fp, #-244]
	ldr	r8, [r3, #2928]
	cmp	r8, #0
	beq	.L1176
.L1102:
	add	r9, r9, #16384
	mov	r10, r6
	mov	r3, #0
	b	.L1057
.L1056:
	cmp	r3, r8
	beq	.L1186
.L1057:
	ldr	r2, [r7, #4]!
	add	r3, r3, #1
	ldrb	r1, [r2, #3]	@ zero_extendqisi2
	cmp	r1, #3
	bne	.L1056
	ldr	r1, [r2, #728]
	add	ip, r10, #64
	ldr	r0, [r9, #64]
	add	r2, r2, #712
	cmp	r0, r1
	strlt	r2, [r5, ip, asl #2]
	addlt	r10, r10, #1
	cmp	r3, r8
	bne	.L1057
.L1186:
	rsb	r8, r6, r10
	add	r0, r6, #64
	ldr	r3, .L1190+28
	mov	r2, #4
	mov	r1, r8
	add	r0, r5, r0, lsl #2
	bl	qsort
	add	r7, r10, #64
	cmp	r6, #0
	add	r7, r5, r7, lsl #2
	beq	.L1059
.L1098:
	add	r8, r8, #96
	add	r2, r5, #252
	mov	r3, #0
	add	r8, r5, r8, lsl #2
.L1060:
	add	r3, r3, #1
	ldr	r1, [r2, #4]!
	cmp	r3, r6
	str	r1, [r8, #4]!
	bcc	.L1060
.L1059:
	cmp	r10, r6
	bls	.L1061
	add	r3, r6, #63
	add	r2, r5, #384
	add	r3, r5, r3, lsl #2
.L1062:
	add	r6, r6, #1
	ldr	r1, [r3, #4]!
	cmp	r6, r10
	str	r1, [r2, #4]!
	bne	.L1062
.L1061:
	ldr	r3, [fp, #-244]
	str	r10, [r4, #1116]
	str	r10, [r4, #1112]
	ldr	r1, [r3, #2932]
	cmp	r1, #0
	beq	.L1108
	movw	r0, #47908
	mov	r6, r10
	movt	r0, 169
	mov	r3, #0
	add	r0, r5, r0
	b	.L1065
.L1064:
	cmp	r3, r1
	beq	.L1187
.L1065:
	ldr	r2, [r0, #4]!
	add	r3, r3, #1
	ldrb	ip, [r2, #2]	@ zero_extendqisi2
	cmp	ip, #3
	bne	.L1064
	ldrb	ip, [r2, #713]	@ zero_extendqisi2
	cmp	ip, #1
	addeq	ip, r5, r6, lsl #2
	addeq	r2, r2, #712
	addeq	r6, r6, #1
	streq	r2, [ip, #256]
	streq	r2, [ip, #388]
	cmp	r3, r1
	bne	.L1065
.L1187:
	rsb	r1, r10, r6
.L1063:
	mov	r0, r7
	ldr	r3, .L1190+4
	mov	r2, #4
	bl	qsort
	ldr	r1, [r4, #1112]
	ldr	r3, .L1190+4
	mov	r2, #4
	add	r0, r1, #97
	rsb	r1, r1, r6
	add	r0, r5, r0, lsl #2
	bl	qsort
	str	r6, [r4, #1116]
	str	r6, [r4, #1112]
	mov	r3, #1
	b	.L1066
.L1180:
	ldr	lr, [r3, #2928]
	cmp	lr, #0
	moveq	r7, lr
	beq	.L1025
	movw	r1, #47844
	mov	r3, r7
	movt	r1, 169
	add	r1, r0, r1
.L1034:
	ldr	r2, [r1, #4]!
	sub	r0, fp, #44
	add	ip, r0, r7, lsl #2
	add	r3, r3, #1
	ldrb	r0, [r2, #3]	@ zero_extendqisi2
	cmp	r0, #0
	strne	r2, [ip, #-192]
	addne	r7, r7, #1
	cmp	r3, lr
	bne	.L1034
.L1025:
	mov	r1, r7
	ldr	r3, .L1190+32
	mov	r2, #4
	sub	r0, fp, #236
	bl	qsort
	ldr	r3, [fp, #-240]
	movw	r8, #42072
	mov	r6, #0
	mov	r2, r7
	str	r6, [r4, #1112]
	sub	r1, fp, #236
	ldrb	r0, [r3, #3483]	@ zero_extendqisi2
	movt	r8, 169
	add	r3, r5, #256
	str	r6, [sp, #4]
	add	r8, r5, r8
	str	r8, [sp]
	str	r3, [fp, #-248]
	bl	MVC_GenPiclistfromFrmlist
	ldr	r3, [fp, #-244]
	ldr	r7, [r3, #2932]
	cmp	r7, r6
	subeq	r10, fp, #108
	beq	.L1035
	movw	r3, #47908
	sub	r10, fp, #108
	movt	r3, 169
	add	r3, r5, r3
	mov	r2, r10
.L1036:
	add	r6, r6, #1
	ldr	r1, [r3, #4]!
	cmp	r6, r7
	str	r1, [r2], #4
	bne	.L1036
.L1035:
	ldr	r3, .L1190+16
	mov	r2, #4
	mov	r1, r7
	mov	r0, r10
	bl	qsort
	ldr	r3, [fp, #-240]
	mov	r2, r7
	mov	r1, r10
	ldrb	r0, [r3, #3483]	@ zero_extendqisi2
	mov	r3, #1
	str	r8, [sp]
	str	r3, [sp, #4]
	ldr	r3, [fp, #-248]
	bl	MVC_GenPiclistfromFrmlist
.L1032:
	ldrb	r3, [r4, #1076]	@ zero_extendqisi2
	mov	r2, #0
	str	r2, [r4, #1116]
	cmp	r3, r2
	beq	.L1083
	ldr	r0, [r4, #1112]
	cmp	r0, #0
	bne	.L1188
	ldr	r3, [r5, #224]
	ldr	r3, [r3, #24]
	cmp	r3, #2
	bne	.L1043
	ldr	r3, [fp, #-240]
	add	r9, r9, #16384
	ldrb	r3, [r3, #3483]	@ zero_extendqisi2
	cmp	r3, #0
	bne	.L1044
	ldr	r3, [r9, #40]
	add	r3, r3, #712
	str	r3, [r5, #256]
.L1045:
	mov	r3, #1
	str	r3, [r4, #1112]
.L1169:
	ldrb	r1, [r4, #1064]	@ zero_extendqisi2
	b	.L1170
.L1188:
	ldrb	r3, [r4, #1064]	@ zero_extendqisi2
	cmp	r3, #0
	beq	.L1041
.L1042:
	cmp	r0, #0
	bne	.L1041
	ldr	r1, [r4, #1116]
	cmp	r1, #0
	beq	.L1189
	ldr	r3, [r4, #1128]
	mov	r2, r0
	str	r0, [r4, #1112]
	add	r3, r3, #1
	cmp	r3, r1
	movcs	r3, r1
	str	r3, [r4, #1116]
	b	.L1101
.L1078:
	ldrb	r3, [r4, #1076]	@ zero_extendqisi2
	b	.L1100
.L1183:
	movw	ip, #42072
	ldr	r2, [r4, #2712]
	ldr	r3, [fp, #-248]
	mov	r1, r6
	movt	ip, 169
	add	ip, r5, ip
	str	ip, [sp]
	bl	MVC_GenPiclistfromFrmlist_Interview
	b	.L1087
.L1044:
	cmp	r3, #1
	ldr	r3, [r9, #40]
	addeq	r3, r3, #748
	addne	r3, r3, #784
	str	r3, [r5, #256]
	b	.L1045
.L1079:
	ldr	lr, [r5, #388]
	b	.L1082
.L1184:
	movw	r6, #33008
	movw	r3, #43676
	movt	r6, 169
	add	r6, r5, r6
	mov	r0, r5
	movt	r3, 169
	mov	r2, r6
	add	r3, r5, r3
	bl	mvc_append_interview_list
	ldr	r3, [fp, #-240]
	ldrb	r0, [r3, #3483]	@ zero_extendqisi2
	cmp	r0, #0
	bne	.L1089
	ldr	r1, [r4, #2716]
	ldr	ip, [r4, #1116]
	cmp	r1, #0
	beq	.L1090
	add	r2, ip, #96
	movw	r3, #33720
	movt	r3, 169
	add	r3, r5, r3
	add	r2, r5, r2, lsl #2
.L1091:
	add	r0, r0, #1
	str	r3, [r2, #4]!
	cmp	r0, r1
	add	r3, r3, #824
	bne	.L1091
	add	ip, ip, r0
.L1090:
	str	ip, [r4, #1116]
	ldrb	r1, [r4, #1064]	@ zero_extendqisi2
	ldr	r0, [r4, #1112]
	b	.L1084
.L1177:
	ldr	r2, [fp, #-252]
	mov	r9, r6, asl #2
	ldr	r3, .L1190+12
	mov	r1, r8
	add	r0, r2, r9
	mov	r2, #4
	bl	qsort
	subs	r7, r6, #0
	bne	.L1099
.L1172:
	sub	r10, fp, #172
	b	.L1074
.L1176:
	add	r7, r6, #64
	ldr	r3, .L1190+28
	mov	r2, #4
	mov	r1, r8
	add	r7, r5, r7, lsl #2
	mov	r0, r7
	bl	qsort
	subs	r10, r6, #0
	bne	.L1098
	b	.L1061
.L1106:
	mov	r6, ip
	b	.L1026
.L1107:
	mov	r7, r6
	b	.L1029
.L1108:
	mov	r6, r10
	b	.L1063
.L1182:
	sub	r3, fp, #236
	mov	r2, #4
	str	r3, [fp, #-252]
	mov	r1, r10
	mov	r0, r3
	ldr	r3, .L1190+8
	bl	qsort
	ldr	r3, [fp, #-244]
	ldr	r8, [r3, #2928]
	cmp	r8, #0
	movwne	r7, #47844
	movne	r6, r10
	movtne	r7, 169
	addne	r7, r5, r7
	bne	.L1104
	ldr	r3, .L1190+12
	mov	r2, #4
	mov	r1, r8
	ldr	r0, [fp, #-252]
	mov	r7, r8
	bl	qsort
	b	.L1172
.L1052:
	add	r3, r0, #256
	mov	r2, #4
	str	r3, [fp, #-248]
	mov	r1, r10
	mov	r0, r3
	ldr	r3, .L1190+24
	bl	qsort
	ldr	r3, [fp, #-244]
	ldr	r8, [r3, #2928]
	cmp	r8, #0
	movwne	r7, #47844
	movne	r6, r10
	movtne	r7, 169
	addne	r7, r5, r7
	bne	.L1102
	ldr	r7, [fp, #-248]
	mov	r2, #4
	ldr	r3, .L1190+28
	mov	r1, r8
	mov	r10, r8
	mov	r0, r7
	bl	qsort
	b	.L1061
.L1189:
	ldr	r1, .L1190+36
.L1171:
	mov	r0, #1
	bl	dprint_vfmw
	mov	r0, r5
	bl	MVC_ClearCurrSlice
	mvn	r0, #0
	b	.L1163
.L1089:
	movw	ip, #42076
	ldr	r2, [r4, #2716]
	mov	r1, r6
	movt	ip, 169
	add	r3, r5, #388
	add	ip, r5, ip
	str	ip, [sp]
	bl	MVC_GenPiclistfromFrmlist_Interview
	b	.L1169
.L1043:
	ldr	r1, .L1190+40
	b	.L1171
.L1191:
	.align	2
.L1190:
	.word	MVC_compare_pic_by_pic_num_desc
	.word	MVC_compare_pic_by_lt_pic_num_asc
	.word	MVC_compare_fs_by_poc_desc
	.word	MVC_compare_fs_by_poc_asc
	.word	MVC_compare_fs_by_lt_pic_idx_asc
	.word	.LC29
	.word	MVC_compare_pic_by_poc_desc
	.word	MVC_compare_pic_by_poc_asc
	.word	MVC_compare_fs_by_frame_num_desc
	.word	.LC30
	.word	.LC28
	UNWIND(.fnend)
	.size	MVC_InitListX, .-MVC_InitListX
	.align	2
	.global	MVC_DumpList
	.type	MVC_DumpList, %function
MVC_DumpList:
	UNWIND(.fnstart)
	@ args = 0, pretend = 0, frame = 0
	@ frame_needed = 1, uses_anonymous_args = 0
	UNWIND(.movsp ip)
	mov	ip, sp
	stmfd	sp!, {r4, r5, r6, r7, r8, fp, ip, lr, pc}
	UNWIND(.pad #4)
	UNWIND(.save {r4, r5, r6, r7, r8, fp, ip, lr})
	UNWIND(.setfp fp, ip, #-4)
	sub	fp, ip, #4
	UNWIND(.pad #12)
	sub	sp, sp, #12
	ldr	r3, .L1205
	ldr	r3, [r3]
	tst	r3, #8192
	beq	.L1192
	movw	r6, #42068
	add	r8, r0, #252
	movt	r6, 169
	add	r6, r0, r6
	mov	r7, #0
.L1194:
	ldr	r3, [r6, #4]!
	cmp	r3, #0
	movne	r5, r8
	movne	r4, #0
	beq	.L1196
.L1195:
	ldr	ip, [r5, #4]!
	mov	r3, r4
	mov	r2, r7
	ldr	r1, .L1205+4
	mov	r0, #13
	add	r4, r4, #1
	ldr	ip, [ip, #4]
	ldr	lr, [ip, #32]
	str	lr, [sp, #4]
	ldr	ip, [ip, #20]
	str	ip, [sp]
	bl	dprint_vfmw
	ldr	r3, [r6]
	cmp	r3, r4
	bhi	.L1195
.L1196:
	add	r7, r7, #1
	add	r8, r8, #132
	cmp	r7, #2
	bne	.L1194
.L1192:
	sub	sp, fp, #32
	ldmfd	sp, {r4, r5, r6, r7, r8, fp, sp, pc}
.L1206:
	.align	2
.L1205:
	.word	g_PrintEnable
	.word	.LC31
	UNWIND(.fnend)
	.size	MVC_DumpList, .-MVC_DumpList
	.align	2
	.global	MVC_FindNearestPOCPicId
	.type	MVC_FindNearestPOCPicId, %function
MVC_FindNearestPOCPicId:
	UNWIND(.fnstart)
	@ args = 0, pretend = 0, frame = 0
	@ frame_needed = 1, uses_anonymous_args = 0
	UNWIND(.movsp ip)
	mov	ip, sp
	stmfd	sp!, {r4, r5, r6, fp, ip, lr, pc}
	UNWIND(.pad #4)
	UNWIND(.save {r4, r5, r6, fp, ip, lr})
	UNWIND(.setfp fp, ip, #-4)
	sub	fp, ip, #4
	add	r3, r0, #11075584
	add	r3, r3, #45056
	ldr	r2, [r3, #2924]
	cmp	r2, #0
	beq	.L1212
	ldr	r4, [r3, #2920]
	add	r3, r0, #11141120
	add	r3, r3, #16384
	cmp	r4, #0
	ldr	r5, [r3, #60]
	beq	.L1213
	movw	ip, #47780
	mov	r6, #0
	movt	ip, 169
	add	ip, r0, ip
	mov	r1, r6
	mvn	lr, #-2147483648
.L1211:
	ldr	r2, [ip, #4]!
	add	r1, r1, #1
	cmp	r2, #0
	beq	.L1210
	ldr	r3, [r2, #32]
	rsb	r3, r3, r5
	cmp	r3, #0
	rsblt	r3, r3, #0
	cmp	r3, lr
	ldrlt	r6, [r2, #220]
	movlt	lr, r3
.L1210:
	cmp	r1, r4
	bne	.L1211
.L1209:
	mov	r0, r6
	ldmfd	sp, {r4, r5, r6, fp, sp, pc}
.L1213:
	mov	r6, r4
	b	.L1209
.L1212:
	mvn	r0, #0
	ldmfd	sp, {r4, r5, r6, fp, sp, pc}
	UNWIND(.fnend)
	.size	MVC_FindNearestPOCPicId, .-MVC_FindNearestPOCPicId
	.align	2
	.global	MVC_FindMinRefIdx
	.type	MVC_FindMinRefIdx, %function
MVC_FindMinRefIdx:
	UNWIND(.fnstart)
	@ args = 0, pretend = 0, frame = 0
	@ frame_needed = 1, uses_anonymous_args = 0
	UNWIND(.movsp ip)
	mov	ip, sp
	stmfd	sp!, {r4, r5, r6, r7, r8, fp, ip, lr, pc}
	UNWIND(.pad #4)
	UNWIND(.save {r4, r5, r6, r7, r8, fp, ip, lr})
	UNWIND(.setfp fp, ip, #-4)
	sub	fp, ip, #4
	add	r3, r0, #11075584
	add	r3, r3, #40960
	ldrb	r2, [r3, #1064]	@ zero_extendqisi2
	cmp	r2, #2
	ldmeqfd	sp, {r4, r5, r6, r7, r8, fp, sp, pc}
	add	r2, r0, #11141120
	movw	r6, #48212
	add	r2, r2, #12288
	ldrb	lr, [r2, #3483]	@ zero_extendqisi2
	cmp	lr, #0
	bne	.L1248
	ldr	r4, [r3, #1112]
	movw	r5, #48216
	movt	r6, 169
	movt	r5, 169
	cmp	r4, #0
	add	r6, r0, r6
	add	r5, r0, r5
	mov	r7, lr
	beq	.L1226
.L1250:
	add	r2, r0, #252
	mov	ip, #32
	mov	r3, #0
	b	.L1224
.L1223:
	add	r3, r3, #1
	cmp	r3, r4
	beq	.L1249
.L1224:
	ldr	r1, [r2, #4]!
	ldr	r1, [r1, #4]
	ldr	r1, [r1, #52]
	cmp	r1, lr
	bne	.L1223
	cmp	ip, r3
	movcs	ip, r3
	add	r3, r3, #1
	cmp	r3, r4
	str	ip, [r5, #-4]
	str	ip, [r6, #4]
	bne	.L1224
.L1249:
	cmp	ip, #31
	bhi	.L1226
.L1225:
	add	lr, lr, #1
	add	r6, r6, #8
	cmp	lr, #16
	add	r5, r5, #8
	ldmeqfd	sp, {r4, r5, r6, r7, r8, fp, sp, pc}
	cmp	r4, #0
	bne	.L1250
.L1226:
	str	r7, [r5, #-4]
	str	r7, [r6, #4]
	b	.L1225
.L1248:
	ldr	r5, [r3, #1112]
	mov	lr, #0
	movt	r6, 169
	mov	r7, lr
	cmp	r5, #0
	add	r6, r0, r6
	beq	.L1230
.L1252:
	add	r1, r0, #252
	mov	r4, #32
	mov	r2, #0
	b	.L1228
.L1227:
	add	r2, r2, #1
	cmp	r2, r5
	beq	.L1251
.L1228:
	ldr	r3, [r1, #4]!
	ldr	r8, [r3, #4]
	ldrb	ip, [r3]	@ zero_extendqisi2
	ldr	r3, [r8, #52]
	mov	r3, r3, asl #1
	cmp	ip, #2
	orreq	r3, r3, #1
	cmp	r3, lr
	bne	.L1227
	cmp	r4, r2
	movcs	r4, r2
	add	r2, r2, #1
	cmp	r2, r5
	str	r4, [r6]
	bne	.L1228
.L1251:
	cmp	r4, #31
	bhi	.L1230
.L1229:
	add	lr, lr, #1
	add	r6, r6, #4
	cmp	lr, #32
	ldmeqfd	sp, {r4, r5, r6, r7, r8, fp, sp, pc}
	cmp	r5, #0
	bne	.L1252
.L1230:
	str	r7, [r6]
	b	.L1229
	UNWIND(.fnend)
	.size	MVC_FindMinRefIdx, .-MVC_FindMinRefIdx
	.align	2
	.global	MVC_DecList
	.type	MVC_DecList, %function
MVC_DecList:
	UNWIND(.fnstart)
	@ args = 0, pretend = 0, frame = 0
	@ frame_needed = 1, uses_anonymous_args = 0
	UNWIND(.movsp ip)
	mov	ip, sp
	stmfd	sp!, {r4, r5, r6, r7, fp, ip, lr, pc}
	UNWIND(.pad #4)
	UNWIND(.save {r4, r5, r6, r7, fp, ip, lr})
	UNWIND(.setfp fp, ip, #-4)
	sub	fp, ip, #4
	mov	r4, r0
	bl	MVC_FindNearestPOCPicId
	add	r5, r4, #11075584
	mvn	r6, #0
	add	r3, r5, #40960
	ldrb	r2, [r3, #1064]	@ zero_extendqisi2
	str	r6, [r3, #2696]
	cmp	r2, #2
	str	r0, [r3, #2700]
	beq	.L1260
	mov	r0, r4
	bl	MVC_InitListX
	cmp	r0, #0
	bne	.L1261
	mov	r0, r4
	bl	MVC_ReorderListX
	mov	r0, r4
	bl	MVC_RepairList
	cmp	r0, #0
	bne	.L1258
	mov	r0, r4
	add	r5, r5, #40960
	bl	MVC_FindMinRefIdx
	ldr	r3, [r4, #256]
	mov	r0, #0
	cmp	r3, #0
	ldrne	r3, [r3, #4]
	ldrne	r6, [r3, #220]
	str	r6, [r5, #2696]
	ldmfd	sp, {r4, r5, r6, r7, fp, sp, pc}
.L1260:
	mov	r0, #0
	str	r0, [r3, #1112]
	str	r0, [r3, #1116]
	ldmfd	sp, {r4, r5, r6, r7, fp, sp, pc}
.L1258:
	mov	r0, r6
	ldmfd	sp, {r4, r5, r6, r7, fp, sp, pc}
.L1261:
	ldr	r1, .L1262
	mov	r0, #13
	bl	dprint_vfmw
	mov	r0, r6
	ldmfd	sp, {r4, r5, r6, r7, fp, sp, pc}
.L1263:
	.align	2
.L1262:
	.word	.LC32
	UNWIND(.fnend)
	.size	MVC_DecList, .-MVC_DecList
	.align	2
	.global	MVC_NoPicOut
	.type	MVC_NoPicOut, %function
MVC_NoPicOut:
	UNWIND(.fnstart)
	@ args = 0, pretend = 0, frame = 0
	@ frame_needed = 1, uses_anonymous_args = 0
	UNWIND(.movsp ip)
	mov	ip, sp
	stmfd	sp!, {fp, ip, lr, pc}
	UNWIND(.pad #4)
	UNWIND(.save {fp, ip, lr})
	UNWIND(.setfp fp, ip, #-4)
	sub	fp, ip, #4
	ldr	ip, [r0, #48]
	cmp	ip, #0
	beq	.L1271
	movw	r3, #48351
	mov	r2, #0
	movt	r3, 169
	mov	lr, r2
	add	r3, r0, r3
	b	.L1270
.L1279:
	ldrb	r1, [r3, #-2]	@ zero_extendqisi2
	cmp	r1, #1
	beq	.L1268
	cmp	r2, ip
	add	r3, r3, #824
	beq	.L1271
.L1270:
	ldrb	r1, [r3]	@ zero_extendqisi2
	add	r2, r2, #1
	cmp	r1, #1
	bne	.L1279
.L1268:
	cmp	r2, ip
	strb	lr, [r3, #-5]
	strb	lr, [r3, #-4]
	add	r3, r3, #824
	bne	.L1270
.L1271:
	ldr	r2, [r0, #52]
	cmp	r2, #0
	beq	.L1280
	mov	r3, #0
	add	r0, r0, #144
	mov	r1, r3
.L1272:
	add	r3, r3, #1
	str	r1, [r0, #4]!
	cmp	r3, r2
	bne	.L1272
	ldmfd	sp, {fp, sp, pc}
.L1280:
	ldmfd	sp, {fp, sp, pc}
	UNWIND(.fnend)
	.size	MVC_NoPicOut, .-MVC_NoPicOut
	.align	2
	.global	MVC_GetBackPicFromVOQueue
	.type	MVC_GetBackPicFromVOQueue, %function
MVC_GetBackPicFromVOQueue:
	UNWIND(.fnstart)
	@ args = 0, pretend = 0, frame = 0
	@ frame_needed = 1, uses_anonymous_args = 0
	UNWIND(.movsp ip)
	mov	ip, sp
	stmfd	sp!, {r4, r5, r6, r7, r8, r9, fp, ip, lr, pc}
	UNWIND(.pad #4)
	UNWIND(.save {r4, r5, r6, r7, r8, r9, fp, ip, lr})
	UNWIND(.setfp fp, ip, #-4)
	sub	fp, ip, #4
	mov	r8, r0
	ldr	r0, [r0, #120]
	bl	FSP_GetFspType
	cmp	r0, #0
	beq	.L1298
.L1282:
	ldr	r3, [r8, #48]
	cmp	r3, #0
	beq	.L1289
	movw	r5, #48984
	mov	r6, #0
	movt	r5, 169
	add	r5, r8, r5
	mov	r7, #0
	mov	r9, #0
.L1288:
	sub	r4, r5, #32
	mov	r3, #0
	strb	r3, [r5, #-638]
	strb	r3, [r5, #-637]
.L1287:
	ldrd	r2, [r4, #8]!
	orrs	r1, r2, r3
	bne	.L1299
.L1286:
	cmp	r4, r5
	bne	.L1287
	ldr	r3, [r8, #48]
	add	r9, r9, #1
	add	r5, r5, #824
	cmp	r3, r9
	bhi	.L1288
.L1289:
	ldr	r2, [r8, #52]
	cmp	r2, #0
	beq	.L1300
	mov	r3, #0
	add	r8, r8, #144
	mov	r1, r3
.L1290:
	add	r3, r3, #1
	str	r1, [r8, #4]!
	cmp	r3, r2
	bne	.L1290
	ldmfd	sp, {r4, r5, r6, r7, r8, r9, fp, sp, pc}
.L1299:
	mov	r1, r2
	ldr	r0, [r8, #120]
	bl	FreeUsdByDec
	strd	r6, [r4]
	b	.L1286
.L1298:
	add	r0, r8, #584
	bl	ResetVoQueue
	b	.L1282
.L1300:
	ldmfd	sp, {r4, r5, r6, r7, r8, r9, fp, sp, pc}
	UNWIND(.fnend)
	.size	MVC_GetBackPicFromVOQueue, .-MVC_GetBackPicFromVOQueue
	.align	2
	.global	mvc_wait_vo
	.type	mvc_wait_vo, %function
mvc_wait_vo:
	UNWIND(.fnstart)
	@ args = 0, pretend = 0, frame = 0
	@ frame_needed = 1, uses_anonymous_args = 0
	UNWIND(.movsp ip)
	mov	ip, sp
	stmfd	sp!, {fp, ip, lr, pc}
	UNWIND(.pad #4)
	UNWIND(.save {fp, ip, lr})
	UNWIND(.setfp fp, ip, #-4)
	sub	fp, ip, #4
	ldmfd	sp, {fp, sp, pc}
	UNWIND(.fnend)
	.size	mvc_wait_vo, .-mvc_wait_vo
	.align	2
	.global	MVC_RoundLog2
	.type	MVC_RoundLog2, %function
MVC_RoundLog2:
	UNWIND(.fnstart)
	@ args = 0, pretend = 0, frame = 0
	@ frame_needed = 1, uses_anonymous_args = 0
	UNWIND(.movsp ip)
	mov	ip, sp
	stmfd	sp!, {fp, ip, lr, pc}
	UNWIND(.pad #4)
	UNWIND(.save {fp, ip, lr})
	UNWIND(.setfp fp, ip, #-4)
	sub	fp, ip, #4
	mul	r0, r0, r0
	mov	r3, #0
	mov	r2, #1
.L1303:
	add	r3, r3, #1
	cmp	r0, r2, asl r3
	bge	.L1303
	mov	r0, r3, asr #1
	ldmfd	sp, {fp, sp, pc}
	UNWIND(.fnend)
	.size	MVC_RoundLog2, .-MVC_RoundLog2
	.align	2
	.global	MVC_GetReRangeFlag
	.type	MVC_GetReRangeFlag, %function
MVC_GetReRangeFlag:
	UNWIND(.fnstart)
	@ args = 0, pretend = 0, frame = 8
	@ frame_needed = 1, uses_anonymous_args = 0
	UNWIND(.movsp ip)
	mov	ip, sp
	stmfd	sp!, {r4, r5, r6, r7, r8, fp, ip, lr, pc}
	UNWIND(.pad #4)
	UNWIND(.save {r4, r5, r6, r7, r8, fp, ip, lr})
	UNWIND(.setfp fp, ip, #-4)
	sub	fp, ip, #4
	UNWIND(.pad #12)
	sub	sp, sp, #12
	mov	r4, r0
	add	r0, r0, #11075584
	mov	r5, r1
	add	r7, r0, #40960
	ldr	ip, [r4, #252]
	mov	lr, #2240
	ldrb	r1, [r7, #1076]	@ zero_extendqisi2
	ldr	r3, [r7, #1080]
	sxtb	r2, r1
	cmn	r2, #1
	mla	r3, lr, r3, ip
	beq	.L1322
	cmp	r1, #0
	bne	.L1308
	ldrb	r2, [r4, #2]	@ zero_extendqisi2
	ldr	r3, [r3, #28]
	cmp	r2, #1
	beq	.L1323
	ldr	r2, [r4, #28]
	cmp	r2, r3
	beq	.L1310
	ldr	r1, .L1325
	mov	r0, #1
	bl	dprint_vfmw
	mvn	r0, #0
	sub	sp, fp, #32
	ldmfd	sp, {r4, r5, r6, r7, r8, fp, sp, pc}
.L1308:
	ldr	r1, .L1325+4
	mov	r0, #1
	bl	dprint_vfmw
	mvn	r0, #0
	sub	sp, fp, #32
	ldmfd	sp, {r4, r5, r6, r7, r8, fp, sp, pc}
.L1322:
	ldr	r2, [r3, #28]
	movw	r6, #3992
	ldr	r3, [r4, #248]
	mla	r6, r6, r2, r3
.L1307:
	ldrb	r3, [r6, #20]	@ zero_extendqisi2
	ldr	r1, [r6, #3952]
	rsb	r3, r3, #2
	ldr	r2, [r6, #3948]
	ldr	lr, [r4, #12]
	mla	r3, r1, r3, r3
	ldr	ip, [r4, #16]
	add	r2, r2, #1
	cmp	r2, lr
	cmpeq	r3, ip
	movne	r8, #1
	moveq	r8, #0
	bne	.L1312
	add	r1, r0, #45056
	ldr	r0, [r6, #3972]
	ldr	r1, [r1, #2920]
	add	r1, r1, #1
	cmp	r0, r1
	movls	ip, r8
	bls	.L1313
.L1312:
	ldr	r1, .L1325+8
	ldr	r8, [r1]
	cmp	r8, #0
	moveq	ip, #1
	beq	.L1313
	mov	ip, ip, asl #4
	mov	r1, r3, asl #4
	mov	lr, lr, asl #4
	mov	r2, r2, asl #4
	strh	ip, [fp, #-42]	@ movhi
	mov	r3, #8
	strh	r2, [fp, #-40]	@ movhi
	sub	r2, fp, #44
	strh	r1, [fp, #-38]	@ movhi
	mov	r1, #2
	strh	lr, [fp, #-44]	@ movhi
	ldr	r0, [r4, #120]
	blx	r8
	mov	ip, #1
.L1313:
	ldrb	r3, [r7, #1075]	@ zero_extendqisi2
	cmp	r3, #1
	ldrne	r1, [r6, #3972]
	subne	r1, r1, #1
	beq	.L1324
.L1316:
	ldr	r3, [r4, #44]
	mov	r0, ip
	cmp	r3, r1
	orrne	ip, ip, #1
	str	ip, [r5]
	str	r1, [r4, #44]
	sub	sp, fp, #32
	ldmfd	sp, {r4, r5, r6, r7, r8, fp, sp, pc}
.L1310:
	movw	r6, #35364
	movt	r6, 168
	add	r6, r4, r6
	b	.L1307
.L1324:
	movw	r0, #39336
	add	r3, r4, #290816
	movt	r0, 168
	add	r3, r3, #808
	add	r0, r4, r0
	mov	r1, #0
.L1315:
	ldr	r2, [r3]
	add	r3, r3, #335872
	add	r3, r3, #308
	cmp	r2, r1
	subhi	r1, r2, #1
	cmp	r3, r0
	bne	.L1315
	add	r1, r1, #1
	mov	r1, r1, asl #1
	cmp	r1, #16
	movcs	r1, #16
	b	.L1316
.L1323:
	movw	r6, #8500
	movt	r6, 5
	mla	r6, r6, r3, r4
	add	r6, r6, #286720
	add	r6, r6, #932
	b	.L1307
.L1326:
	.align	2
.L1325:
	.word	.LC33
	.word	.LC34
	.word	g_event_report
	UNWIND(.fnend)
	.size	MVC_GetReRangeFlag, .-MVC_GetReRangeFlag
	.global	__aeabi_uidiv
	.global	__aeabi_uidivmod
	.align	2
	.global	MVC_DecPOC
	.type	MVC_DecPOC, %function
MVC_DecPOC:
	UNWIND(.fnstart)
	@ args = 0, pretend = 0, frame = 0
	@ frame_needed = 1, uses_anonymous_args = 0
	UNWIND(.movsp ip)
	mov	ip, sp
	stmfd	sp!, {r3, r4, r5, r6, r7, r8, r9, r10, fp, ip, lr, pc}
	UNWIND(.pad #4)
	UNWIND(.save {r3, r4, r5, r6, r7, r8, r9, r10, fp, ip, lr})
	UNWIND(.setfp fp, ip, #-4)
	sub	fp, ip, #4
	add	r7, r0, #11075584
	ldr	r6, [r0, #236]
	add	r5, r7, #40960
	mov	r2, #1
	ldrb	r1, [r5, #1067]	@ zero_extendqisi2
	ldr	ip, [r6, #2900]
	ldr	r3, [r6, #2896]
	sub	r1, r1, #5
	clz	r1, r1
	cmp	ip, r2
	add	r3, r3, #4
	ldr	lr, [r6, #2904]
	mov	r1, r1, lsr #5
	mov	r3, r2, asl r3
	beq	.L1329
	bcc	.L1330
	cmp	ip, #2
	ldmnefd	sp, {r3, r4, r5, r6, r7, r8, r9, r10, fp, sp, pc}
	cmp	r1, #0
	bne	.L1385
	add	r4, r7, #36864
	ldrb	r2, [r4, #4024]	@ zero_extendqisi2
	cmp	r2, #0
	bne	.L1363
	ldr	r1, [r4, #4080]
	ldr	r0, [r4, #4076]
	ldr	r2, [r4, #4088]
	cmp	r1, r0
	addcc	r2, r2, r3
	strcc	r2, [r4, #4084]
	bcs	.L1365
.L1366:
	add	r3, r2, r1
	str	r3, [r4, #4072]
	ldrb	r0, [r5, #1072]	@ zero_extendqisi2
	mov	r3, r3, asl #1
	cmp	r0, #0
	subeq	r3, r3, #1
	str	r3, [r4, #4060]
	ldrb	r0, [r5, #1065]	@ zero_extendqisi2
	cmp	r0, #0
	bne	.L1369
	str	r3, [r4, #4056]
	str	r3, [r4, #4052]
	str	r3, [r4, #4048]
.L1362:
	add	r7, r7, #36864
	str	r1, [r7, #4076]
	str	r2, [r7, #4088]
	ldmfd	sp, {r3, r4, r5, r6, r7, r8, r9, r10, fp, sp, pc}
.L1330:
	cmp	r1, #0
	add	lr, lr, #4
	mov	r2, r2, asl lr
	bne	.L1386
	add	r4, r7, #36864
	ldrb	r3, [r4, #4024]	@ zero_extendqisi2
	cmp	r3, #0
	bne	.L1334
	ldr	lr, [r4, #4036]
	ldr	ip, [r4, #4040]
	mov	r1, lr
.L1335:
	ldr	r0, [r4, #4028]
	cmp	r0, ip
	bcs	.L1333
	rsb	r3, r0, ip
	cmp	r3, r2, lsr #1
	addcs	r1, r1, r2
	strcs	r1, [r4, #4044]
	bcs	.L1337
.L1333:
	cmp	r0, ip
	bls	.L1338
	rsb	r3, ip, r0
	cmp	r3, r2, lsr #1
	rsbhi	r1, r2, r1
	strhi	r1, [r4, #4044]
	bls	.L1338
.L1337:
	ldrb	r3, [r5, #1065]	@ zero_extendqisi2
	cmp	r3, #0
	bne	.L1339
.L1388:
	ldr	r3, [r4, #4032]
	add	r1, r1, r0
	str	r1, [r4, #4048]
	add	r3, r1, r3
	str	r3, [r4, #4052]
	cmp	r3, r1
	movge	r3, r1
	str	r3, [r4, #4060]
.L1340:
	ldr	r2, [r4, #4080]
	str	r3, [r4, #4056]
	add	r3, r7, #40960
	ldr	r1, [r4, #4076]
	cmp	r2, r1
	strne	r2, [r4, #4076]
	ldrb	r3, [r3, #1072]	@ zero_extendqisi2
	cmp	r3, #0
	addne	r7, r7, #36864
	ldrne	r2, [r7, #4028]
	ldrne	r3, [r7, #4044]
	strne	r2, [r7, #4040]
	strne	r3, [r7, #4036]
	ldmfd	sp, {r3, r4, r5, r6, r7, r8, r9, r10, fp, sp, pc}
.L1329:
	cmp	r1, #0
	add	r4, r7, #36864
	movne	r3, #0
	strne	r3, [r4, #4084]
	bne	.L1344
	ldrb	r2, [r4, #4024]	@ zero_extendqisi2
	cmp	r2, #0
	beq	.L1345
	mov	r3, r1
	str	r1, [r4, #4088]
	str	r1, [r4, #4076]
.L1346:
	str	r3, [r4, #4084]
.L1344:
	ldr	r3, [r6, #2916]
	cmp	r3, #0
	beq	.L1348
	ldr	r3, [r4, #4080]
	ldr	r0, [r4, #4084]
	add	r0, r3, r0
	str	r0, [r4, #4072]
	ldrb	r8, [r5, #1072]	@ zero_extendqisi2
	cmp	r8, #0
	bne	.L1350
	cmp	r0, #0
	beq	.L1351
	sub	r0, r0, #1
	str	r0, [r4, #4072]
.L1350:
	mov	r3, #0
	str	r3, [r5, #8]
	ldr	r1, [r6, #2916]
	cmp	r1, r3
	bgt	.L1371
	cmp	r0, #0
	beq	.L1354
.L1387:
	sub	r9, r0, #1
	mov	r0, r9
	bl	__aeabi_uidiv
	mov	r10, r0
	mov	r0, r9
	str	r10, [r5]
	ldr	r1, [r6, #2916]
	bl	__aeabi_uidivmod
	str	r1, [r4, #4092]
	cmp	r1, #0
	ldr	r0, [r5, #8]
	mul	r0, r0, r10
	str	r0, [r5, #4]
	blt	.L1355
	add	r2, r6, #2912
	add	r1, r1, #1
	add	r2, r2, #4
	mov	r3, #0
.L1356:
	add	r3, r3, #1
	ldr	ip, [r2, #4]!
	cmp	r3, r1
	add	r0, r0, ip
	str	r0, [r5, #4]
	bne	.L1356
.L1355:
	cmp	r8, #0
	ldreq	r3, [r6, #2908]
	addeq	r0, r0, r3
	ldrb	r3, [r5, #1065]	@ zero_extendqisi2
	streq	r0, [r5, #4]
	cmp	r3, #0
	bne	.L1358
	ldr	r2, [r4, #4064]
	ldr	r1, [r4, #4068]
	add	r2, r0, r2
	str	r2, [r4, #4048]
	ldr	r3, [r6, #2912]
	add	r3, r2, r3
	add	r0, r3, r1
	str	r0, [r4, #4052]
	cmp	r0, r2
	movge	r0, r2
	str	r0, [r4, #4060]
.L1359:
	add	r7, r7, #36864
	ldr	r2, [r7, #4080]
	ldr	r3, [r7, #4084]
	str	r0, [r7, #4056]
	str	r2, [r7, #4076]
	str	r3, [r7, #4088]
	ldmfd	sp, {r3, r4, r5, r6, r7, r8, r9, r10, fp, sp, pc}
.L1348:
	str	r3, [r4, #4072]
	ldrb	r8, [r5, #1072]	@ zero_extendqisi2
.L1351:
	mov	r0, #0
	str	r0, [r5, #8]
	ldr	r3, [r6, #2916]
	cmp	r3, r0
	ble	.L1354
.L1371:
	add	ip, r6, #2912
	mov	r3, #0
	add	ip, ip, #4
	mov	r2, r3
.L1353:
	ldr	r1, [ip, #4]!
	add	r2, r2, #1
	add	r3, r3, r1
	str	r3, [r5, #8]
	ldr	r1, [r6, #2916]
	cmp	r1, r2
	bgt	.L1353
	cmp	r0, #0
	bne	.L1387
.L1354:
	mov	r0, #0
	str	r0, [r5, #4]
	b	.L1355
.L1386:
	add	r4, r0, #11075584
	add	r4, r4, #36864
.L1336:
	mov	r3, #0
	ldr	r0, [r4, #4028]
	str	r3, [r4, #4036]
	mov	lr, r3
	str	r3, [r4, #4040]
	mov	r1, ip
	b	.L1333
.L1385:
	add	r3, r7, #36864
	mov	r1, #0
	mov	r2, r1
	str	r1, [r3, #4084]
	str	r1, [r3, #4052]
	str	r1, [r3, #4048]
	str	r1, [r3, #4056]
	str	r1, [r3, #4060]
	ldr	r1, [r3, #4080]
	b	.L1362
.L1338:
	str	lr, [r4, #4044]
	ldrb	r3, [r5, #1065]	@ zero_extendqisi2
	cmp	r3, #0
	beq	.L1388
.L1339:
	ldrb	r3, [r5, #1066]	@ zero_extendqisi2
	cmp	r3, #0
	add	r3, r1, r0
	streq	r3, [r4, #4048]
	strne	r3, [r4, #4052]
	str	r3, [r4, #4060]
	b	.L1340
.L1358:
	ldrb	r3, [r5, #1066]	@ zero_extendqisi2
	cmp	r3, #0
	ldrne	r2, [r6, #2912]
	ldreq	r3, [r4, #4064]
	ldrne	r3, [r4, #4064]
	addne	r0, r0, r2
	addeq	r0, r0, r3
	streq	r0, [r4, #4048]
	addne	r0, r0, r3
	strne	r0, [r4, #4052]
	str	r0, [r4, #4060]
	b	.L1359
.L1334:
	movw	r3, #4025
	ldrsb	r3, [r4, r3]
	cmp	r3, #0
	bne	.L1336
	ldr	r0, [r4, #4048]
	mov	r1, ip
	mov	lr, r3
	str	r3, [r4, #4036]
	mov	ip, r0
	str	r0, [r4, #4040]
	b	.L1335
.L1345:
	ldr	r1, [r4, #4080]
	ldr	r2, [r4, #4076]
	cmp	r1, r2
	bcs	.L1347
	ldr	r2, [r4, #4088]
	add	r3, r3, r2
	str	r3, [r4, #4084]
	b	.L1344
.L1369:
	ldrb	r0, [r5, #1066]	@ zero_extendqisi2
	str	r3, [r4, #4056]
	cmp	r0, #0
	streq	r3, [r4, #4048]
	strne	r3, [r4, #4052]
	b	.L1362
.L1363:
	str	r1, [r4, #4076]
	mov	r2, r1
	str	r1, [r4, #4088]
	ldr	r1, [r4, #4080]
.L1365:
	str	r2, [r4, #4084]
	b	.L1366
.L1347:
	ldr	r3, [r4, #4088]
	b	.L1346
	UNWIND(.fnend)
	.size	MVC_DecPOC, .-MVC_DecPOC
	.align	2
	.global	MVC_CalcPicNum
	.type	MVC_CalcPicNum, %function
MVC_CalcPicNum:
	UNWIND(.fnstart)
	@ args = 0, pretend = 0, frame = 0
	@ frame_needed = 1, uses_anonymous_args = 0
	UNWIND(.movsp ip)
	mov	ip, sp
	stmfd	sp!, {r4, r5, r6, r7, r8, fp, ip, lr, pc}
	UNWIND(.pad #4)
	UNWIND(.save {r4, r5, r6, r7, r8, fp, ip, lr})
	UNWIND(.setfp fp, ip, #-4)
	sub	fp, ip, #4
	add	r7, r0, #11141120
	ldr	r3, [r0, #236]
	add	r2, r7, #12288
	mov	r5, #1
	ldrb	r2, [r2, #3483]	@ zero_extendqisi2
	ldr	r3, [r3, #2896]
	cmp	r2, #0
	add	r3, r3, #4
	mov	r5, r5, asl r3
	add	r3, r0, #11075584
	beq	.L1390
	add	r3, r3, #45056
	sub	r6, r2, #1
	sub	r2, r2, #2
	clz	r6, r6
	ldr	r1, [r3, #2928]
	clz	r2, r2
	mov	r6, r6, lsr #5
	cmp	r1, #0
	mov	r2, r2, lsr #5
	beq	.L1410
	movw	lr, #47844
	add	r7, r7, #16384
	movt	lr, 169
	add	lr, r0, lr
	mov	r1, #0
.L1409:
	ldr	ip, [lr, #4]!
	ldrb	r4, [ip, #3]	@ zero_extendqisi2
	cmp	r4, #0
	beq	.L1404
	ldr	r4, [ip, #20]
	ldr	r8, [r7, #48]
	cmp	r4, r8
	rsbhi	r4, r5, r4
	str	r4, [ip, #24]
	ldr	ip, [lr]
	ldrb	r4, [ip, #3]	@ zero_extendqisi2
	tst	r4, #1
	beq	.L1407
	ldr	r8, [ip, #748]
	bic	r8, r8, #-16777216
	bic	r8, r8, #255
	cmp	r8, #65536
	ldreq	r4, [ip, #24]
	addeq	r4, r6, r4, lsl #1
	streq	r4, [ip, #760]
	ldreq	ip, [lr]
	ldreqb	r4, [ip, #3]	@ zero_extendqisi2
.L1407:
	tst	r4, #2
	beq	.L1404
	ldr	r4, [ip, #784]
	bic	r4, r4, #-16777216
	bic	r4, r4, #255
	cmp	r4, #65536
	ldreq	r4, [ip, #24]
	addeq	r4, r2, r4, lsl #1
	streq	r4, [ip, #796]
.L1404:
	ldr	ip, [r3, #2928]
	add	r1, r1, #1
	cmp	ip, r1
	bhi	.L1409
.L1410:
	ldr	r1, [r3, #2932]
	cmp	r1, #0
	beq	.L1434
	movw	r4, #47908
	mov	ip, #0
	movt	r4, 169
	add	r4, r0, r4
.L1415:
	ldr	lr, [r4, #4]!
	add	ip, ip, #1
	ldrb	r1, [lr, #3]	@ zero_extendqisi2
	cmp	r1, #0
	beq	.L1412
	tst	r1, #1
	beq	.L1413
	ldr	r0, [lr, #748]
	bic	r0, r0, #-16777216
	bic	r0, r0, #255
	cmp	r0, #256
	ldreq	r1, [lr, #28]
	addeq	r1, r6, r1, lsl #1
	streq	r1, [lr, #756]
	ldreq	lr, [r4]
	ldreqb	r1, [lr, #3]	@ zero_extendqisi2
.L1413:
	tst	r1, #2
	beq	.L1412
	ldr	r1, [lr, #784]
	bic	r1, r1, #-16777216
	bic	r1, r1, #255
	cmp	r1, #256
	ldreq	r1, [lr, #28]
	addeq	r1, r2, r1, lsl #1
	streq	r1, [lr, #792]
.L1412:
	ldr	r1, [r3, #2932]
	cmp	r1, ip
	bhi	.L1415
	ldmfd	sp, {r4, r5, r6, r7, r8, fp, sp, pc}
.L1390:
	add	r3, r3, #45056
	ldr	r1, [r3, #2928]
	cmp	r1, #0
	addne	r7, r7, #16384
	movwne	lr, #47844
	movtne	lr, 169
	addne	lr, r0, lr
	bne	.L1399
.L1400:
	ldr	r2, [r3, #2932]
	cmp	r2, #0
	beq	.L1435
	movw	ip, #47908
	mov	r2, #0
	movt	ip, 169
	add	ip, r0, ip
	b	.L1402
.L1401:
	ldr	r1, [r3, #2932]
	cmp	r1, r2
	bls	.L1436
.L1402:
	ldr	r1, [ip, #4]!
	add	r2, r2, #1
	ldrb	r0, [r1, #3]	@ zero_extendqisi2
	cmp	r0, #3
	bne	.L1401
	ldr	r0, [r1, #712]
	bic	r0, r0, #-16777216
	bic	r0, r0, #255
	cmp	r0, #256
	ldreq	r0, [r1, #28]
	streq	r0, [r1, #720]
	ldr	r1, [r3, #2932]
	cmp	r1, r2
	bhi	.L1402
.L1436:
	ldmfd	sp, {r4, r5, r6, r7, r8, fp, sp, pc}
.L1437:
	ldr	ip, [r1, #712]
	bic	ip, ip, #-16777216
	bic	ip, ip, #255
	cmp	ip, #65536
	bne	.L1396
	ldr	ip, [r1, #20]
	ldr	r4, [r7, #48]
	rsb	r6, r5, ip
	cmp	ip, r4
	strhi	r6, [r1, #24]
	strls	ip, [r1, #24]
	ldr	r1, [lr]
	ldr	ip, [r1, #24]
	str	ip, [r1, #724]
.L1396:
	ldr	r1, [r3, #2928]
	add	r2, r2, #1
	cmp	r1, r2
	bls	.L1400
.L1399:
	ldr	r1, [lr, #4]!
	ldrb	ip, [r1, #3]	@ zero_extendqisi2
	cmp	ip, #3
	bne	.L1396
	b	.L1437
.L1434:
	ldmfd	sp, {r4, r5, r6, r7, r8, fp, sp, pc}
.L1435:
	ldmfd	sp, {r4, r5, r6, r7, r8, fp, sp, pc}
	UNWIND(.fnend)
	.size	MVC_CalcPicNum, .-MVC_CalcPicNum
	.align	2
	.global	MVC_IsOutDPB
	.type	MVC_IsOutDPB, %function
MVC_IsOutDPB:
	UNWIND(.fnstart)
	@ args = 0, pretend = 0, frame = 0
	@ frame_needed = 1, uses_anonymous_args = 0
	UNWIND(.movsp ip)
	mov	ip, sp
	stmfd	sp!, {fp, ip, lr, pc}
	UNWIND(.pad #4)
	UNWIND(.save {fp, ip, lr})
	UNWIND(.setfp fp, ip, #-4)
	sub	fp, ip, #4
	cmp	r1, #0
	beq	.L1443
	add	r3, r0, #11075584
	add	r3, r3, #45056
	ldr	lr, [r3, #2920]
	cmp	lr, #0
	beq	.L1443
	ldr	r2, [r3, #2728]
	rsb	r3, r2, r1
	cmp	r2, #0
	clz	r3, r3
	mov	r3, r3, lsr #5
	moveq	r3, #0
	cmp	r3, #0
	bne	.L1445
	movw	ip, #47784
	movt	ip, 169
	add	ip, r0, ip
	b	.L1440
.L1441:
	ldr	r2, [ip, #4]!
	rsb	r0, r2, r1
	cmp	r2, #0
	clz	r0, r0
	mov	r0, r0, lsr #5
	moveq	r0, #0
	cmp	r0, #0
	bne	.L1445
.L1440:
	add	r3, r3, #1
	cmp	r3, lr
	bne	.L1441
.L1443:
	mov	r0, #1
	ldmfd	sp, {fp, sp, pc}
.L1445:
	mov	r0, #0
	ldmfd	sp, {fp, sp, pc}
	UNWIND(.fnend)
	.size	MVC_IsOutDPB, .-MVC_IsOutDPB
	.align	2
	.global	mvc_combine_scalinglist
	.type	mvc_combine_scalinglist, %function
mvc_combine_scalinglist:
	UNWIND(.fnstart)
	@ args = 0, pretend = 0, frame = 0
	@ frame_needed = 1, uses_anonymous_args = 0
	UNWIND(.movsp ip)
	mov	ip, sp
	stmfd	sp!, {r4, r5, r6, r7, r8, fp, ip, lr, pc}
	UNWIND(.pad #4)
	UNWIND(.save {r4, r5, r6, r7, r8, fp, ip, lr})
	UNWIND(.setfp fp, ip, #-4)
	sub	fp, ip, #4
	cmp	r2, #0
	ldmlefd	sp, {r4, r5, r6, r7, r8, fp, sp, pc}
	ldr	r6, .L1453
	mov	lr, #0
	mov	r5, #255
	sub	r7, r6, #16
.L1450:
	cmp	r2, #16
	ldreqb	ip, [lr, r7]	@ zero_extendqisi2
	ldrneb	ip, [lr, r6]	@ zero_extendqisi2
	add	lr, lr, #1
	cmp	lr, r2
	and	r3, ip, #3
	mov	r4, ip, lsr #2
	ldrb	r8, [r0, ip, asl #2]	@ zero_extendqisi2
	mov	r3, r3, asl #3
	ldr	ip, [r1, r4, asl #2]
	bic	ip, ip, r5, asl r3
	orr	r3, ip, r8, asl r3
	str	r3, [r1, r4, asl #2]
	bne	.L1450
	ldmfd	sp, {r4, r5, r6, r7, r8, fp, sp, pc}
.L1454:
	.align	2
.L1453:
	.word	.LANCHOR0+16
	UNWIND(.fnend)
	.size	mvc_combine_scalinglist, .-mvc_combine_scalinglist
	.align	2
	.global	mvc_assign_quant_params
	.type	mvc_assign_quant_params, %function
mvc_assign_quant_params:
	UNWIND(.fnstart)
	@ args = 0, pretend = 0, frame = 16
	@ frame_needed = 1, uses_anonymous_args = 0
	UNWIND(.movsp ip)
	mov	ip, sp
	stmfd	sp!, {r4, r5, r6, r7, r8, r9, r10, fp, ip, lr, pc}
	UNWIND(.pad #4)
	UNWIND(.save {r4, r5, r6, r7, r8, r9, r10, fp, ip, lr})
	UNWIND(.setfp fp, ip, #-4)
	sub	fp, ip, #4
	UNWIND(.pad #20)
	sub	sp, sp, #20
	subs	r3, r0, #0
	str	r1, [fp, #-48]
	str	r3, [fp, #-52]
	beq	.L1486
	ldr	r3, [fp, #-48]
	cmp	r3, #0
	beq	.L1487
	ldr	r3, [fp, #-48]
	ldrb	r3, [r3, #18]	@ zero_extendqisi2
	cmp	r3, #0
	beq	.L1475
	ldr	r3, [fp, #-48]
	mov	r4, #0
	ldr	r1, [fp, #-52]
	add	r2, r3, #2016
	add	r8, r3, #1728
	str	r2, [fp, #-56]
	add	r9, r1, #2384
	mov	r6, r2
	add	r7, r3, #1984
	add	r5, r3, #5
	ldr	r10, .L1492
	b	.L1460
.L1490:
	cmp	r4, #0
	beq	.L1488
	cmp	r4, #3
	beq	.L1489
	ldr	r3, [r10, #52]
	mov	r2, #16
	sub	r1, r6, #16
	mov	r0, r6
	blx	r3
.L1468:
	add	r4, r4, #1
	cmp	r4, #7
	bhi	.L1475
.L1474:
	add	r8, r8, #64
	add	r9, r9, #64
	add	r6, r6, #16
	add	r7, r7, #4
	add	r5, r5, #1
.L1460:
	cmp	r4, #5
	ldrsb	r3, [r5]
	bhi	.L1461
	cmp	r3, #0
	beq	.L1490
	ldr	r3, [r7]
	cmp	r3, #0
	beq	.L1468
	ldr	r1, .L1492+4
	cmp	r4, #2
	mov	r2, #16
	ldr	r3, [r10, #52]
	add	r0, r1, r2
	add	r4, r4, #1
	movhi	r1, r0
	mov	r0, r6
	blx	r3
	cmp	r4, #7
	bls	.L1474
.L1475:
	mov	r0, #0
.L1457:
	sub	sp, fp, #40
	ldmfd	sp, {r4, r5, r6, r7, r8, r9, r10, fp, sp, pc}
.L1461:
	cmp	r3, #0
	bne	.L1470
	ldr	r3, [fp, #-52]
	mov	r2, #64
	ldrb	r3, [r3, #27]	@ zero_extendqisi2
	cmp	r3, #0
	ldr	r3, [r10, #52]
	bne	.L1491
.L1485:
	ldr	r1, .L1492+8
	cmp	r4, #6
	add	r0, r1, r2
	movne	r1, r0
	mov	r0, r8
	blx	r3
	b	.L1468
.L1470:
	ldr	r3, [r7]
	cmp	r3, #0
	beq	.L1468
	ldr	r3, [r10, #52]
	mov	r2, #64
	b	.L1485
.L1491:
	mov	r1, r9
	mov	r0, r8
	blx	r3
	b	.L1468
.L1486:
	movw	r3, #6713
	ldr	r2, .L1492+12
	ldr	r1, .L1492+16
	bl	dprint_vfmw
	mvn	r0, #0
	b	.L1457
.L1487:
	mov	r0, r3
	ldr	r2, .L1492+12
	movw	r3, #6714
	ldr	r1, .L1492+16
	bl	dprint_vfmw
	mvn	r0, #0
	b	.L1457
.L1489:
	ldr	r3, [fp, #-52]
	mov	r2, #16
	ldr	r0, [fp, #-48]
	mov	r4, #4
	ldrb	r3, [r3, #27]	@ zero_extendqisi2
	add	r0, r0, #2064
	cmp	r3, #0
	ldr	r3, [r10, #52]
	ldrne	r1, [fp, #-52]
	ldreq	r1, .L1492+20
	addne	r1, r1, #2720
	blx	r3
	b	.L1474
.L1488:
	ldr	r3, [fp, #-52]
	mov	r2, #16
	ldr	r0, [fp, #-56]
	mov	r4, #1
	ldrb	r3, [r3, #27]	@ zero_extendqisi2
	cmp	r3, #0
	ldr	r3, [r10, #52]
	ldrne	r1, [fp, #-52]
	ldreq	r1, .L1492+4
	addne	r1, r1, #2672
	blx	r3
	b	.L1474
.L1493:
	.align	2
.L1492:
	.word	vfmw_Osal_Func_Ptr_S
	.word	.LANCHOR1
	.word	.LANCHOR1+32
	.word	.LC13
	.word	.LC14
	.word	.LANCHOR1+16
	UNWIND(.fnend)
	.size	mvc_assign_quant_params, .-mvc_assign_quant_params
	.align	2
	.global	MVC_WriteCurrPicYUV
	.type	MVC_WriteCurrPicYUV, %function
MVC_WriteCurrPicYUV:
	UNWIND(.fnstart)
	@ args = 0, pretend = 0, frame = 0
	@ frame_needed = 1, uses_anonymous_args = 0
	UNWIND(.movsp ip)
	mov	ip, sp
	stmfd	sp!, {r4, r5, fp, ip, lr, pc}
	UNWIND(.pad #4)
	UNWIND(.save {r4, r5, fp, ip, lr})
	UNWIND(.setfp fp, ip, #-4)
	sub	fp, ip, #4
	UNWIND(.pad #8)
	sub	sp, sp, #8
	add	r4, r0, #11141120
	add	r2, r4, #12288
	add	r3, r4, #16384
	add	r4, r4, #16384
	ldr	r1, .L1497
	ldrb	r5, [r2, #3483]	@ zero_extendqisi2
	mov	r0, #2
	ldr	r3, [r3, #40]
	mov	r2, r5
	ldr	r3, [r3, #220]
	bl	dprint_vfmw
	ldr	ip, [r4, #100]
	cmp	r5, #3
	cmpne	r5, #0
	ldr	r3, [r4, #96]
	addne	r2, r5, #1
	ldr	r1, .L1497+4
	moveq	r2, #1
	str	ip, [sp]
	mov	r0, #22
	bl	dprint_vfmw
	sub	sp, fp, #20
	ldmfd	sp, {r4, r5, fp, sp, pc}
.L1498:
	.align	2
.L1497:
	.word	.LC35
	.word	.LC36
	UNWIND(.fnend)
	.size	MVC_WriteCurrPicYUV, .-MVC_WriteCurrPicYUV
	.align	2
	.global	MVC_WritePicMsg
	.type	MVC_WritePicMsg, %function
MVC_WritePicMsg:
	UNWIND(.fnstart)
	@ args = 0, pretend = 0, frame = 8
	@ frame_needed = 1, uses_anonymous_args = 0
	UNWIND(.movsp ip)
	mov	ip, sp
	stmfd	sp!, {r4, r5, r6, r7, r8, r9, r10, fp, ip, lr, pc}
	UNWIND(.pad #4)
	UNWIND(.save {r4, r5, r6, r7, r8, r9, r10, fp, ip, lr})
	UNWIND(.setfp fp, ip, #-4)
	sub	fp, ip, #4
	UNWIND(.pad #20)
	sub	sp, sp, #20
	add	r3, r0, #11141120
	add	r6, r3, #16384
	add	r10, r3, #12288
	mov	r4, r0
	str	r3, [fp, #-48]
	ldr	lr, [r10, #3644]
	mov	r0, #2
	ldr	ip, [r6, #116]
	mov	r9, #0
	ldrb	r3, [r10, #3483]	@ zero_extendqisi2
	add	r5, r4, #11075584
	ldr	r2, [r6, #56]
	add	r8, r5, #32768
	ldr	r1, .L1535
	add	r7, r5, #36864
	str	lr, [sp]
	str	ip, [sp, #4]
	bl	dprint_vfmw
	movw	r3, #16368
	movt	r3, 170
	str	r9, [r4, #64]
	ldrd	r0, [r4, r3]
	movw	r3, #17856
	movt	r3, 170
	strd	r0, [r4, r3]
	ldr	r3, [r4, #544]
	ldr	r2, [r6, #56]
	ldr	r0, [r6, #100]
	str	r3, [r6, #2392]
	ldr	r3, [r10, #3608]
	ldr	r1, [r6, #104]
	str	r3, [r6, #2168]
	ldr	r3, [r10, #3612]
	str	r3, [r6, #2172]
	ldr	r3, [r10, #3632]
	str	r3, [r6, #2176]
	ldr	r3, [r10, #3636]
	str	r2, [r6, #1480]
	str	r3, [r6, #2180]
	ldrb	r3, [r10, #3483]	@ zero_extendqisi2
	strb	r3, [r6, #1448]
	ldr	r3, [r4, #236]
	ldrb	r2, [r3, #21]	@ zero_extendqisi2
	str	r0, [r6, #1484]
	str	r1, [r6, #1488]
	str	r2, [r6, #1496]
	ldr	r2, [r3, #3948]
	add	r2, r2, #1
	str	r2, [r6, #1492]
	ldrb	r2, [r8, #1908]	@ zero_extendqisi2
	strb	r2, [r6, #1451]
	ldr	r2, [r7, #1844]
	str	r2, [r6, #1500]
	ldrb	r2, [r7, #1784]	@ zero_extendqisi2
	str	r2, [r6, #1504]
	ldr	r2, [r3, #748]
	ldr	r3, [r6, #40]
	strb	r2, [r6, #1449]
	ldrb	r2, [r7, #1788]	@ zero_extendqisi2
	str	r2, [r6, #1508]
	ldr	r2, [r7, #4060]
	str	r2, [r6, #1512]
	ldr	r2, [r7, #4048]
	str	r2, [r6, #1516]
	ldr	r2, [r7, #4052]
	str	r2, [r6, #1520]
	ldrsb	r1, [r3, #6]
	ldr	r0, [r4, #120]
	bl	FSP_GetLogicFs
	subs	r10, r0, #0
	beq	.L1533
	ldr	r2, [r10, #28]
	ldr	r3, [r10, #32]
	cmp	r2, #0
	beq	.L1503
	cmp	r3, #0
	beq	.L1503
	movw	r3, #18284
	movw	r2, #18156
	movw	r1, #18412
	ldr	r0, [r4, #120]
	movt	r3, 170
	movt	r2, 170
	add	r3, r4, r3
	add	r2, r4, r2
	movt	r1, 170
	add	r1, r4, r1
	bl	FSP_GetDecFsAddrTab
	ldr	r3, [r10, #28]
	movw	r2, #18416
	movw	r1, #18544
	movt	r2, 170
	movt	r1, 170
	ldr	r3, [r3, #4]
	add	r2, r4, r2
	add	r1, r4, r1
	add	r5, r5, #45056
	str	r3, [r6, #1756]
	ldr	r0, [r4, #120]
	bl	FSP_GetPmvAddrTab
	ldr	r3, [r6, #116]
	str	r3, [r6, #1764]
	ldr	r3, [r10, #12]
	str	r3, [r6, #2164]
	ldr	r3, [r10, #32]
	ldr	r3, [r3, #8]
	str	r3, [r6, #1760]
	ldr	r3, [r10, #32]
	ldr	r3, [r3, #60]
	str	r3, [r6, #1768]
	ldr	r10, [r5, #3148]
	cmp	r10, #0
	str	r10, [r6, #2384]
	beq	.L1509
	movw	r6, #48008
	movw	lr, #18572
	movw	ip, #48072
	movw	r0, #18636
	movw	r1, #48136
	movw	r2, #18700
	movt	r6, 169
	movt	lr, 170
	movt	ip, 169
	movt	r0, 170
	movt	r1, 169
	movt	r2, 170
	add	r6, r4, r6
	add	lr, r4, lr
	add	ip, r4, ip
	add	r0, r4, r0
	add	r1, r4, r1
	add	r2, r4, r2
	mov	r3, r9
.L1508:
	ldr	r9, [r6, #4]!
	add	r3, r3, #1
	cmp	r3, r10
	str	r9, [lr, #4]!
	ldr	r9, [ip, #4]!
	str	r9, [r0, #4]!
	ldr	r9, [r1, #4]!
	str	r9, [r2, #4]!
	bne	.L1508
.L1509:
	ldrb	r3, [r8, #1915]	@ zero_extendqisi2
	cmp	r3, #0
	bne	.L1534
	ldrb	r1, [r7, #1802]	@ zero_extendqisi2
	cmp	r1, #0
	bne	.L1510
	movw	ip, #17904
	ldr	r0, .L1535+4
	movt	ip, 170
	add	ip, r4, ip
.L1511:
	and	r3, r1, #3
	add	r1, r1, #1
	cmp	r1, #24
	add	r3, r0, r3, lsl #2
	ldr	r3, [r3, #352]
	bic	r2, r3, #16711680
	ubfx	lr, r3, #8, #8
	bic	r2, r2, #65280
	mov	r3, r3, lsr #8
	orr	r2, r2, lr, asl #16
	and	r3, r3, #65280
	orr	r3, r2, r3
	str	r3, [ip, #4]!
	bne	.L1511
	movw	r6, #18004
	mov	lr, #0
	movt	r6, 170
	add	r6, r4, r6
.L1512:
	add	r3, lr, #1
	and	r2, lr, #14
	and	r3, r3, #15
	add	lr, lr, #2
	add	r2, r0, r2, lsl #2
	cmp	lr, #32
	add	r3, r0, r3, lsl #2
	ldr	r1, [r2, #368]
	ldr	ip, [r3, #368]
	ubfx	r3, r1, #8, #8
	mov	r2, r1, lsr #24
	uxtb	r9, r1
	uxtb	r8, ip
	mov	r7, ip, lsr #16
	orr	r3, r3, r2, asl #8
	mov	r1, r1, lsr #8
	mov	r8, r8, asl #16
	and	r2, ip, #-16777216
	orr	r7, r8, r7, asl #24
	ubfx	ip, ip, #8, #8
	orr	r3, r3, r2
	orr	r7, r7, r9
	and	r1, r1, #65280
	orr	r3, r3, ip, asl #16
	orr	r2, r7, r1
	stmia	r6, {r2, r3}
	add	r6, r6, #8
	bne	.L1512
.L1517:
	cmp	r10, #0
	beq	.L1514
	ldr	r3, [fp, #-48]
	movw	r6, #48012
	movw	r8, #18880
	movt	r6, 169
	movt	r8, 170
	add	r9, r3, #18944
	add	r6, r4, r6
	add	r8, r4, r8
	mov	r7, #0
.L1520:
	ldr	r2, [r6]
	mov	r1, #0
	ldr	r0, [r4, #120]
	add	r7, r7, #1
	bl	FSP_GetStoreType
	adds	r0, r0, #0
	movne	r0, #1
	str	r0, [r8, #4]!
	ldr	r3, [r6], #4
	str	r3, [r9, #4]!
	ldr	r3, [r5, #3148]
	cmp	r3, r7
	bhi	.L1520
.L1514:
	mov	r0, #0
.L1530:
	sub	sp, fp, #40
	ldmfd	sp, {r4, r5, r6, r7, r8, r9, r10, fp, sp, pc}
.L1534:
	ldrb	r1, [r7, #1802]	@ zero_extendqisi2
.L1510:
	cmp	r1, #1
	movw	ip, #17904
	movt	ip, 170
	mov	r0, #0
	add	ip, r4, ip
	beq	.L1515
.L1518:
	movw	r3, #25716
	movt	r3, 42
	add	r3, r0, r3
	add	r0, r0, #1
	ldr	r3, [r4, r3, asl #2]
	cmp	r0, #24
	bic	r2, r3, #16711680
	ubfx	r1, r3, #8, #8
	bic	r2, r2, #65280
	mov	r3, r3, lsr #8
	orr	r2, r2, r1, asl #16
	and	r3, r3, #65280
	orr	r3, r2, r3
	str	r3, [ip, #4]!
	bne	.L1518
	movw	r8, #18004
	mov	r9, #1
	movt	r8, 170
	add	r8, r4, r8
	mov	r7, #0
.L1519:
	mov	r2, r7, lsr #3
	mov	r3, r7, asl #1
	and	ip, r3, #14
	and	r0, r9, #15
	mov	r3, r2, asl #4
	movw	r1, #25740
	add	r0, r3, r0
	mov	r2, r1
	add	r3, r3, ip
	movt	r1, 42
	movt	r2, 42
	add	r1, r0, r1
	add	r2, r3, r2
	add	r7, r7, #1
	ldr	r1, [r4, r1, asl #2]
	cmp	r7, #16
	ldr	r3, [r4, r2, asl #2]
	add	r9, r9, #2
	ubfx	r6, r1, #8, #8
	and	r0, r1, #-16777216
	mov	r2, r1, lsr #16
	uxtb	r1, r1
	mov	ip, r3, lsr #24
	uxtb	lr, r3
	mov	r2, r2, asl #24
	mov	ip, ip, asl #8
	orr	r2, r2, r1, asl #16
	orr	ip, ip, r6, asl #16
	mov	r1, r3, lsr #8
	orr	r2, r2, lr
	and	r1, r1, #65280
	ubfx	r3, r3, #8, #8
	orr	r0, ip, r0
	orr	r2, r2, r1
	orr	r3, r0, r3
	stmia	r8, {r2, r3}
	add	r8, r8, #8
	bne	.L1519
	b	.L1517
.L1515:
	movw	r3, #26550
	movt	r3, 42
	add	r3, r0, r3
	add	r0, r0, #1
	ldr	r3, [r4, r3, asl #2]
	cmp	r0, #24
	bic	r2, r3, #16711680
	ubfx	r1, r3, #8, #8
	bic	r2, r2, #65280
	mov	r3, r3, lsr #8
	orr	r2, r2, r1, asl #16
	and	r3, r3, #65280
	orr	r3, r2, r3
	str	r3, [ip, #4]!
	bne	.L1515
	movw	ip, #18004
	mov	lr, #1
	movt	ip, 170
	add	ip, r4, ip
	mov	r0, #0
.L1516:
	mov	r2, r0, lsr #3
	mov	r3, r0, asl #1
	and	r1, r3, #14
	and	r6, lr, #15
	mov	r3, r2, asl #4
	movw	r2, #26574
	add	r6, r3, r6
	add	r3, r3, r1
	mov	r1, r2
	movt	r2, 42
	movt	r1, 42
	add	r2, r6, r2
	add	r1, r3, r1
	add	r0, r0, #1
	ldr	r2, [r4, r2, asl #2]
	cmp	r0, #16
	ldr	r3, [r4, r1, asl #2]
	add	lr, lr, #2
	ubfx	r9, r2, #8, #8
	and	r1, r2, #-16777216
	mov	r7, r2, lsr #16
	uxtb	r2, r2
	mov	r6, r3, lsr #24
	uxtb	r8, r3
	mov	r7, r7, asl #24
	mov	r6, r6, asl #8
	orr	r7, r7, r2, asl #16
	orr	r6, r6, r9, asl #16
	mov	r2, r3, lsr #8
	orr	r7, r7, r8
	and	r2, r2, #65280
	ubfx	r3, r3, #8, #8
	orr	r1, r6, r1
	orr	r2, r7, r2
	orr	r3, r1, r3
	stmia	ip, {r2, r3}
	add	ip, ip, #8
	bne	.L1516
	b	.L1517
.L1503:
	ldr	r1, .L1535+8
	mov	r0, #0
	bl	dprint_vfmw
	mvn	r0, #0
	b	.L1530
.L1533:
	ldr	r3, [r6, #40]
	ldr	r1, .L1535+12
	ldrsb	r2, [r3, #6]
	bl	dprint_vfmw
	mvn	r0, #0
	b	.L1530
.L1536:
	.align	2
.L1535:
	.word	.LC37
	.word	.LANCHOR1
	.word	.LC39
	.word	.LC38
	UNWIND(.fnend)
	.size	MVC_WritePicMsg, .-MVC_WritePicMsg
	.align	2
	.global	MVC_UpdatePicQpInf
	.type	MVC_UpdatePicQpInf, %function
MVC_UpdatePicQpInf:
	UNWIND(.fnstart)
	@ args = 0, pretend = 0, frame = 0
	@ frame_needed = 1, uses_anonymous_args = 0
	UNWIND(.movsp ip)
	mov	ip, sp
	stmfd	sp!, {fp, ip, lr, pc}
	UNWIND(.pad #4)
	UNWIND(.save {fp, ip, lr})
	UNWIND(.setfp fp, ip, #-4)
	sub	fp, ip, #4
	ldr	r2, [r1, #28]
	ldr	r3, [r1, #32]
	cmp	r2, r0
	movlt	r2, r0
	cmp	r3, r0
	str	r2, [r1, #28]
	movge	r3, r0
	str	r3, [r1, #32]
	ldmfd	sp, {fp, sp, pc}
	UNWIND(.fnend)
	.size	MVC_UpdatePicQpInf, .-MVC_UpdatePicQpInf
	.align	2
	.global	MVC_WriteSliceMsg
	.type	MVC_WriteSliceMsg, %function
MVC_WriteSliceMsg:
	UNWIND(.fnstart)
	@ args = 0, pretend = 0, frame = 24
	@ frame_needed = 1, uses_anonymous_args = 0
	UNWIND(.movsp ip)
	mov	ip, sp
	stmfd	sp!, {r4, r5, r6, r7, r8, r9, r10, fp, ip, lr, pc}
	UNWIND(.pad #4)
	UNWIND(.save {r4, r5, r6, r7, r8, r9, r10, fp, ip, lr})
	UNWIND(.setfp fp, ip, #-4)
	sub	fp, ip, #4
	UNWIND(.pad #28)
	sub	sp, sp, #28
	ldr	r3, [r0, #64]
	movw	r1, #4060
	mov	r4, r0
	mov	ip, r3
	str	r3, [fp, #-48]
	mul	r1, r1, ip
	ldr	r3, [r0, #32]
	ldr	r0, [r0, #544]
	add	r2, ip, #1
	sub	r3, r3, #1
	str	r2, [r4, #64]
	cmp	ip, r3
	add	r6, r0, r1
	addcc	r3, r1, #4048
	addcc	r3, r3, #12
	movcs	r3, #0
	addcc	r3, r0, r3
	str	r3, [r6, #4056]
	ldr	r2, [r4, #232]
	ldrb	ip, [r2]	@ zero_extendqisi2
	ldr	r3, [r2, #68]
	cmp	ip, #1
	cmpls	ip, r3
	bcs	.L1541
	add	lr, ip, #3
	add	lr, r6, lr, lsl #2
.L1542:
	mov	r3, ip, asl #5
	sub	r3, r3, ip, asl #2
	add	ip, ip, #1
	add	r2, r2, r3
	ldr	r2, [r2, #24]
	str	r2, [lr, #4]!
	ldr	r2, [r4, #232]
	add	r2, r2, r3
	ldr	r2, [r2, #20]
	str	r2, [lr, #-8]
	ldr	r2, [r4, #232]
	add	r3, r2, r3
	ldr	r3, [r3, #28]
	str	r3, [lr, #8]
	ldr	r2, [r4, #232]
	ldr	r3, [r2, #68]
	cmp	r3, ip
	movhi	r5, #1
	movls	r5, #0
	cmp	ip, #1
	movhi	r5, #0
	cmp	r5, #0
	bne	.L1542
.L1541:
	cmp	r3, #1
	bhi	.L1547
	add	r3, r3, #3
	add	ip, r6, #20
	mov	r2, #0
	add	r3, r6, r3, lsl #2
.L1546:
	str	r2, [r3, #4]!
	cmp	r3, ip
	str	r2, [r3, #-8]
	str	r2, [r3, #8]
	bne	.L1546
.L1547:
	add	r8, r4, #11141120
	ldr	r3, [fp, #-48]
	add	r7, r8, #12288
	add	r5, r4, #11075584
	cmp	r3, #0
	add	r9, r5, #36864
	ldrb	r3, [r7, #3489]	@ zero_extendqisi2
	add	r5, r5, #40960
	strb	r3, [r6, #1]
	ldr	r3, [r9, #1832]
	ldr	r2, [r5, #2680]
	add	r3, r3, #26
	add	r3, r3, r2
	str	r3, [r6, #32]
	bne	.L1643
	add	r2, r8, #16384
	str	r2, [fp, #-52]
	mov	ip, r2
	ldr	r2, [r2, #40]
	str	r3, [r2, #740]
	ldr	r3, [ip, #40]
	ldr	r2, [r6, #32]
	str	r2, [r3, #744]
.L1548:
	ldr	r3, [r5, #2676]
	str	r3, [r6, #36]
	ldr	r3, [r5, #1128]
	str	r3, [r6, #40]
	ldr	r3, [r5, #1124]
	str	r3, [r6, #44]
	ldrb	r3, [r5, #1064]	@ zero_extendqisi2
	strb	r3, [r0, r1]
	ldr	r3, [r5, #1120]
	str	r3, [r6, #48]
	ldrb	r3, [r5, #1070]	@ zero_extendqisi2
	strb	r3, [r6, #2]
	ldr	r3, [r4, #236]
	ldrb	r3, [r3, #22]	@ zero_extendqisi2
	strb	r3, [r6, #3]
	ldr	r3, [r5, #1112]
	str	r3, [r6, #52]
	ldr	r3, [r5, #1116]
	str	r3, [r6, #56]
	ldrb	r3, [r5, #1064]	@ zero_extendqisi2
	cmp	r3, #1
	ldreq	r3, [r9, #1828]
	streqb	r3, [r6, #4]
	beq	.L1550
	cmp	r3, #0
	ldreqb	r3, [r9, #1786]	@ zero_extendqisi2
	movne	r3, #0
	strb	r3, [r6, #4]
.L1550:
	ldr	r3, [r9, #1836]
	str	r3, [r6, #60]
	ldr	r3, [r9, #1840]
	str	r3, [r6, #64]
	ldr	r3, [r5, #2688]
	str	r3, [r6, #68]
	ldr	r3, [r5, #2692]
	str	r3, [r6, #72]
	ldr	r3, [r5, #2684]
	str	r3, [r6, #76]
	ldrb	r3, [r5, #1064]	@ zero_extendqisi2
	cmp	r3, #2
	beq	.L1589
	ldr	ip, [r5, #1112]
	cmp	ip, #0
	beq	.L1592
	ldr	r3, [r4, #256]
	ldr	r2, [r3, #4]
	ldrb	r3, [r2, #1]	@ zero_extendqisi2
	cmp	r3, #0
	addne	r1, r4, #256
	movne	r3, #0
	bne	.L1557
	b	.L1555
.L1559:
	ldr	r2, [r1, #4]!
	ldr	r2, [r2, #4]
	ldrb	r0, [r2, #1]	@ zero_extendqisi2
	cmp	r0, #0
	beq	.L1555
.L1557:
	add	r3, r3, #1
	cmp	r3, ip
	bne	.L1559
	mov	r3, #0
	str	r3, [fp, #-56]
.L1554:
	ldr	ip, [r5, #1116]
	cmp	ip, #0
	beq	.L1593
	ldr	r3, [r4, #388]
	ldr	r2, [r3, #4]
	ldrb	r3, [r2, #1]	@ zero_extendqisi2
	cmp	r3, #0
	addne	r1, r4, #388
	movne	r3, #0
	bne	.L1563
	b	.L1561
.L1565:
	ldr	r2, [r1, #4]!
	ldr	r2, [r2, #4]
	ldrb	r0, [r2, #1]	@ zero_extendqisi2
	cmp	r0, #0
	beq	.L1561
.L1563:
	add	r3, r3, #1
	cmp	r3, ip
	bne	.L1565
	mov	r3, #0
	str	r3, [fp, #-60]
.L1560:
	ldrb	r2, [r7, #3483]	@ zero_extendqisi2
	ldr	r3, [r5, #1112]
	cmp	r2, #0
	beq	.L1566
	cmp	r3, #0
	beq	.L1581
	mov	r8, #0
	mov	r10, r6
	str	r6, [fp, #-64]
	add	r7, r4, #256
	mov	r6, r5
	mov	r5, r8
	ldr	r8, [fp, #-56]
	b	.L1580
.L1578:
	strb	r2, [r10, #1630]
	ldr	r2, [r7]
	ldrb	r2, [r2, #1]	@ zero_extendqisi2
	strb	r2, [r10, #1631]
	ldr	r2, [r7]
	ldr	r2, [r2, #16]
	str	r2, [r10, #1656]
.L1579:
	ldr	r2, [r6, #1112]
	add	r5, r5, #1
	add	r7, r7, #4
	add	r10, r10, #36
	cmp	r2, r5
	bls	.L1644
.L1580:
	ldr	r2, [r7]
	ldr	r0, [r4, #120]
	ldr	r2, [r2, #4]
	ldrsb	r1, [r2, #6]
	bl	FSP_GetLogicFs
	ldr	r2, [r7]
	ldr	r2, [r2, #4]
	ldr	r2, [r2, #48]
	str	r2, [r10, #1636]
	ldr	r2, [r7]
	ldr	r2, [r2, #4]
	ldrb	r2, [r2, #2]	@ zero_extendqisi2
	strb	r2, [r10, #1625]
	ldr	r2, [r7]
	ldr	r2, [r2, #4]
	ldrb	r2, [r2, #1]	@ zero_extendqisi2
	cmp	r2, #1
	moveq	r0, r8
	beq	.L1577
	cmp	r0, #0
	ldrne	r2, [r0, #28]
	ldrne	r0, [r2, #4]
.L1577:
	str	r0, [r10, #1640]
	ldr	r2, [r7]
	ldr	r2, [r2, #4]
	ldr	r2, [r2, #52]
	str	r2, [r10, #1644]
	ldr	r2, [r7]
	ldr	r2, [r2, #4]
	ldr	r2, [r2, #32]
	str	r2, [r10, #1632]
	ldr	r2, [r7]
	ldrb	r2, [r2]	@ zero_extendqisi2
	strb	r2, [r10, #1624]
	ldr	r2, [r7]
	ldr	r2, [r2, #4]
	ldrb	r2, [r2, #712]	@ zero_extendqisi2
	strb	r2, [r10, #1626]
	ldr	r2, [r7]
	ldrb	r2, [r2]	@ zero_extendqisi2
	cmp	r2, #1
	bne	.L1578
	strb	r2, [r10, #1628]
	ldr	r2, [r7]
	ldrb	r2, [r2, #1]	@ zero_extendqisi2
	strb	r2, [r10, #1629]
	ldr	r2, [r7]
	ldr	r2, [r2, #16]
	str	r2, [r10, #1652]
	b	.L1579
.L1644:
	mov	r5, r6
	ldr	r6, [fp, #-64]
.L1581:
	ldrb	r3, [r5, #1064]	@ zero_extendqisi2
	cmp	r3, #1
	beq	.L1645
.L1569:
	movw	r2, #48208
	add	r3, r6, #3920
	add	r0, r6, #4048
	movt	r2, 169
	add	r3, r3, #4
	add	r2, r4, r2
	add	r0, r0, #4
.L1586:
	ldr	r1, [r2, #4]!
	str	r1, [r3, #4]!
	cmp	r3, r0
	bne	.L1586
	ldrb	r3, [r9, #1786]	@ zero_extendqisi2
	ldr	r2, [fp, #-52]
	cmp	r3, #0
	str	r3, [r2, #1748]
	ldr	r3, [r9, #1828]
	str	r3, [r2, #1752]
	beq	.L1587
	ldrb	r2, [r5, #1064]	@ zero_extendqisi2
	cmp	r2, #0
	beq	.L1588
.L1587:
	cmp	r3, #1
	beq	.L1646
.L1589:
	ldr	r2, [fp, #-48]
	movw	r3, #37088
	movt	r3, 42
	ldr	r1, [r4, #232]
	add	r3, r2, r3
	mov	r2, #0
	add	r3, r4, r3, lsl #2
	str	r1, [r3, #4]
	str	r2, [r4, #232]
	sub	sp, fp, #40
	ldmfd	sp, {r4, r5, r6, r7, r8, r9, r10, fp, sp, pc}
.L1643:
	add	r2, r8, #16384
	str	r2, [fp, #-52]
	ldr	r2, [r2, #40]
	ldr	lr, [r2, #740]
	ldr	ip, [r2, #744]
	cmp	lr, r3
	movlt	lr, r3
	cmp	ip, r3
	str	lr, [r2, #740]
	movge	ip, r3
	str	ip, [r2, #744]
	b	.L1548
.L1555:
	ldrsb	r1, [r2, #6]
	ldr	r0, [r4, #120]
	bl	FSP_GetLogicFs
	subs	r3, r0, #0
	movweq	r3, #7724
	beq	.L1639
	ldr	r3, [r3, #28]
	ldr	r3, [r3, #4]
	str	r3, [fp, #-56]
	b	.L1554
.L1646:
	ldrb	r3, [r5, #1064]	@ zero_extendqisi2
	cmp	r3, #1
	bne	.L1589
.L1588:
	ldr	r3, [r5, #1132]
	movw	r8, #42096
	movw	r7, #42224
	movw	lr, #42352
	movw	ip, #42864
	movw	r0, #42992
	str	r3, [r6, #80]
	movw	r1, #43120
	ldr	r10, [r5, #1136]
	movt	r8, 169
	movt	r7, 169
	movt	lr, 169
	movt	ip, 169
	movt	r0, 169
	movt	r1, 169
	add	r8, r4, r8
	add	r7, r4, r7
	add	lr, r4, lr
	add	ip, r4, ip
	add	r0, r4, r0
	add	r1, r4, r1
	mov	r9, r6
	mov	r3, r6
	mov	r2, #0
	str	r6, [fp, #-52]
	str	r10, [r9, #84]!
.L1590:
	ldr	r10, [r8, #4]!
	add	r2, r2, #1
	add	r3, r3, #4
	str	r10, [r9, #4]!
	ldr	r10, [r7, #4]!
	str	r10, [r3, #212]
	ldr	r10, [lr, #4]!
	str	r10, [r3, #340]
	ldr	r10, [ip, #4]!
	str	r10, [r3, #852]
	ldr	r10, [r0, #4]!
	str	r10, [r3, #980]
	ldr	r10, [r1, #4]!
	str	r10, [r3, #1108]
	ldr	r10, [r5, #1124]
	cmp	r10, r2
	bcs	.L1590
	ldrb	r3, [r5, #1064]	@ zero_extendqisi2
	cmp	r3, #1
	bne	.L1589
	movw	r7, #42480
	movw	lr, #42608
	movw	ip, #42736
	movw	r0, #43248
	movw	r1, #43376
	movw	r2, #43504
	ldr	r8, [fp, #-52]
	movt	r7, 169
	movt	lr, 169
	movt	ip, 169
	movt	r0, 169
	movt	r1, 169
	movt	r2, 169
	add	r6, r6, #468
	add	r7, r4, r7
	add	lr, r4, lr
	add	ip, r4, ip
	add	r0, r4, r0
	add	r1, r4, r1
	add	r2, r4, r2
	mov	r3, #0
.L1591:
	ldr	r9, [r7, #4]!
	add	r3, r3, #1
	add	r8, r8, #4
	str	r9, [r6, #4]!
	ldr	r9, [lr, #4]!
	str	r9, [r8, #596]
	ldr	r9, [ip, #4]!
	str	r9, [r8, #724]
	ldr	r9, [r0, #4]!
	str	r9, [r8, #1236]
	ldr	r9, [r1, #4]!
	str	r9, [r8, #1364]
	ldr	r9, [r2, #4]!
	str	r9, [r8, #1492]
	ldr	r9, [r5, #1128]
	cmp	r9, r3
	bcs	.L1591
	b	.L1589
.L1566:
	cmp	r3, #0
	beq	.L1574
	ldr	r8, [fp, #-56]
	add	r10, r4, #256
	mov	r7, r6
	str	r6, [fp, #-64]
	mov	r6, r5
	mov	r5, r2
.L1573:
	ldr	r2, [r10]
	ldr	r0, [r4, #120]
	ldr	r2, [r2, #4]
	ldrsb	r1, [r2, #6]
	bl	FSP_GetLogicFs
	ldr	r2, [r10]
	ldr	r2, [r2, #4]
	ldr	r2, [r2, #48]
	str	r2, [r7, #1636]
	ldr	r2, [r10]
	ldr	r2, [r2, #4]
	ldrb	r2, [r2, #2]	@ zero_extendqisi2
	strb	r2, [r7, #1625]
	ldr	r2, [r10]
	ldr	r2, [r2, #4]
	ldrb	r2, [r2, #1]	@ zero_extendqisi2
	cmp	r2, #1
	moveq	r0, r8
	beq	.L1572
	cmp	r0, #0
	ldrne	r2, [r0, #28]
	ldrne	r0, [r2, #4]
.L1572:
	str	r0, [r7, #1640]
	mov	r3, #0
	ldr	r2, [r10]
	add	r5, r5, #1
	add	r7, r7, #36
	ldr	r2, [r2, #4]
	ldr	r2, [r2, #52]
	str	r2, [r7, #1608]
	ldr	r2, [r10]
	ldr	r2, [r2, #4]
	ldr	r2, [r2, #32]
	str	r2, [r7, #1596]
	ldr	r2, [r10]
	ldrb	r2, [r2, #1]	@ zero_extendqisi2
	strb	r2, [r7, #1591]
	ldr	r2, [r10]
	ldrb	r2, [r2]	@ zero_extendqisi2
	strb	r2, [r7, #1590]
	ldr	r2, [r10]
	ldr	r2, [r2, #4]
	ldr	r2, [r2, #728]
	str	r2, [r7, #1612]
	ldr	r2, [r10]
	ldr	r2, [r2, #4]
	ldr	r2, [r2, #764]
	str	r2, [r7, #1616]
	ldr	r2, [r10], #4
	ldr	r2, [r2, #4]
	ldr	r2, [r2, #800]
	strb	r3, [r7, #1588]
	str	r2, [r7, #1620]
	ldr	r2, [r6, #1112]
	cmp	r2, r5
	bhi	.L1573
	mov	r5, r6
	ldr	r6, [fp, #-64]
.L1574:
	ldrb	r3, [r5, #1064]	@ zero_extendqisi2
	cmp	r3, #1
	bne	.L1569
	ldr	r3, [r5, #1116]
	cmp	r3, #0
	beq	.L1569
	mov	r8, #0
	mov	r7, r6
	str	r6, [fp, #-56]
	mov	r6, r5
	mov	r5, r8
	ldr	r8, [fp, #-60]
	add	r10, r4, #388
.L1576:
	ldr	r2, [r10]
	ldr	r0, [r4, #120]
	ldr	r2, [r2, #4]
	ldrsb	r1, [r2, #6]
	bl	FSP_GetLogicFs
	ldr	r2, [r10]
	ldr	r2, [r2, #4]
	ldr	r2, [r2, #48]
	str	r2, [r7, #2788]
	ldr	r2, [r10]
	ldr	r2, [r2, #4]
	ldrb	r2, [r2, #2]	@ zero_extendqisi2
	strb	r2, [r7, #2777]
	ldr	r2, [r10]
	ldr	r2, [r2, #4]
	ldrb	r2, [r2, #1]	@ zero_extendqisi2
	cmp	r2, #1
	moveq	r0, r8
	beq	.L1575
	cmp	r0, #0
	ldrne	r2, [r0, #28]
	ldrne	r0, [r2, #4]
.L1575:
	str	r0, [r7, #1640]
	mov	r3, #0
	ldr	r2, [r10]
	add	r5, r5, #1
	add	r7, r7, #36
	ldr	r2, [r2, #4]
	ldr	r2, [r2, #52]
	str	r2, [r7, #2760]
	ldr	r2, [r10]
	ldr	r2, [r2, #4]
	ldr	r2, [r2, #32]
	str	r2, [r7, #2748]
	ldr	r2, [r10]
	ldrb	r2, [r2, #1]	@ zero_extendqisi2
	strb	r2, [r7, #2743]
	ldr	r2, [r10]
	ldrb	r2, [r2]	@ zero_extendqisi2
	strb	r2, [r7, #2742]
	ldr	r2, [r10]
	ldr	r2, [r2, #4]
	ldr	r2, [r2, #728]
	str	r2, [r7, #2764]
	ldr	r2, [r10]
	ldr	r2, [r2, #4]
	ldr	r2, [r2, #764]
	str	r2, [r7, #2768]
	ldr	r2, [r10], #4
	ldr	r2, [r2, #4]
	ldr	r2, [r2, #800]
	strb	r3, [r7, #2740]
	str	r2, [r7, #2772]
	ldr	r2, [r6, #1116]
	cmp	r2, r5
	bhi	.L1576
.L1638:
	mov	r5, r6
	ldr	r6, [fp, #-56]
	b	.L1569
.L1561:
	ldrsb	r1, [r2, #6]
	ldr	r0, [r4, #120]
	bl	FSP_GetLogicFs
	subs	r3, r0, #0
	beq	.L1647
	ldr	r3, [r3, #28]
	ldr	r3, [r3, #4]
	str	r3, [fp, #-60]
	b	.L1560
.L1645:
	ldr	r3, [r5, #1116]
	cmp	r3, #0
	beq	.L1569
	mov	r3, #0
	mov	r10, r6
	str	r6, [fp, #-56]
	add	r7, r4, #388
	mov	r6, r5
	ldr	r8, [fp, #-60]
	mov	r5, r3
	b	.L1585
.L1583:
	strb	r2, [r10, #2782]
	ldr	r2, [r7]
	ldrb	r2, [r2, #1]	@ zero_extendqisi2
	strb	r2, [r10, #2783]
	ldr	r2, [r7]
	ldr	r2, [r2, #16]
	str	r2, [r10, #2808]
.L1584:
	ldr	r2, [r6, #1116]
	add	r5, r5, #1
	add	r7, r7, #4
	add	r10, r10, #36
	cmp	r2, r5
	bls	.L1638
.L1585:
	ldr	r2, [r7]
	ldr	r0, [r4, #120]
	ldr	r2, [r2, #4]
	ldrsb	r1, [r2, #6]
	bl	FSP_GetLogicFs
	ldr	r2, [r7]
	ldr	r2, [r2, #4]
	ldr	r2, [r2, #48]
	str	r2, [r10, #2788]
	ldr	r2, [r7]
	ldr	r2, [r2, #4]
	ldrb	r2, [r2, #2]	@ zero_extendqisi2
	strb	r2, [r10, #2777]
	ldr	r2, [r7]
	ldr	r2, [r2, #4]
	ldrb	r2, [r2, #1]	@ zero_extendqisi2
	cmp	r2, #1
	moveq	r0, r8
	beq	.L1582
	cmp	r0, #0
	ldrne	r2, [r0, #28]
	ldrne	r0, [r2, #4]
.L1582:
	str	r0, [r10, #2792]
	ldr	r2, [r7]
	ldr	r2, [r2, #4]
	ldr	r2, [r2, #52]
	str	r2, [r10, #2796]
	ldr	r2, [r7]
	ldr	r2, [r2, #4]
	ldr	r2, [r2, #32]
	str	r2, [r10, #2784]
	ldr	r2, [r7]
	ldrb	r2, [r2]	@ zero_extendqisi2
	strb	r2, [r10, #2776]
	ldr	r2, [r7]
	ldr	r2, [r2, #4]
	ldrb	r2, [r2, #712]	@ zero_extendqisi2
	strb	r2, [r10, #2778]
	ldr	r2, [r7]
	ldrb	r2, [r2]	@ zero_extendqisi2
	cmp	r2, #1
	bne	.L1583
	strb	r2, [r10, #2780]
	ldr	r2, [r7]
	ldrb	r2, [r2, #1]	@ zero_extendqisi2
	strb	r2, [r10, #2781]
	ldr	r2, [r7]
	ldr	r2, [r2, #16]
	str	r2, [r10, #2804]
	b	.L1584
.L1647:
	movw	r3, #7745
.L1639:
	ldr	r2, .L1648
	ldr	r1, .L1648+4
	sub	sp, fp, #40
	ldmfd	sp, {r4, r5, r6, r7, r8, r9, r10, fp, sp, lr}
	b	dprint_vfmw
.L1592:
	str	ip, [fp, #-56]
	b	.L1554
.L1593:
	str	ip, [fp, #-60]
	b	.L1560
.L1649:
	.align	2
.L1648:
	.word	.LANCHOR0+80
	.word	.LC40
	UNWIND(.fnend)
	.size	MVC_WriteSliceMsg, .-MVC_WriteSliceMsg
	.align	2
	.global	MVC_GetPicStreamSize
	.type	MVC_GetPicStreamSize, %function
MVC_GetPicStreamSize:
	UNWIND(.fnstart)
	@ args = 0, pretend = 0, frame = 0
	@ frame_needed = 1, uses_anonymous_args = 0
	UNWIND(.movsp ip)
	mov	ip, sp
	stmfd	sp!, {fp, ip, lr, pc}
	UNWIND(.pad #4)
	UNWIND(.save {fp, ip, lr})
	UNWIND(.setfp fp, ip, #-4)
	sub	fp, ip, #4
	add	r0, r0, #11141120
	add	r0, r0, #16384
	ldr	r2, [r0, #2392]
	cmp	r2, #0
	beq	.L1653
	mov	r0, #0
.L1652:
	ldr	r3, [r2, #8]
	ldr	r1, [r2, #12]
	ldr	r2, [r2, #4056]
	add	r3, r3, r1
	add	r3, r3, #7
	cmp	r2, #0
	add	r0, r0, r3, lsr #3
	bne	.L1652
	ldmfd	sp, {fp, sp, pc}
.L1653:
	mov	r0, r2
	ldmfd	sp, {fp, sp, pc}
	UNWIND(.fnend)
	.size	MVC_GetPicStreamSize, .-MVC_GetPicStreamSize
	.align	2
	.global	MVC_SliceCheck
	.type	MVC_SliceCheck, %function
MVC_SliceCheck:
	UNWIND(.fnstart)
	@ args = 0, pretend = 0, frame = 0
	@ frame_needed = 1, uses_anonymous_args = 0
	UNWIND(.movsp ip)
	mov	ip, sp
	stmfd	sp!, {r4, r5, r6, r7, fp, ip, lr, pc}
	UNWIND(.pad #4)
	UNWIND(.save {r4, r5, r6, r7, fp, ip, lr})
	UNWIND(.setfp fp, ip, #-4)
	sub	fp, ip, #4
	ldr	r1, .L1666
	mov	r4, r0
	add	r5, r0, #11075584
	bl	mvc_ue_v
	add	r5, r5, #40960
	str	r0, [r5, #1120]
	ldrb	r3, [r4, #10]	@ zero_extendqisi2
	cmp	r3, #0
	bne	.L1664
	cmp	r0, #262144
	bcs	.L1665
	ldr	r2, [r4, #12]
	ldr	r3, [r4, #16]
	mul	r3, r3, r2
	sub	r3, r3, #1
	cmp	r0, r3
	bhi	.L1664
	ldr	r1, .L1666+4
	mov	r0, r4
	bl	mvc_ue_v
	ldr	r1, .L1666+8
	mov	r2, r0
	mov	r6, r0
	mov	r0, #19
	bl	dprint_vfmw
	ldrb	r0, [r4, #10]	@ zero_extendqisi2
	cmp	r0, #0
	bne	.L1664
	cmp	r6, #9
	bhi	.L1660
	mov	r1, #1
	movw	r3, #297
	mov	r2, r1, asl r6
	and	r3, r3, r2
	cmp	r3, #0
	bne	.L1661
	ands	r0, r2, #660
	bne	.L1662
	tst	r2, #66
	beq	.L1660
	strb	r1, [r5, #1064]
	ldmfd	sp, {r4, r5, r6, r7, fp, sp, pc}
.L1661:
	strb	r0, [r5, #1064]
	ldmfd	sp, {r4, r5, r6, r7, fp, sp, pc}
.L1660:
	mov	r2, r6
	ldr	r1, .L1666+12
	mov	r0, #1
	bl	dprint_vfmw
.L1664:
	mvn	r0, #0
	ldmfd	sp, {r4, r5, r6, r7, fp, sp, pc}
.L1662:
	mov	r0, r3
	mov	r3, #2
	strb	r3, [r5, #1064]
	ldmfd	sp, {r4, r5, r6, r7, fp, sp, pc}
.L1665:
	ldr	r1, .L1666+16
	mov	r0, #1
	bl	dprint_vfmw
	mvn	r0, #0
	ldmfd	sp, {r4, r5, r6, r7, fp, sp, pc}
.L1667:
	.align	2
.L1666:
	.word	.LC41
	.word	.LC43
	.word	.LC44
	.word	.LC45
	.word	.LC42
	UNWIND(.fnend)
	.size	MVC_SliceCheck, .-MVC_SliceCheck
	.align	2
	.global	MVC_PPSSPSCheck
	.type	MVC_PPSSPSCheck, %function
MVC_PPSSPSCheck:
	UNWIND(.fnstart)
	@ args = 0, pretend = 0, frame = 0
	@ frame_needed = 1, uses_anonymous_args = 0
	UNWIND(.movsp ip)
	mov	ip, sp
	stmfd	sp!, {r4, r5, fp, ip, lr, pc}
	UNWIND(.pad #4)
	UNWIND(.save {r4, r5, fp, ip, lr})
	UNWIND(.setfp fp, ip, #-4)
	sub	fp, ip, #4
	add	r5, r0, #11075584
	mov	r4, r0
	add	r5, r5, #40960
	ldr	r1, .L1680
	mov	r0, #19
	ldr	r2, [r5, #1080]
	bl	dprint_vfmw
	ldr	r3, [r4, #252]
	ldr	r2, [r5, #1080]
	mov	r1, #2240
	mla	r1, r1, r2, r3
	ldrb	r3, [r1, #19]	@ zero_extendqisi2
	cmp	r3, #0
	beq	.L1678
	ldrb	r3, [r5, #1076]	@ zero_extendqisi2
	sxtb	r5, r3
	cmn	r5, #1
	beq	.L1679
	cmp	r3, #0
	bne	.L1673
	ldr	r2, [r1, #28]
	movw	r3, #8500
	movt	r3, 5
	mul	r3, r3, r2
	add	r0, r4, r3
	add	ip, r0, #12992
	add	r3, r0, #286720
	add	ip, ip, #8
	add	r3, r3, #932
	ldrb	ip, [ip, #4]	@ zero_extendqisi2
	cmp	ip, #0
	beq	.L1674
	add	r0, r0, #286720
	ldrb	r0, [r0, #957]	@ zero_extendqisi2
	cmp	r0, #0
	beq	.L1674
.L1672:
	mov	r0, #0
	str	r1, [r4, #244]
	str	r3, [r4, #240]
	ldmfd	sp, {r4, r5, fp, sp, pc}
.L1679:
	ldr	r0, [r4, #248]
	movw	r3, #3992
	ldr	r2, [r1, #28]
	mla	r3, r3, r2, r0
	ldrb	r0, [r3, #25]	@ zero_extendqisi2
	cmp	r0, #0
	bne	.L1672
	ldr	r1, .L1680+4
	mov	r0, #1
	bl	dprint_vfmw
	mov	r0, r5
	ldmfd	sp, {r4, r5, fp, sp, pc}
.L1674:
	ldr	r1, .L1680+8
	mov	r0, #1
	bl	dprint_vfmw
	mvn	r0, #0
	ldmfd	sp, {r4, r5, fp, sp, pc}
.L1678:
	ldr	r1, .L1680+12
	mov	r0, #1
	bl	dprint_vfmw
	mvn	r0, #0
	ldmfd	sp, {r4, r5, fp, sp, pc}
.L1673:
	mov	r2, r5
	ldr	r1, .L1680+16
	mov	r0, #1
	bl	dprint_vfmw
	mvn	r0, #0
	ldmfd	sp, {r4, r5, fp, sp, pc}
.L1681:
	.align	2
.L1680:
	.word	.LC46
	.word	.LC48
	.word	.LC49
	.word	.LC47
	.word	.LC34
	UNWIND(.fnend)
	.size	MVC_PPSSPSCheck, .-MVC_PPSSPSCheck
	.align	2
	.global	MVC_PPSSPSCheckTmpId
	.type	MVC_PPSSPSCheckTmpId, %function
MVC_PPSSPSCheckTmpId:
	UNWIND(.fnstart)
	@ args = 0, pretend = 0, frame = 0
	@ frame_needed = 1, uses_anonymous_args = 0
	UNWIND(.movsp ip)
	mov	ip, sp
	stmfd	sp!, {r4, r5, fp, ip, lr, pc}
	UNWIND(.pad #4)
	UNWIND(.save {r4, r5, fp, ip, lr})
	UNWIND(.setfp fp, ip, #-4)
	sub	fp, ip, #4
	mov	r2, r1
	mov	r5, r1
	mov	r4, r0
	ldr	r1, .L1691
	mov	r0, #19
	bl	dprint_vfmw
	ldr	r2, [r4, #252]
	mov	r3, #2240
	mla	r3, r3, r5, r2
	ldrb	r2, [r3, #19]	@ zero_extendqisi2
	cmp	r2, #0
	beq	.L1688
	ldr	r1, [r4, #36]
	ldr	r2, [r3, #28]
	sub	r3, r1, #1
	cmp	r2, r3
	bhi	.L1689
	add	r3, r4, #11075584
	movw	r1, #1076
	add	r3, r3, #40960
	ldrsb	r5, [r3, r1]
	cmn	r5, #1
	beq	.L1690
.L1687:
	mov	r0, #0
	ldmfd	sp, {r4, r5, fp, sp, pc}
.L1690:
	ldr	r1, [r4, #248]
	movw	r3, #3992
	mla	r3, r3, r2, r1
	ldrb	r3, [r3, #25]	@ zero_extendqisi2
	cmp	r3, #0
	bne	.L1687
	ldr	r1, .L1691+4
	mov	r0, #1
	bl	dprint_vfmw
	mov	r0, r5
	ldmfd	sp, {r4, r5, fp, sp, pc}
.L1688:
	mov	r2, r5
	ldr	r1, .L1691+8
	mov	r0, #1
	bl	dprint_vfmw
	mvn	r0, #0
	ldmfd	sp, {r4, r5, fp, sp, pc}
.L1689:
	ldr	r1, .L1691+12
	mov	r0, #1
	bl	dprint_vfmw
	mvn	r0, #0
	ldmfd	sp, {r4, r5, fp, sp, pc}
.L1692:
	.align	2
.L1691:
	.word	.LC50
	.word	.LC53
	.word	.LC51
	.word	.LC52
	UNWIND(.fnend)
	.size	MVC_PPSSPSCheckTmpId, .-MVC_PPSSPSCheckTmpId
	.align	2
	.global	MVC_IsNewPic
	.type	MVC_IsNewPic, %function
MVC_IsNewPic:
	UNWIND(.fnstart)
	@ args = 0, pretend = 0, frame = 0
	@ frame_needed = 1, uses_anonymous_args = 0
	UNWIND(.movsp ip)
	mov	ip, sp
	stmfd	sp!, {r4, r5, r6, r7, fp, ip, lr, pc}
	UNWIND(.pad #4)
	UNWIND(.save {r4, r5, r6, r7, fp, ip, lr})
	UNWIND(.setfp fp, ip, #-4)
	sub	fp, ip, #4
	add	ip, r0, #11075584
	ldr	lr, [r0, #236]
	add	r3, ip, #40960
	ldr	r1, [lr, #744]
	ldr	r0, [r3, #2728]
	ldr	r2, [r3, #2732]
	ldr	r4, [r3, #1080]
	ldr	r5, [r3, #2736]
	cmp	r2, r4
	cmpeq	r0, r1
	ldr	r2, [r3, #1092]
	ldrb	r4, [r3, #2720]	@ zero_extendqisi2
	ldrb	r0, [r3, #1065]	@ zero_extendqisi2
	movne	r1, #1
	moveq	r1, #0
	cmp	r5, r2
	moveq	r2, r1
	orrne	r2, r1, #1
	cmp	r4, r0
	orrne	r2, r2, #1
	cmp	r4, #0
	cmpne	r0, #0
	beq	.L1695
	ldrb	r0, [r3, #2721]	@ zero_extendqisi2
	ldrb	r1, [r3, #1066]	@ zero_extendqisi2
	cmp	r0, r1
	orrne	r2, r2, #1
.L1695:
	ldrb	r1, [r3, #2723]	@ zero_extendqisi2
	ldrb	r0, [r3, #1072]	@ zero_extendqisi2
	cmp	r1, r0
	moveq	r1, #0
	beq	.L1696
	cmp	r0, #0
	cmpne	r1, #0
	moveq	r1, #1
	movne	r1, #0
.L1696:
	ldrb	r0, [r3, #2722]	@ zero_extendqisi2
	ldrb	r4, [r3, #1067]	@ zero_extendqisi2
	cmp	r0, r4
	orrne	r2, r2, #1
	cmp	r4, #5
	cmpeq	r0, #5
	orr	r2, r2, r1
	beq	.L1708
.L1697:
	ldr	r1, [lr, #2900]
	cmp	r1, #0
	bne	.L1698
	add	r1, ip, #36864
	ldr	r0, [r3, #2748]
	ldr	r4, [r3, #2744]
	ldr	r5, [r1, #4032]
	ldr	lr, [r1, #4028]
	cmp	r4, lr
	cmpeq	r0, r5
	movne	r1, #1
	moveq	r1, #0
	orr	r2, r2, r1
.L1699:
	ldrb	r1, [r3, #1075]	@ zero_extendqisi2
	cmp	r1, #0
	beq	.L1700
	ldr	r1, [r3, #2764]
	ldrb	r0, [r3, #2724]	@ zero_extendqisi2
	ldrb	r6, [r3, #1073]	@ zero_extendqisi2
	ldr	r5, [r3, #2704]
	ldrb	r4, [r3, #2725]	@ zero_extendqisi2
	cmp	r1, r5
	cmpeq	r0, r6
	ldrb	lr, [r3, #1074]	@ zero_extendqisi2
	movne	r1, #1
	moveq	r1, #0
	cmp	r4, lr
	moveq	r3, r1
	orrne	r3, r1, #1
	orr	r2, r2, r3
.L1700:
	add	r3, ip, #40960
	ldr	r1, .L1709
	mov	r0, #19
	ldr	r4, [r3, #1120]
	cmp	r4, #0
	movne	r4, r2
	orreq	r4, r2, #1
	mov	r2, r4
	bl	dprint_vfmw
	mov	r0, r4
	ldmfd	sp, {r4, r5, r6, r7, fp, sp, pc}
.L1698:
	cmp	r1, #1
	bne	.L1699
	add	r1, ip, #36864
	ldr	r0, [r3, #2756]
	ldr	r4, [r3, #2752]
	ldr	r5, [r1, #4068]
	ldr	lr, [r1, #4064]
	cmp	r4, lr
	cmpeq	r0, r5
	movne	r1, #1
	moveq	r1, #0
	orr	r2, r2, r1
	b	.L1699
.L1708:
	ldr	r0, [r3, #2740]
	ldr	r1, [r3, #1108]
	cmp	r0, r1
	orrne	r2, r2, #1
	b	.L1697
.L1710:
	.align	2
.L1709:
	.word	.LC54
	UNWIND(.fnend)
	.size	MVC_IsNewPic, .-MVC_IsNewPic
	.align	2
	.global	mvc_ref_pic_list_reordering
	.type	mvc_ref_pic_list_reordering, %function
mvc_ref_pic_list_reordering:
	UNWIND(.fnstart)
	@ args = 0, pretend = 0, frame = 0
	@ frame_needed = 1, uses_anonymous_args = 0
	UNWIND(.movsp ip)
	mov	ip, sp
	stmfd	sp!, {r4, r5, r6, r7, r8, r9, fp, ip, lr, pc}
	UNWIND(.pad #4)
	UNWIND(.save {r4, r5, r6, r7, r8, r9, fp, ip, lr})
	UNWIND(.setfp fp, ip, #-4)
	sub	fp, ip, #4
	add	r4, r0, #11075584
	ldr	r2, [r0, #240]
	add	r4, r4, #40960
	mov	r5, r0
	mov	r3, #0
	mov	r6, #1
	ldrb	r0, [r4, #1075]	@ zero_extendqisi2
	ldrb	r1, [r4, #1065]	@ zero_extendqisi2
	cmp	r0, r3
	strb	r3, [r4, #12]
	strb	r3, [r4, #13]
	movne	r7, #5
	moveq	r7, #3
	cmp	r1, r3
	ldr	r3, [r2, #2896]
	addne	r3, r3, #5
	addeq	r3, r3, #4
	mov	r6, r6, asl r3
	ldrb	r3, [r4, #1064]	@ zero_extendqisi2
	cmp	r3, #1
	bls	.L1766
.L1765:
	ldrb	r3, [r5, #10]	@ zero_extendqisi2
.L1732:
	adds	r3, r3, #0
	movne	r3, #1
	rsb	r0, r3, #0
	ldmfd	sp, {r4, r5, r6, r7, r8, r9, fp, sp, pc}
.L1766:
	ldr	r1, .L1773
	mov	r0, r5
	bl	mvc_u_1
	uxtb	r0, r0
	strb	r0, [r4, #12]
	cmp	r0, #0
	beq	.L1722
	ldr	r3, [r4, #1124]
	cmn	r3, #2
	beq	.L1748
	movw	r9, #40972
	mov	r8, #0
	movt	r9, 169
	add	r9, r5, r9
	b	.L1729
.L1723:
	cmp	r0, #2
	beq	.L1767
	sub	r0, r0, #4
	cmp	r0, #1
	bls	.L1768
.L1726:
	ldr	r3, [r4, #1124]
	add	r8, r8, #1
	add	r3, r3, #2
	cmp	r3, r8
	bls	.L1769
.L1729:
	ldr	r1, .L1773+4
	mov	r0, r5
	bl	mvc_ue_v
	cmp	r7, r0
	str	r0, [r9, #4]!
	ldrb	r3, [r5, #10]	@ zero_extendqisi2
	bcc	.L1719
	cmp	r3, #0
	bne	.L1719
	cmp	r0, #3
	beq	.L1722
	cmp	r0, #1
	bhi	.L1723
	ldr	r1, .L1773+8
	mov	r0, r5
	bl	mvc_ue_v
	cmp	r6, r0
	str	r0, [r9, #264]
	ldrb	r3, [r5, #10]	@ zero_extendqisi2
	bls	.L1725
	cmp	r3, #0
	beq	.L1726
.L1725:
	mov	r2, r0
	ldr	r1, .L1773+12
	mov	r0, #1
	bl	dprint_vfmw
	mvn	r0, #0
	ldmfd	sp, {r4, r5, r6, r7, r8, r9, fp, sp, pc}
.L1722:
	ldrb	r3, [r4, #1064]	@ zero_extendqisi2
	cmp	r3, #1
	bne	.L1765
	ldr	r1, .L1773+16
	mov	r0, r5
	bl	mvc_u_1
	uxtb	r0, r0
	strb	r0, [r4, #13]
	cmp	r0, #0
	beq	.L1765
	ldr	r3, [r4, #1128]
	cmn	r3, #2
	beq	.L1765
	movw	r9, #41104
	mov	r8, #0
	movt	r9, 169
	add	r9, r5, r9
	b	.L1745
.L1744:
	add	r8, r8, #1
	cmp	r8, r3
	bcs	.L1765
.L1745:
	ldr	r1, .L1773+20
	mov	r0, r5
	bl	mvc_ue_v
	cmp	r7, r0
	str	r0, [r9, #4]!
	ldrb	r3, [r5, #10]	@ zero_extendqisi2
	bcc	.L1736
	cmp	r3, #0
	bne	.L1736
	cmp	r0, #3
	beq	.L1732
	cmp	r0, #1
	bls	.L1770
	cmp	r0, #2
	beq	.L1771
	sub	r0, r0, #4
	cmp	r0, #1
	bls	.L1772
	ldr	r3, [r4, #1128]
	add	r3, r3, #2
	cmp	r3, r8
	bne	.L1744
.L1746:
	ldr	r1, .L1773+24
	mov	r0, #1
	bl	dprint_vfmw
	mvn	r0, #0
	ldmfd	sp, {r4, r5, r6, r7, r8, r9, fp, sp, pc}
.L1770:
	ldr	r1, .L1773+28
	mov	r0, r5
	bl	mvc_ue_v
	cmp	r6, r0
	str	r0, [r9, #264]
	ldrb	r3, [r5, #10]	@ zero_extendqisi2
	bls	.L1740
	cmp	r3, #0
	bne	.L1740
.L1741:
	ldr	r3, [r4, #1128]
	add	r3, r3, #2
	cmp	r3, r8
	bne	.L1744
	ldr	r2, [r9]
	cmp	r2, #3
	beq	.L1744
	b	.L1746
.L1767:
	ldr	r1, .L1773+32
	mov	r0, r5
	bl	mvc_ue_v
	str	r0, [r9, #528]
	b	.L1726
.L1771:
	ldr	r1, .L1773+36
	mov	r0, r5
	bl	mvc_ue_v
	str	r0, [r9, #524]
	b	.L1741
.L1768:
	ldr	r1, .L1773+40
	mov	r0, r5
	bl	mvc_ue_v
	str	r0, [r9, #784]
	b	.L1726
.L1772:
	ldr	r1, .L1773+44
	mov	r0, r5
	bl	mvc_ue_v
	str	r0, [r9, #784]
	b	.L1741
.L1719:
	mov	r2, r0
	ldr	r1, .L1773+48
	mov	r0, #1
	bl	dprint_vfmw
	mvn	r0, #0
	ldmfd	sp, {r4, r5, r6, r7, r8, r9, fp, sp, pc}
.L1736:
	mov	r2, r0
	ldr	r1, .L1773+52
	mov	r0, #1
	bl	dprint_vfmw
	mvn	r0, #0
	ldmfd	sp, {r4, r5, r6, r7, r8, r9, fp, sp, pc}
.L1769:
	cmp	r8, r3
	bne	.L1722
.L1717:
	movw	r2, #26626
	movt	r2, 42
	add	r2, r3, r2
	add	r2, r5, r2, lsl #2
	ldr	r3, [r2, #8]
	cmp	r3, #3
	beq	.L1722
	ldr	r1, .L1773+56
	mov	r0, #1
	bl	dprint_vfmw
	mvn	r0, #0
	ldmfd	sp, {r4, r5, r6, r7, r8, r9, fp, sp, pc}
.L1740:
	mov	r2, r0
	ldr	r1, .L1773+60
	mov	r0, #1
	bl	dprint_vfmw
	mvn	r0, #0
	ldmfd	sp, {r4, r5, r6, r7, r8, r9, fp, sp, pc}
.L1748:
	mov	r3, #0
	b	.L1717
.L1774:
	.align	2
.L1773:
	.word	.LC55
	.word	.LC56
	.word	.LC58
	.word	.LC59
	.word	.LC63
	.word	.LC64
	.word	.LC70
	.word	.LC66
	.word	.LC60
	.word	.LC68
	.word	.LC61
	.word	.LC69
	.word	.LC57
	.word	.LC65
	.word	.LC62
	.word	.LC67
	UNWIND(.fnend)
	.size	mvc_ref_pic_list_reordering, .-mvc_ref_pic_list_reordering
	.align	2
	.global	mvc_pred_weight_table
	.type	mvc_pred_weight_table, %function
mvc_pred_weight_table:
	UNWIND(.fnstart)
	@ args = 0, pretend = 0, frame = 8
	@ frame_needed = 1, uses_anonymous_args = 0
	UNWIND(.movsp ip)
	mov	ip, sp
	stmfd	sp!, {r4, r5, r6, r7, r8, r9, r10, fp, ip, lr, pc}
	UNWIND(.pad #4)
	UNWIND(.save {r4, r5, r6, r7, r8, r9, r10, fp, ip, lr})
	UNWIND(.setfp fp, ip, #-4)
	sub	fp, ip, #4
	UNWIND(.pad #12)
	sub	sp, sp, #12
	ldr	r3, [r0, #244]
	ldr	r1, .L1805
	add	r6, r0, #11075584
	ldr	r7, [r0, #240]
	mov	r5, r0
	str	r3, [fp, #-48]
	bl	mvc_ue_v
	add	r6, r6, #40960
	mov	r4, #1
	str	r0, [r6, #1132]
	mov	r8, r4, asl r0
	ldr	r9, [r7, #748]
	cmp	r9, #0
	bne	.L1799
.L1776:
	cmp	r0, #7
	bhi	.L1779
	ldr	r3, [r6, #1136]
	cmp	r3, #7
	bhi	.L1779
	ldrb	r2, [r5, #10]	@ zero_extendqisi2
	cmp	r2, #0
	movweq	r10, #42228
	moveq	r4, r2
	movteq	r10, 169
	addeq	r10, r5, r10
	beq	.L1787
	b	.L1778
.L1783:
	ldr	r2, [r7, #748]
	cmp	r2, #0
	bne	.L1800
.L1784:
	str	r2, [r10]
	str	r2, [r10, #768]
	str	r2, [r10, #128]
	str	r2, [r10, #896]
.L1786:
	ldr	r2, [r6, #1124]
	add	r4, r4, #1
	add	r10, r10, #4
	cmp	r2, r4
	bcc	.L1801
.L1787:
	ldr	r1, .L1805+4
	mov	r0, r5
	bl	mvc_u_1
	cmp	r0, #0
	streq	r8, [r10, #-128]
	streq	r0, [r10, #640]
	beq	.L1783
	ldr	r1, .L1805+8
	mov	r0, r5
	bl	mvc_se_v
	ldr	r1, .L1805+12
	str	r0, [r10, #-128]
	mov	r0, r5
	bl	mvc_se_v
	str	r0, [r10, #640]
	ldr	r2, [r7, #748]
	cmp	r2, #0
	beq	.L1784
.L1800:
	ldr	r1, .L1805+16
	mov	r0, r5
	bl	mvc_u_1
	cmp	r0, #0
	bne	.L1802
	str	r9, [r10]
	str	r0, [r10, #768]
	str	r9, [r10, #128]
	str	r0, [r10, #896]
	b	.L1786
.L1801:
	ldr	r3, [fp, #-48]
	ldr	r3, [r3, #44]
	cmp	r3, #1
	beq	.L1788
.L1789:
	ldrb	r0, [r5, #10]	@ zero_extendqisi2
	adds	r0, r0, #0
	movne	r0, #1
	rsb	r0, r0, #0
.L1781:
	sub	sp, fp, #40
	ldmfd	sp, {r4, r5, r6, r7, r8, r9, r10, fp, sp, pc}
.L1802:
	ldr	r1, .L1805+20
	mov	r0, r5
	bl	mvc_se_v
	ldr	r1, .L1805+24
	str	r0, [r10]
	mov	r0, r5
	bl	mvc_se_v
	ldr	r1, .L1805+20
	str	r0, [r10, #768]
	mov	r0, r5
	bl	mvc_se_v
	ldr	r1, .L1805+24
	str	r0, [r10, #128]
	mov	r0, r5
	bl	mvc_se_v
	str	r0, [r10, #896]
	b	.L1786
.L1799:
	ldr	r1, .L1805+28
	mov	r0, r5
	bl	mvc_ue_v
	mov	r3, r0
	ldr	r0, [r6, #1132]
	mov	r9, r4, asl r3
	str	r3, [r6, #1136]
	b	.L1776
.L1788:
	ldrb	r3, [r6, #1064]	@ zero_extendqisi2
	cmp	r3, #1
	bne	.L1789
	movw	r4, #42612
	mov	r10, #0
	movt	r4, 169
	add	r4, r5, r4
	b	.L1795
.L1791:
	ldr	r3, [r7, #748]
	cmp	r3, #0
	bne	.L1803
.L1792:
	str	r3, [r4]
	str	r3, [r4, #768]
	str	r3, [r4, #128]
	str	r3, [r4, #896]
.L1794:
	ldr	r3, [r6, #1128]
	add	r10, r10, #1
	add	r4, r4, #4
	cmp	r3, r10
	bcc	.L1789
.L1795:
	ldr	r1, .L1805+32
	mov	r0, r5
	bl	mvc_u_1
	cmp	r0, #0
	streq	r8, [r4, #-128]
	streq	r0, [r4, #640]
	beq	.L1791
	ldr	r1, .L1805+36
	mov	r0, r5
	bl	mvc_se_v
	ldr	r1, .L1805+40
	str	r0, [r4, #-128]
	mov	r0, r5
	bl	mvc_se_v
	str	r0, [r4, #640]
	ldr	r3, [r7, #748]
	cmp	r3, #0
	beq	.L1792
.L1803:
	ldr	r1, .L1805+44
	mov	r0, r5
	bl	mvc_u_1
	cmp	r0, #0
	bne	.L1804
	str	r9, [r4]
	str	r0, [r4, #768]
	str	r9, [r4, #128]
	str	r0, [r4, #896]
	b	.L1794
.L1779:
	ldrb	r2, [r5, #10]	@ zero_extendqisi2
.L1778:
	ldr	r1, .L1805+48
	mov	r0, #1
	bl	dprint_vfmw
	mvn	r0, #0
	b	.L1781
.L1804:
	ldr	r1, .L1805+52
	mov	r0, r5
	bl	mvc_se_v
	ldr	r1, .L1805+56
	str	r0, [r4]
	mov	r0, r5
	bl	mvc_se_v
	ldr	r1, .L1805+52
	str	r0, [r4, #768]
	mov	r0, r5
	bl	mvc_se_v
	ldr	r1, .L1805+56
	str	r0, [r4, #128]
	mov	r0, r5
	bl	mvc_se_v
	str	r0, [r4, #896]
	b	.L1794
.L1806:
	.align	2
.L1805:
	.word	.LC71
	.word	.LC74
	.word	.LC75
	.word	.LC76
	.word	.LC77
	.word	.LC78
	.word	.LC79
	.word	.LC72
	.word	.LC80
	.word	.LC81
	.word	.LC82
	.word	.LC83
	.word	.LC73
	.word	.LC84
	.word	.LC85
	UNWIND(.fnend)
	.size	mvc_pred_weight_table, .-mvc_pred_weight_table
	.align	2
	.global	MVC_DecMMCO
	.type	MVC_DecMMCO, %function
MVC_DecMMCO:
	UNWIND(.fnstart)
	@ args = 0, pretend = 0, frame = 0
	@ frame_needed = 1, uses_anonymous_args = 0
	UNWIND(.movsp ip)
	mov	ip, sp
	stmfd	sp!, {r4, r5, r6, r7, r8, r9, fp, ip, lr, pc}
	UNWIND(.pad #4)
	UNWIND(.save {r4, r5, r6, r7, r8, r9, fp, ip, lr})
	UNWIND(.setfp fp, ip, #-4)
	sub	fp, ip, #4
	cmp	r1, #0
	mov	r4, r0
	moveq	r7, #100
	beq	.L1819
	mov	r9, #0
	b	.L1810
.L1841:
	ldr	r1, .L1847
	mov	r0, r4
	bl	mvc_ue_v
	cmp	r5, #2
	beq	.L1839
.L1821:
	cmp	r5, #6
	orreq	r6, r6, #1
	cmp	r6, #0
	bne	.L1824
	cmp	r5, #4
	beq	.L1840
.L1825:
	cmp	r5, #6
	bhi	.L1817
.L1822:
	ldrb	r3, [r4, #10]	@ zero_extendqisi2
	cmp	r3, #0
	bne	.L1817
	cmp	r5, #0
	beq	.L1827
.L1826:
	subs	r7, r7, #1
	beq	.L1828
.L1819:
	ldr	r1, .L1847+4
	mov	r0, r4
	bl	mvc_ue_v
	bic	r3, r0, #2
	sub	r6, r0, #3
	clz	r6, r6
	cmp	r3, #1
	mov	r5, r0
	mov	r6, r6, lsr #5
	beq	.L1841
	cmp	r5, #2
	bne	.L1821
.L1839:
	ldr	r1, .L1847+8
	mov	r0, r4
	bl	mvc_ue_v
	cmp	r6, #0
	beq	.L1822
.L1824:
	ldr	r1, .L1847+12
	mov	r0, r4
	bl	mvc_ue_v
	cmp	r5, #4
	bne	.L1825
.L1840:
	ldr	r1, .L1847+16
	mov	r0, r4
	bl	mvc_ue_v
	ldrb	r3, [r4, #10]	@ zero_extendqisi2
	cmp	r3, #0
	beq	.L1826
.L1817:
	ldr	r1, .L1847+20
	mov	r0, #1
	bl	dprint_vfmw
	mvn	r0, #0
	ldmfd	sp, {r4, r5, r6, r7, r8, r9, fp, sp, pc}
.L1846:
	ldr	r1, .L1847
	mov	r0, r4
	bl	mvc_ue_v
	ldr	r3, [r8, #4]
	cmp	r3, #2
	str	r0, [r8, #8]
	beq	.L1842
.L1813:
	cmp	r3, #3
	cmpne	r3, #6
	beq	.L1843
.L1814:
	cmp	r3, #4
	beq	.L1844
.L1815:
	cmp	r3, #6
	bhi	.L1817
	ldrb	r2, [r4, #10]	@ zero_extendqisi2
	cmp	r2, #0
	bne	.L1817
	cmp	r3, #0
	add	r9, r9, #1
	beq	.L1827
	cmp	r9, #100
	beq	.L1845
.L1810:
	ldr	r1, .L1847+4
	mov	r0, r4
	ldrb	r5, [r4, #3]	@ zero_extendqisi2
	bl	mvc_ue_v
	mov	r6, r9, asl #2
	mov	r7, r9, asl #4
	add	r1, r6, r7
	movw	r2, #2004
	movw	r8, #43728
	mla	r2, r2, r5, r1
	movt	r8, 169
	add	r2, r4, r2
	add	r8, r2, r8
	mov	r3, r0
	bic	r0, r0, #2
	cmp	r0, #1
	str	r3, [r8, #4]
	beq	.L1846
	cmp	r3, #2
	bne	.L1813
.L1842:
	ldr	r1, .L1847+8
	mov	r0, r4
	bl	mvc_ue_v
	add	r3, r6, r7
	movw	r2, #2004
	movw	r1, #43736
	mla	r3, r2, r5, r3
	movw	r2, #43728
	movt	r1, 169
	movt	r2, 169
	add	r3, r4, r3
	add	r1, r3, r1
	add	r2, r3, r2
	str	r0, [r1, #4]
	ldr	r3, [r2, #4]
	cmp	r3, #3
	cmpne	r3, #6
	bne	.L1814
.L1843:
	ldr	r1, .L1847+12
	mov	r0, r4
	bl	mvc_ue_v
	add	r3, r6, r7
	movw	r2, #2004
	movw	r1, #43736
	mla	r3, r2, r5, r3
	movw	r2, #43728
	movt	r1, 169
	movt	r2, 169
	add	r3, r4, r3
	add	r1, r3, r1
	add	r2, r3, r2
	str	r0, [r1, #8]
	ldr	r3, [r2, #4]
	cmp	r3, #4
	bne	.L1815
.L1844:
	ldr	r1, .L1847+16
	mov	r0, r4
	bl	mvc_ue_v
	add	r6, r6, r7
	movw	r7, #2004
	movw	r2, #43744
	mla	r5, r7, r5, r6
	movw	r3, #43728
	movt	r2, 169
	movt	r3, 169
	add	r5, r4, r5
	add	r2, r5, r2
	add	r3, r5, r3
	str	r0, [r2, #4]
	ldr	r3, [r3, #4]
	b	.L1815
.L1827:
	mov	r0, #0
	ldmfd	sp, {r4, r5, r6, r7, r8, r9, fp, sp, pc}
.L1845:
	ldr	r1, .L1847+24
	mov	r0, #1
	bl	dprint_vfmw
	mvn	r0, #0
	ldmfd	sp, {r4, r5, r6, r7, r8, r9, fp, sp, pc}
.L1828:
	mvn	r0, #0
	ldmfd	sp, {r4, r5, r6, r7, r8, r9, fp, sp, pc}
.L1848:
	.align	2
.L1847:
	.word	.LC88
	.word	.LC87
	.word	.LC89
	.word	.LC90
	.word	.LC91
	.word	.LC92
	.word	.LC86
	UNWIND(.fnend)
	.size	MVC_DecMMCO, .-MVC_DecMMCO
	.align	2
	.global	mvc_dec_ref_pic_marking
	.type	mvc_dec_ref_pic_marking, %function
mvc_dec_ref_pic_marking:
	UNWIND(.fnstart)
	@ args = 0, pretend = 0, frame = 0
	@ frame_needed = 1, uses_anonymous_args = 0
	UNWIND(.movsp ip)
	mov	ip, sp
	stmfd	sp!, {r4, r5, r6, r7, r8, fp, ip, lr, pc}
	UNWIND(.pad #4)
	UNWIND(.save {r4, r5, r6, r7, r8, fp, ip, lr})
	UNWIND(.setfp fp, ip, #-4)
	sub	fp, ip, #4
	UNWIND(.pad #12)
	sub	sp, sp, #12
	add	r3, r0, #11075584
	add	r3, r3, #40960
	mov	r4, r0
	ldrb	r7, [r0, #3]	@ zero_extendqisi2
	ldrb	r8, [r3, #1069]	@ zero_extendqisi2
	cmp	r8, #0
	beq	.L1850
	clz	r2, r7
	mov	r2, r2, lsr #5
	strb	r2, [r0, #3]
	mov	r6, r2
.L1859:
	ldrb	r3, [r3, #1067]	@ zero_extendqisi2
	cmp	r3, #5
	beq	.L1870
	ldr	r1, .L1874
	mov	r0, r4
	bl	mvc_u_1
	movw	r2, #2004
	mla	r6, r2, r6, r4
	movw	r5, #43728
	movt	r5, 169
	ldr	r1, .L1874+4
	add	r5, r6, r5
	mov	r3, r0
	uxtb	r2, r0
	strb	r3, [r5, #3]
	mov	r0, #16
	bl	dprint_vfmw
	ldrb	r3, [r5, #3]	@ zero_extendqisi2
	cmp	r3, #0
	bne	.L1853
.L1857:
	mov	r8, #0
.L1867:
	mov	r0, r8
	sub	sp, fp, #32
	ldmfd	sp, {r4, r5, r6, r7, r8, fp, sp, pc}
.L1850:
	movw	r2, #2004
	movw	r1, #43728
	mla	r2, r2, r7, r0
	movt	r1, 169
	movw	r5, #43728
	mov	r6, r7
	movt	r5, 169
	add	r5, r2, r5
	ldrb	r2, [r2, r1]	@ zero_extendqisi2
	cmp	r2, #0
	beq	.L1859
	ldrb	r3, [r3, #1067]	@ zero_extendqisi2
	cmp	r3, #5
	beq	.L1871
	ldr	r1, .L1874
	ldrb	r6, [r5, #3]	@ zero_extendqisi2
	bl	mvc_u_1
	cmp	r6, r0
	bne	.L1872
	ldrb	r3, [r5, #3]	@ zero_extendqisi2
	cmp	r3, #0
	beq	.L1857
	mov	r1, r8
	mov	r0, r4
	sub	sp, fp, #32
	ldmfd	sp, {r4, r5, r6, r7, r8, fp, sp, lr}
	b	MVC_DecMMCO
.L1853:
	mov	r1, #1
	mov	r0, r4
	bl	MVC_DecMMCO
	cmn	r0, #1
	mov	r8, r0
	movne	r3, #1
	movne	r8, #0
	strneb	r3, [r5]
	bne	.L1867
	mov	r3, #0
	ldr	r1, .L1874+8
	strb	r3, [r5]
	mov	r0, #1
	strb	r7, [r4, #3]
	bl	dprint_vfmw
	b	.L1867
.L1871:
	ldr	r1, .L1874+12
	ldrb	r6, [r5, #1]	@ zero_extendqisi2
	bl	mvc_u_1
	cmp	r6, r0
	bne	.L1873
	mov	r0, r4
	ldr	r1, .L1874+16
	ldrb	r4, [r5, #2]	@ zero_extendqisi2
	bl	mvc_u_1
	cmp	r4, r0
	beq	.L1857
	ldr	r1, .L1874+20
	mov	r0, #1
	bl	dprint_vfmw
	mvn	r8, #0
	b	.L1867
.L1870:
	ldr	r1, .L1874+12
	mov	r0, r4
	bl	mvc_u_1
	movw	r2, #2004
	mla	r2, r2, r6, r4
	movw	r5, #43728
	movt	r5, 169
	ldr	r1, .L1874+16
	mov	r8, #0
	add	r5, r2, r5
	strb	r0, [r5, #1]
	mov	r0, r4
	bl	mvc_u_1
	ldrb	r2, [r5, #1]	@ zero_extendqisi2
	ldr	r1, .L1874+24
	strb	r0, [r5, #2]
	mov	r0, #16
	bl	dprint_vfmw
	mov	r0, r8
	sub	sp, fp, #32
	ldmfd	sp, {r4, r5, r6, r7, r8, fp, sp, pc}
.L1872:
	ldr	r1, .L1874+28
	mov	r0, #1
	bl	dprint_vfmw
	ldr	ip, [r4, #68]
	ldr	r3, [r4, #100]
	mov	r0, #1
	ldr	r2, [r4, #88]
	mvn	r8, #0
	ldr	r1, .L1874+32
	str	ip, [sp]
	bl	dprint_vfmw
	b	.L1867
.L1873:
	ldr	r1, .L1874+36
	mov	r0, #1
	bl	dprint_vfmw
	mvn	r8, #0
	b	.L1867
.L1875:
	.align	2
.L1874:
	.word	.LC96
	.word	.LC97
	.word	.LC98
	.word	.LC93
	.word	.LC94
	.word	.LC100
	.word	.LC95
	.word	.LC101
	.word	.LC102
	.word	.LC99
	UNWIND(.fnend)
	.size	mvc_dec_ref_pic_marking, .-mvc_dec_ref_pic_marking
	.align	2
	.global	MVC_ProcessSliceHeaderFirstPart
	.type	MVC_ProcessSliceHeaderFirstPart, %function
MVC_ProcessSliceHeaderFirstPart:
	UNWIND(.fnstart)
	@ args = 0, pretend = 0, frame = 0
	@ frame_needed = 1, uses_anonymous_args = 0
	UNWIND(.movsp ip)
	mov	ip, sp
	stmfd	sp!, {r3, r4, r5, r6, r7, r8, r9, r10, fp, ip, lr, pc}
	UNWIND(.pad #4)
	UNWIND(.save {r3, r4, r5, r6, r7, r8, r9, r10, fp, ip, lr})
	UNWIND(.setfp fp, ip, #-4)
	sub	fp, ip, #4
	ldr	r1, .L1941
	mov	r4, r0
	bl	mvc_ue_v
	ldr	r3, [r4, #40]
	sub	r3, r3, #1
	cmp	r0, r3
	mov	r6, r0
	bhi	.L1877
	ldrb	r3, [r4, #10]	@ zero_extendqisi2
	cmp	r3, #0
	bne	.L1877
	mov	r1, r0
	mov	r0, r4
	bl	MVC_PPSSPSCheckTmpId
	cmp	r0, #0
	bne	.L1932
	add	r7, r4, #11075584
	mov	r0, r4
	add	r5, r7, #40960
	str	r6, [r5, #1080]
	bl	MVC_PPSSPSCheck
	subs	r8, r0, #0
	bne	.L1933
	ldr	r6, [r4, #240]
	mov	r0, r4
	ldr	r2, .L1941+4
	ldr	r9, [r4, #244]
	ldr	r1, [r6, #2896]
	add	r1, r1, #4
	bl	mvc_u_v
	str	r0, [r5, #1092]
	ldrb	r3, [r4, #10]	@ zero_extendqisi2
	cmp	r3, #0
	bne	.L1930
	adds	r0, r0, #0
	ldrb	r3, [r5, #1067]	@ zero_extendqisi2
	movne	r0, #1
	cmp	r3, #5
	movne	r0, #0
	cmp	r0, #0
	bne	.L1934
.L1883:
	mov	r3, #0
	strb	r3, [r5, #1065]
	strb	r3, [r5, #1066]
	ldrb	r3, [r6, #20]	@ zero_extendqisi2
	cmp	r3, #0
	beq	.L1935
	ldr	r2, [r6, #3948]
	ldr	r1, [r6, #3952]
	add	r3, r2, #1
	mla	r3, r1, r3, r3
.L1906:
	ldrb	r2, [r6, #21]	@ zero_extendqisi2
	cmp	r2, #0
	bne	.L1889
	strb	r2, [r5, #1068]
.L1891:
	ldr	r2, [r5, #1120]
	cmp	r2, r3
	bcs	.L1936
.L1892:
	ldrb	r3, [r5, #1067]	@ zero_extendqisi2
	cmp	r3, #5
	beq	.L1937
.L1894:
	add	r10, r7, #36864
	mov	r3, #0
	str	r3, [r10, #4028]
	str	r3, [r10, #4032]
	ldr	r3, [r6, #2900]
	cmp	r3, #0
	beq	.L1938
.L1898:
	mov	r3, #0
	str	r3, [r10, #4064]
	str	r3, [r10, #4068]
	ldr	r3, [r6, #2900]
	cmp	r3, #1
	beq	.L1939
.L1901:
	ldrb	r3, [r4, #10]	@ zero_extendqisi2
	cmp	r3, #0
	bne	.L1930
	ldrb	r3, [r9, #17]	@ zero_extendqisi2
	cmp	r3, #0
	beq	.L1904
	ldr	r1, .L1941+8
	mov	r0, r4
	bl	mvc_ue_v
	cmp	r0, #0
	bne	.L1905
	ldrb	r3, [r4, #10]	@ zero_extendqisi2
	cmp	r3, #0
	beq	.L1904
.L1905:
	ldr	r1, .L1941+12
	mov	r0, #1
	bl	dprint_vfmw
	ldr	r3, .L1941+16
	ldr	r5, [r3]
	cmp	r5, #0
	beq	.L1930
	mov	r3, #0
	ldr	r0, [r4, #120]
	mov	r2, r3
	mov	r1, #102
	blx	r5
.L1930:
	mvn	r8, #0
.L1916:
	mov	r0, r8
	ldmfd	sp, {r3, r4, r5, r6, r7, r8, r9, r10, fp, sp, pc}
.L1935:
	ldr	r1, .L1941+20
	mov	r0, r4
	bl	mvc_u_1
	uxtb	r0, r0
	strb	r0, [r5, #1065]
	cmp	r0, #0
	bne	.L1940
	ldr	r2, [r6, #3948]
	ldrb	ip, [r6, #20]	@ zero_extendqisi2
	ldr	r1, [r6, #3952]
	add	r3, r2, #1
	cmp	ip, #0
	mla	r3, r1, r3, r3
	bne	.L1908
	mov	r3, r3, asl #1
	b	.L1906
.L1889:
	mov	r2, #1
	strb	r2, [r5, #1068]
.L1909:
	ldr	r2, [r5, #1120]
	cmp	r2, r3, lsr #1
	bcc	.L1892
	ldr	r1, .L1941+24
	mov	r0, #1
	bl	dprint_vfmw
	mvn	r8, #0
	b	.L1916
.L1940:
	ldr	r1, .L1941+28
	mov	r0, r4
	bl	mvc_u_1
	strb	r0, [r5, #1066]
	ldr	r2, [r6, #3948]
	ldrb	r0, [r6, #20]	@ zero_extendqisi2
	ldr	r1, [r6, #3952]
	add	r3, r2, #1
	cmp	r0, #0
	ldrb	r0, [r5, #1065]	@ zero_extendqisi2
	mla	r3, r1, r3, r3
	moveq	r2, #2
	beq	.L1887
.L1908:
	mov	r2, #1
.L1887:
	cmp	r0, #0
	mul	r3, r2, r3
	beq	.L1906
	cmp	r0, #1
	mov	r2, #0
	strb	r2, [r5, #1068]
	bne	.L1891
	b	.L1909
.L1904:
	mov	r0, r4
	add	r7, r7, #40960
	bl	MVC_IsNewPic
	uxtb	r0, r0
	strb	r0, [r7, #1069]
	cmp	r0, #0
	bne	.L1916
	ldr	r2, [r7, #1120]
	ldr	r3, [r7, #2760]
	cmp	r2, r3
	bhi	.L1916
	ldr	r1, .L1941+32
	mov	r0, #1
	bl	dprint_vfmw
	mvn	r8, #0
	b	.L1916
.L1938:
	ldr	r1, [r6, #2904]
	mov	r0, r4
	ldr	r2, .L1941+36
	add	r1, r1, #4
	bl	mvc_u_v
	str	r0, [r10, #4028]
	ldrb	r3, [r9, #1]	@ zero_extendqisi2
	cmp	r3, #0
	beq	.L1898
	ldrb	r3, [r5, #1065]	@ zero_extendqisi2
	cmp	r3, #0
	bne	.L1898
	ldr	r1, .L1941+40
	mov	r0, r4
	bl	mvc_se_v
	str	r0, [r10, #4032]
	b	.L1898
.L1939:
	ldrb	r3, [r6, #18]	@ zero_extendqisi2
	cmp	r3, #0
	bne	.L1901
	ldr	r1, .L1941+44
	mov	r0, r4
	bl	mvc_se_v
	str	r0, [r10, #4064]
	ldrb	r3, [r9, #1]	@ zero_extendqisi2
	cmp	r3, #1
	bne	.L1901
	ldrb	r3, [r5, #1065]	@ zero_extendqisi2
	cmp	r3, #0
	bne	.L1901
	ldr	r1, .L1941+48
	mov	r0, r4
	bl	mvc_se_v
	str	r0, [r10, #4068]
	b	.L1901
.L1877:
	mov	r2, r6
	ldr	r1, .L1941+52
	mvn	r8, #0
	mov	r0, #1
	bl	dprint_vfmw
	mov	r0, r8
	ldmfd	sp, {r3, r4, r5, r6, r7, r8, r9, r10, fp, sp, pc}
.L1937:
	ldr	r1, .L1941+56
	mov	r0, r4
	bl	mvc_ue_v
	cmp	r0, #65536
	str	r0, [r5, #1108]
	bcs	.L1895
	ldrb	r3, [r4, #10]	@ zero_extendqisi2
	cmp	r3, #0
	beq	.L1894
.L1895:
	ldr	r1, .L1941+60
	mov	r0, #1
	bl	dprint_vfmw
	b	.L1894
.L1932:
	ldr	r1, .L1941+64
	mov	r0, #1
	bl	dprint_vfmw
	mvn	r8, #0
	b	.L1916
.L1933:
	ldr	r1, .L1941+68
	mov	r0, #1
	bl	dprint_vfmw
	mvn	r8, #0
	b	.L1916
.L1934:
	ldr	r3, [r5, #2704]
	cmp	r3, #0
	bgt	.L1883
	ldr	r1, .L1941+72
	mov	r0, #1
	bl	dprint_vfmw
	b	.L1883
.L1936:
	ldr	r1, .L1941+76
	mov	r0, #1
	bl	dprint_vfmw
	mvn	r8, #0
	b	.L1916
.L1942:
	.align	2
.L1941:
	.word	.LC103
	.word	.LC107
	.word	.LC119
	.word	.LC120
	.word	g_event_report
	.word	.LC109
	.word	.LC111
	.word	.LC110
	.word	.LC121
	.word	.LC115
	.word	.LC116
	.word	.LC117
	.word	.LC118
	.word	.LC104
	.word	.LC113
	.word	.LC114
	.word	.LC105
	.word	.LC106
	.word	.LC108
	.word	.LC112
	UNWIND(.fnend)
	.size	MVC_ProcessSliceHeaderFirstPart, .-MVC_ProcessSliceHeaderFirstPart
	.align	2
	.global	MVC_ProcessSliceHeaderSecondPart
	.type	MVC_ProcessSliceHeaderSecondPart, %function
MVC_ProcessSliceHeaderSecondPart:
	UNWIND(.fnstart)
	@ args = 0, pretend = 0, frame = 0
	@ frame_needed = 1, uses_anonymous_args = 0
	UNWIND(.movsp ip)
	mov	ip, sp
	stmfd	sp!, {r4, r5, r6, r7, r8, r9, fp, ip, lr, pc}
	UNWIND(.pad #4)
	UNWIND(.save {r4, r5, r6, r7, r8, r9, fp, ip, lr})
	UNWIND(.setfp fp, ip, #-4)
	sub	fp, ip, #4
	add	r4, r0, #11075584
	ldr	r3, [r0, #40]
	add	r4, r4, #40960
	mov	r5, r0
	sub	r3, r3, #1
	ldr	r6, [r0, #244]
	ldr	r2, [r4, #1080]
	cmp	r3, r2
	bcc	.L1944
	ldrb	r7, [r0, #10]	@ zero_extendqisi2
	cmp	r7, #0
	bne	.L1944
	bl	MVC_PPSSPSCheck
	cmp	r0, #0
	bne	.L2026
	ldrb	r3, [r4, #1064]	@ zero_extendqisi2
	cmp	r3, #1
	beq	.L2027
.L1948:
	ldr	r2, [r6, #36]
	cmp	r3, #1
	str	r2, [r4, #1124]
	ldr	r2, [r6, #40]
	str	r2, [r4, #1128]
	bls	.L2028
	cmp	r3, #2
	beq	.L1975
.L1959:
	mov	r3, #32
	str	r3, [r4, #1128]
.L1960:
	mov	r0, r5
	bl	mvc_ref_pic_list_reordering
	subs	r8, r0, #0
	bne	.L2029
	ldrb	r3, [r6, #2]	@ zero_extendqisi2
	cmp	r3, #0
	beq	.L1962
	ldrb	r3, [r4, #1064]	@ zero_extendqisi2
	cmp	r3, #0
	moveq	r7, #1
	moveq	r2, r7
	beq	.L1963
.L1962:
	ldr	r3, [r6, #44]
	cmp	r3, #1
	beq	.L2030
.L1979:
	mov	r2, #0
.L1963:
	strb	r7, [r4, #1071]
	mov	r0, #19
	ldr	r1, .L2036
	bl	dprint_vfmw
	ldrb	r2, [r4, #1071]	@ zero_extendqisi2
	mov	r3, #0
	str	r3, [r4, #1132]
	cmp	r2, r3
	str	r3, [r4, #1136]
	bne	.L2031
.L1964:
	ldrb	r3, [r4, #1072]	@ zero_extendqisi2
	cmp	r3, #0
	bne	.L2032
.L1965:
	mov	r3, #0
	str	r3, [r4, #2676]
	ldrb	r3, [r6]	@ zero_extendqisi2
	cmp	r3, #0
	beq	.L1966
	ldrb	r3, [r4, #1064]	@ zero_extendqisi2
	cmp	r3, #1
	bls	.L2033
.L1966:
	ldr	r1, .L2036+4
	mov	r0, r5
	bl	mvc_se_v
	mov	r3, #0
	str	r3, [r4, #2684]
	str	r3, [r4, #2688]
	str	r3, [r4, #2692]
	str	r0, [r4, #2680]
	ldrb	r3, [r6, #3]	@ zero_extendqisi2
	cmp	r3, #0
	bne	.L2034
.L1995:
	mov	r0, r8
	ldmfd	sp, {r4, r5, r6, r7, r8, r9, fp, sp, pc}
.L1975:
	mov	r3, #32
	str	r3, [r4, #1124]
	b	.L1959
.L2034:
	ldr	r1, .L2036+8
	mov	r0, r5
	bl	mvc_ue_v
	cmp	r0, #2
	str	r0, [r4, #2684]
	bhi	.L1969
	ldrb	r3, [r5, #10]	@ zero_extendqisi2
	cmp	r3, #0
	bne	.L1969
	cmp	r0, #1
	beq	.L1995
	ldr	r1, .L2036+12
	mov	r0, r5
	bl	mvc_se_v
	add	r3, r0, #6
	str	r0, [r4, #2688]
	cmp	r3, #12
	bhi	.L1972
	ldrb	r3, [r5, #10]	@ zero_extendqisi2
	cmp	r3, #0
	bne	.L1972
	ldr	r1, .L2036+16
	mov	r0, r5
	bl	mvc_se_v
	add	r3, r0, #6
	str	r0, [r4, #2692]
	cmp	r3, #12
	bhi	.L1974
	ldrb	r3, [r5, #10]	@ zero_extendqisi2
	cmp	r3, #0
	beq	.L1995
.L1974:
	ldr	r1, .L2036+20
	mov	r0, #1
	bl	dprint_vfmw
	mvn	r8, #0
	b	.L1995
.L2031:
	mov	r0, r5
	bl	mvc_pred_weight_table
	cmp	r0, #0
	beq	.L1964
	ldr	r1, .L2036+24
	mov	r0, #1
	bl	dprint_vfmw
	mvn	r8, #0
	b	.L1995
.L2032:
	mov	r0, r5
	bl	mvc_dec_ref_pic_marking
	cmp	r0, #0
	beq	.L1965
	ldr	r1, .L2036+28
	mov	r0, #1
	bl	dprint_vfmw
	mvn	r8, #0
	b	.L1995
.L2030:
	ldrb	r3, [r4, #1064]	@ zero_extendqisi2
	cmp	r3, #1
	moveq	r7, r3
	moveq	r2, r7
	bne	.L1979
	b	.L1963
.L2027:
	ldr	r1, .L2036+32
	mov	r0, r5
	bl	mvc_u_1
	ldrb	r3, [r4, #1064]	@ zero_extendqisi2
	strb	r0, [r4, #1070]
	b	.L1948
.L2028:
	ldr	r1, .L2036+36
	mov	r0, r5
	bl	mvc_u_1
	cmp	r0, #0
	bne	.L1950
	ldr	r3, [r4, #1124]
.L1951:
	ldrb	r2, [r4, #1065]	@ zero_extendqisi2
	cmp	r2, #0
	bne	.L1952
	cmp	r3, #15
	bhi	.L1953
	ldr	r3, [r4, #1128]
	cmp	r3, #15
	bhi	.L2035
.L1954:
	ldrb	r3, [r5, #10]	@ zero_extendqisi2
	cmp	r3, #0
	bne	.L1953
.L1955:
	ldrb	r3, [r4, #1064]	@ zero_extendqisi2
	cmp	r3, #2
	beq	.L1975
	cmp	r3, #1
	bne	.L1959
	b	.L1960
.L1944:
	ldr	r1, .L2036+40
	mvn	r8, #0
	mov	r0, #1
	bl	dprint_vfmw
	mov	r0, r8
	ldmfd	sp, {r4, r5, r6, r7, r8, r9, fp, sp, pc}
.L2033:
	ldr	r1, .L2036+44
	mov	r0, r5
	bl	mvc_ue_v
	cmp	r0, #2
	str	r0, [r4, #2676]
	bhi	.L1967
	ldrb	r3, [r5, #10]	@ zero_extendqisi2
	cmp	r3, #0
	beq	.L1966
.L1967:
	ldr	r1, .L2036+48
	mov	r0, #1
	bl	dprint_vfmw
	mvn	r8, #0
	b	.L1995
.L1952:
	cmp	r3, #31
	bhi	.L1956
	ldr	r3, [r4, #1128]
	cmp	r3, #31
	bls	.L1957
	ldrb	r3, [r4, #1064]	@ zero_extendqisi2
	cmp	r3, #1
	bne	.L1957
.L1956:
	ldr	r1, .L2036+52
	mov	r0, #1
	bl	dprint_vfmw
	mvn	r8, #0
	b	.L1995
.L1957:
	ldrb	r3, [r5, #10]	@ zero_extendqisi2
	cmp	r3, #0
	beq	.L1955
	b	.L1956
.L2035:
	ldrb	r3, [r4, #1064]	@ zero_extendqisi2
	cmp	r3, #1
	bne	.L1954
.L1953:
	ldr	r1, .L2036+56
	mov	r0, #1
	bl	dprint_vfmw
	mvn	r8, #0
	b	.L1995
.L1950:
	ldr	r1, .L2036+60
	mov	r0, r5
	bl	mvc_ue_v
	ldrb	r2, [r4, #1064]	@ zero_extendqisi2
	cmp	r2, #1
	mov	r3, r0
	str	r0, [r4, #1124]
	bne	.L1951
	ldr	r1, .L2036+64
	mov	r0, r5
	bl	mvc_ue_v
	ldr	r3, [r4, #1124]
	str	r0, [r4, #1128]
	b	.L1951
.L1972:
	ldr	r1, .L2036+68
	mov	r0, #1
	bl	dprint_vfmw
	mvn	r8, #0
	b	.L1995
.L1969:
	ldr	r1, .L2036+72
	mov	r0, #1
	bl	dprint_vfmw
	mvn	r8, #0
	b	.L1995
.L2026:
	ldr	r1, .L2036+76
	mov	r0, #1
	bl	dprint_vfmw
	mvn	r8, #0
	b	.L1995
.L2029:
	ldr	r1, .L2036+80
	mov	r0, #1
	bl	dprint_vfmw
	mvn	r8, #0
	b	.L1995
.L2037:
	.align	2
.L2036:
	.word	.LC129
	.word	.LC134
	.word	.LC135
	.word	.LC137
	.word	.LC139
	.word	.LC140
	.word	.LC130
	.word	.LC131
	.word	.LC122
	.word	.LC123
	.word	.LC104
	.word	.LC132
	.word	.LC133
	.word	.LC127
	.word	.LC126
	.word	.LC124
	.word	.LC125
	.word	.LC138
	.word	.LC136
	.word	.LC105
	.word	.LC128
	UNWIND(.fnend)
	.size	MVC_ProcessSliceHeaderSecondPart, .-MVC_ProcessSliceHeaderSecondPart
	.align	2
	.global	MVC_ExitSlice
	.type	MVC_ExitSlice, %function
MVC_ExitSlice:
	UNWIND(.fnstart)
	@ args = 0, pretend = 0, frame = 0
	@ frame_needed = 1, uses_anonymous_args = 0
	UNWIND(.movsp ip)
	mov	ip, sp
	stmfd	sp!, {r4, r5, fp, ip, lr, pc}
	UNWIND(.pad #4)
	UNWIND(.save {r4, r5, fp, ip, lr})
	UNWIND(.setfp fp, ip, #-4)
	sub	fp, ip, #4
	add	r2, r0, #11075584
	ldr	ip, [r0, #236]
	add	r3, r2, #40960
	ldrb	r1, [r3, #1065]	@ zero_extendqisi2
	ldr	lr, [r3, #1080]
	cmp	r1, #0
	ldr	r5, [r3, #1120]
	str	lr, [r3, #2732]
	ldr	r4, [ip, #744]
	strb	r1, [r3, #2720]
	ldrneb	r1, [r3, #1066]	@ zero_extendqisi2
	ldr	lr, [r3, #1092]
	str	r5, [r3, #2760]
	strneb	r1, [r3, #2721]
	ldrb	r1, [r3, #1067]	@ zero_extendqisi2
	str	lr, [r3, #2736]
	cmp	r1, #5
	ldrb	lr, [r3, #1072]	@ zero_extendqisi2
	strb	r1, [r3, #2722]
	ldreq	r1, [r3, #1108]
	str	r4, [r3, #2728]
	strb	lr, [r3, #2723]
	streq	r1, [r3, #2740]
	ldr	r1, [ip, #2900]
	cmp	r1, #0
	bne	.L2041
	add	r1, r2, #36864
	ldr	lr, [r1, #4028]
	str	lr, [r3, #2744]
	ldr	r1, [r1, #4032]
	str	r1, [r3, #2748]
	ldr	r1, [ip, #2900]
.L2041:
	cmp	r1, #1
	addeq	r2, r2, #36864
	ldreq	r1, [r2, #4064]
	streq	r1, [r3, #2752]
	ldreq	r2, [r2, #4068]
	streq	r2, [r3, #2756]
	ldrb	r2, [r3, #1075]	@ zero_extendqisi2
	cmp	r2, #1
	bne	.L2043
	ldr	ip, [r3, #2704]
	ldrb	r1, [r3, #1073]	@ zero_extendqisi2
	ldrb	r2, [r3, #1074]	@ zero_extendqisi2
	str	ip, [r3, #2764]
	strb	r1, [r3, #2724]
	strb	r2, [r3, #2725]
.L2043:
	ldr	r3, [r0, #80]
	add	r3, r3, #1
	str	r3, [r0, #80]
	ldmfd	sp, {r4, r5, fp, sp, pc}
	UNWIND(.fnend)
	.size	MVC_ExitSlice, .-MVC_ExitSlice
	.align	2
	.global	MVC_PicTypeStatistic
	.type	MVC_PicTypeStatistic, %function
MVC_PicTypeStatistic:
	UNWIND(.fnstart)
	@ args = 0, pretend = 0, frame = 0
	@ frame_needed = 1, uses_anonymous_args = 0
	UNWIND(.movsp ip)
	mov	ip, sp
	stmfd	sp!, {fp, ip, lr, pc}
	UNWIND(.pad #4)
	UNWIND(.save {fp, ip, lr})
	UNWIND(.setfp fp, ip, #-4)
	sub	fp, ip, #4
	add	r3, r0, #11075584
	add	r3, r3, #40960
	ldrb	r2, [r3, #1064]	@ zero_extendqisi2
	cmp	r2, #1
	beq	.L2049
	bcc	.L2050
	cmp	r2, #2
	ldmnefd	sp, {fp, sp, pc}
	ldrb	r3, [r3, #1067]	@ zero_extendqisi2
	add	r0, r0, #11141120
	cmp	r3, #5
	beq	.L2059
.L2052:
	add	r0, r0, #12288
	mov	r3, #0
	strb	r3, [r0, #3493]
	ldmfd	sp, {fp, sp, pc}
.L2050:
	add	r0, r0, #11141120
	add	r3, r0, #12288
	ldrb	r2, [r3, #3492]	@ zero_extendqisi2
	cmp	r2, #2
	movne	r2, #1
	strneb	r2, [r3, #3492]
	b	.L2052
.L2049:
	add	r0, r0, #11141120
	mov	r2, #2
	add	r0, r0, #12288
	mov	r3, #0
	strb	r2, [r0, #3492]
	strb	r3, [r0, #3493]
	ldmfd	sp, {fp, sp, pc}
.L2059:
	add	r0, r0, #12288
	mov	r3, #1
	strb	r3, [r0, #3493]
	ldmfd	sp, {fp, sp, pc}
	UNWIND(.fnend)
	.size	MVC_PicTypeStatistic, .-MVC_PicTypeStatistic
	.align	2
	.global	MVC_CalcStreamBits
	.type	MVC_CalcStreamBits, %function
MVC_CalcStreamBits:
	UNWIND(.fnstart)
	@ args = 0, pretend = 0, frame = 0
	@ frame_needed = 1, uses_anonymous_args = 0
	UNWIND(.movsp ip)
	mov	ip, sp
	stmfd	sp!, {r4, r5, r6, r7, r8, fp, ip, lr, pc}
	UNWIND(.pad #4)
	UNWIND(.save {r4, r5, r6, r7, r8, fp, ip, lr})
	UNWIND(.setfp fp, ip, #-4)
	sub	fp, ip, #4
	UNWIND(.pad #12)
	sub	sp, sp, #12
	add	r3, r0, #11075584
	add	r3, r3, #36864
	mov	r4, r0
	ldrb	r3, [r3, #1784]	@ zero_extendqisi2
	cmp	r3, #0
	beq	.L2061
	ldr	r2, [r0, #232]
	ldr	r3, [r2, #64]
	add	r3, r3, #7
	bic	r3, r3, #7
	str	r3, [r2, #64]
	ldr	r2, [r0, #232]
	ldr	r3, [r2, #72]
	sub	r3, r3, #1
	str	r3, [r2, #72]
.L2061:
	ldr	r0, [r4, #232]
	ldrb	r6, [r0]	@ zero_extendqisi2
	cmp	r6, #0
	beq	.L2072
	mov	r3, #0
	mov	r2, r0
	mov	r5, r3
.L2063:
	add	r3, r3, #1
	ldr	r1, [r2, #12]
	cmp	r3, r6
	add	r2, r2, #28
	add	r5, r5, r1
	bne	.L2063
.L2062:
	mov	r7, r6, asl #5
	ldr	ip, [r0, #72]
	sub	r7, r7, r6, asl #2
	ldr	r2, [r0, #64]
	add	r1, r0, r7
	mov	r3, r5
	str	ip, [sp, #4]
	mov	r0, #7
	ldr	ip, [r1, #12]
	ldr	r1, .L2083
	str	ip, [sp]
	bl	dprint_vfmw
	ldr	r3, [r4, #232]
	mov	r2, r6
	mov	r0, #7
	ldr	r1, .L2083+4
	ldrb	r6, [r3]	@ zero_extendqisi2
	ldr	ip, [r3, #64]
	mov	lr, r6, asl #5
	and	ip, ip, r0
	sub	lr, lr, r6, asl #2
	add	r3, r3, lr
	str	ip, [r3, #24]
	ldr	r3, [r4, #232]
	ldrb	r6, [r3]	@ zero_extendqisi2
	ldr	r8, [r3, #64]
	mov	lr, r6, asl #5
	sub	lr, lr, r6, asl #2
	add	r3, r3, lr
	ldr	ip, [r3, #16]
	add	ip, ip, r8, lsr #3
	rsb	ip, r5, ip
	str	ip, [r3, #28]
	ldr	ip, [r4, #232]
	ldrb	r6, [ip]	@ zero_extendqisi2
	ldr	lr, [ip, #64]
	mov	r3, r6, asl #5
	sub	r3, r3, r6, asl #2
	add	ip, ip, r3
	ldr	r3, [ip, #12]
	add	r3, r5, r3
	rsb	r3, lr, r3, lsl #3
	str	r3, [ip, #20]
	ldr	ip, [r4, #232]
	ldrb	lr, [ip]	@ zero_extendqisi2
	mov	r3, lr, asl #5
	sub	r3, r3, lr, asl #2
	add	r3, ip, r3
	ldr	ip, [r3, #28]
	ldr	lr, [r3, #24]
	and	ip, ip, #3
	add	ip, lr, ip, lsl #3
	str	ip, [r3, #24]
	ldr	ip, [r4, #232]
	ldrb	lr, [ip]	@ zero_extendqisi2
	mov	r3, lr, asl #5
	sub	r3, r3, lr, asl #2
	add	r3, ip, r3
	ldr	ip, [r3, #28]
	bic	ip, ip, #3
	str	ip, [r3, #28]
	ldr	ip, [r4, #232]
	add	r7, ip, r7
	ldrb	r5, [ip]	@ zero_extendqisi2
	ldr	r3, [r7, #24]
	mov	lr, r5, asl #5
	sub	lr, lr, r5, asl #2
	add	ip, ip, lr
	ldr	ip, [ip, #28]
	str	ip, [sp, #4]
	ldr	ip, [r7, #20]
	str	ip, [sp]
	bl	dprint_vfmw
	ldr	ip, [r4, #232]
	ldr	r2, [ip, #68]
	sub	r3, r2, #1
	cmp	r3, #1
	bhi	.L2082
	ldrb	r5, [ip]	@ zero_extendqisi2
	add	r1, r5, #1
	cmp	r2, r1
	movhi	r2, #1
	movls	r2, #0
	cmp	r1, #1
	movhi	r2, #0
	cmp	r2, #0
	beq	.L2065
	add	r5, r5, #2
	mov	r6, #0
.L2066:
	sub	r3, r5, #1
	ldr	r1, .L2083+8
	mov	r0, #7
	mov	lr, r3, asl #5
	mov	r2, r3
	sub	r3, lr, r3, asl #2
	add	ip, ip, r3
	str	r6, [ip, #24]
	ldr	ip, [r4, #232]
	add	ip, ip, r3
	ldr	lr, [ip, #16]
	str	lr, [ip, #28]
	ldr	ip, [r4, #232]
	add	ip, ip, r3
	ldr	lr, [ip, #12]
	mov	lr, lr, asl #3
	str	lr, [ip, #20]
	ldr	ip, [r4, #232]
	add	ip, ip, r3
	ldr	lr, [ip, #28]
	ldr	r7, [ip, #24]
	and	lr, lr, #3
	add	lr, r7, lr, lsl #3
	str	lr, [ip, #24]
	ldr	ip, [r4, #232]
	add	ip, ip, r3
	ldr	lr, [ip, #28]
	bic	lr, lr, #3
	str	lr, [ip, #28]
	ldr	ip, [r4, #232]
	add	ip, ip, r3
	ldr	r3, [ip, #24]
	ldr	ip, [ip, #20]
	str	ip, [sp]
	bl	dprint_vfmw
	ldr	ip, [r4, #232]
	ldr	r3, [ip, #68]
	cmp	r5, #1
	cmpls	r5, r3
	add	r5, r5, #1
	movcc	r2, #1
	movcs	r2, #0
	cmp	r2, #0
	bne	.L2066
	sub	r3, r3, #1
.L2065:
	mov	r2, r3, asl #5
	ldr	r1, [ip, #72]
	sub	r3, r2, r3, asl #2
	add	ip, ip, r3
	ldr	r3, [ip, #20]
	rsb	r3, r1, r3
	str	r3, [ip, #20]
	ldr	lr, [r4, #232]
	ldrb	r1, [lr]	@ zero_extendqisi2
	ldr	ip, [lr, #68]
	cmp	r1, ip
	bcs	.L2060
	sxth	r3, r1
	add	r4, r4, #11141120
	add	r4, r4, #16384
	mov	r2, r3, asl #5
	sub	r3, r2, r3, asl #2
	add	r3, lr, r3
.L2070:
	ldr	r2, [r3, #28]
	add	r1, r1, #1
	ldr	r0, [r4, #112]
	add	r3, r3, #28
	cmp	r2, r0
	strcc	r2, [r4, #112]
	ldrcc	ip, [lr, #68]
	cmp	ip, r1
	bhi	.L2070
.L2060:
	sub	sp, fp, #32
	ldmfd	sp, {r4, r5, r6, r7, r8, fp, sp, pc}
.L2082:
	ldr	r1, .L2083+12
	mov	r0, #0
	sub	sp, fp, #32
	ldmfd	sp, {r4, r5, r6, r7, r8, fp, sp, lr}
	b	dprint_vfmw
.L2072:
	mov	r5, r6
	b	.L2062
.L2084:
	.align	2
.L2083:
	.word	.LC141
	.word	.LC142
	.word	.LC144
	.word	.LC143
	UNWIND(.fnend)
	.size	MVC_CalcStreamBits, .-MVC_CalcStreamBits
	.align	2
	.global	MVC_Scaling_List
	.type	MVC_Scaling_List, %function
MVC_Scaling_List:
	UNWIND(.fnstart)
	@ args = 4, pretend = 0, frame = 8
	@ frame_needed = 1, uses_anonymous_args = 0
	UNWIND(.movsp ip)
	mov	ip, sp
	stmfd	sp!, {r4, r5, r6, r7, r8, r9, r10, fp, ip, lr, pc}
	UNWIND(.pad #4)
	UNWIND(.save {r4, r5, r6, r7, r8, r9, r10, fp, ip, lr})
	UNWIND(.setfp fp, ip, #-4)
	sub	fp, ip, #4
	UNWIND(.pad #12)
	sub	sp, sp, #12
	subs	r7, r3, #0
	str	r0, [fp, #-52]
	mov	r6, r2
	ble	.L2085
	mov	r3, r7
	mov	r0, #8
	ldr	r9, .L2096
	mov	r5, r0
	mov	r4, #0
	mov	r10, #255
	mov	r7, r1
	mov	r8, r3
	b	.L2090
.L2089:
	mov	ip, r3, lsr #2
	and	lr, r3, #3
	str	r5, [r7, r3, asl #2]
	uxtb	r1, r5
	ldr	r3, [r6, ip, asl #2]
	mov	lr, lr, asl #3
	cmp	r4, r8
	bic	r3, r3, r10, asl lr
	orr	r1, r3, r1, asl lr
	str	r1, [r6, ip, asl #2]
	beq	.L2085
.L2090:
	cmp	r8, #16
	ldreq	r3, .L2096+4
	ldrneb	r3, [r4, r9]	@ zero_extendqisi2
	ldreqb	r3, [r4, r3]	@ zero_extendqisi2
	cmp	r0, #0
	add	r4, r4, #1
	beq	.L2089
	ldr	r1, .L2096+8
	ldr	r0, [fp, #-52]
	str	r3, [fp, #-48]
	bl	mvc_se_v
	ldr	r2, [fp, #4]
	ldr	r3, [fp, #-48]
	add	r0, r5, r0
	ands	r0, r0, #255
	moveq	r1, #1
	movne	r1, #0
	cmp	r1, #0
	moveq	r5, r0
	cmp	r3, #0
	movne	r1, #0
	andeq	r1, r1, #1
	str	r1, [r2]
	b	.L2089
.L2085:
	sub	sp, fp, #40
	ldmfd	sp, {r4, r5, r6, r7, r8, r9, r10, fp, sp, pc}
.L2097:
	.align	2
.L2096:
	.word	.LANCHOR0+16
	.word	.LANCHOR0
	.word	.LC145
	UNWIND(.fnend)
	.size	MVC_Scaling_List, .-MVC_Scaling_List
	.align	2
	.global	MVC_ProcessPPS
	.type	MVC_ProcessPPS, %function
MVC_ProcessPPS:
	UNWIND(.fnstart)
	@ args = 0, pretend = 0, frame = 32
	@ frame_needed = 1, uses_anonymous_args = 0
	UNWIND(.movsp ip)
	mov	ip, sp
	stmfd	sp!, {r4, r5, r6, r7, r8, r9, r10, fp, ip, lr, pc}
	UNWIND(.pad #4)
	UNWIND(.save {r4, r5, r6, r7, r8, r9, r10, fp, ip, lr})
	UNWIND(.setfp fp, ip, #-4)
	sub	fp, ip, #4
	UNWIND(.pad #44)
	sub	sp, sp, #44
	mov	r5, r1
	ldr	r1, .L2156
	mov	r4, r0
	bl	mvc_u_1
	strb	r0, [r5]
	ldrb	r3, [r4, #10]	@ zero_extendqisi2
	cmp	r3, #0
	bne	.L2147
	ldr	r1, .L2156+4
	mov	r0, r4
	bl	mvc_u_1
	strb	r0, [r5, #1]
	ldrb	r3, [r4, #10]	@ zero_extendqisi2
	cmp	r3, #0
	bne	.L2147
	ldr	r1, .L2156+8
	mov	r0, r4
	bl	mvc_ue_v
	cmp	r0, #0
	str	r0, [r5, #32]
	bne	.L2102
	ldrb	r3, [r4, #10]	@ zero_extendqisi2
	cmp	r3, #0
	beq	.L2103
.L2102:
	ldr	r1, .L2156+12
	mov	r0, #1
	bl	dprint_vfmw
	ldr	r3, .L2156+16
	ldr	r5, [r3]
	cmp	r5, #0
	beq	.L2147
	mov	r3, #0
	ldr	r0, [r4, #120]
	mov	r2, r3
	mov	r1, #102
	blx	r5
	mvn	r0, #0
.L2100:
	sub	sp, fp, #40
	ldmfd	sp, {r4, r5, r6, r7, r8, r9, r10, fp, sp, pc}
.L2110:
	ldr	r1, .L2156+20
	mov	r0, r4
	bl	mvc_u_1
	ldr	r1, .L2156+24
	str	r0, [r5, #60]
	mov	r0, r4
	bl	mvc_u_1
	uxtb	r0, r0
	strb	r0, [r5, #18]
	cmp	r0, #1
	beq	.L2111
.L2129:
	ldr	r1, .L2156+28
	mov	r0, r4
	bl	mvc_se_v
	add	r3, r0, #12
	str	r0, [r5, #56]
	cmp	r3, #24
	bhi	.L2112
	ldrb	r3, [r4, #10]	@ zero_extendqisi2
	cmp	r3, #0
	beq	.L2130
.L2112:
	ldr	r1, .L2156+32
	mov	r0, #1
	bl	dprint_vfmw
.L2147:
	mvn	r0, #0
	sub	sp, fp, #40
	ldmfd	sp, {r4, r5, r6, r7, r8, r9, r10, fp, sp, pc}
.L2103:
	ldr	r1, .L2156+36
	mov	r0, r4
	bl	mvc_ue_v
	cmp	r0, #31
	str	r0, [r5, #36]
	bhi	.L2104
	ldrb	r3, [r4, #10]	@ zero_extendqisi2
	cmp	r3, #0
	bne	.L2104
	ldr	r1, .L2156+40
	mov	r0, r4
	bl	mvc_ue_v
	cmp	r0, #31
	str	r0, [r5, #40]
	bhi	.L2106
	ldrb	r3, [r4, #10]	@ zero_extendqisi2
	cmp	r3, #0
	bne	.L2106
	ldr	r1, .L2156+44
	mov	r0, r4
	bl	mvc_u_1
	strb	r0, [r5, #2]
	ldrb	r3, [r4, #10]	@ zero_extendqisi2
	cmp	r3, #0
	bne	.L2147
	ldr	r2, .L2156+48
	mov	r1, #2
	mov	r0, r4
	bl	mvc_u_v
	cmp	r0, #2
	str	r0, [r5, #44]
	bhi	.L2148
	ldr	r1, .L2156+52
	mov	r0, r4
	bl	mvc_se_v
	ldr	r1, .L2156+56
	str	r0, [r5, #48]
	mov	r0, r4
	bl	mvc_se_v
	ldr	r1, .L2156+60
	mov	r0, r4
	bl	mvc_se_v
	ldr	r1, .L2156+64
	str	r0, [r5, #52]
	mov	r0, r4
	bl	mvc_u_1
	ldr	r1, .L2156+68
	strb	r0, [r5, #3]
	mov	r0, r4
	bl	mvc_u_1
	ldr	r1, .L2156+72
	strb	r0, [r5, #4]
	mov	r0, r4
	bl	mvc_u_1
	uxtb	r0, r0
	strb	r0, [r5, #17]
	cmp	r0, #0
	bne	.L2149
.L2109:
	ldr	r3, [r5, #52]
	mov	r6, #0
	add	r0, r4, #548
	str	r6, [r5, #60]
	strb	r6, [r5, #18]
	str	r3, [r5, #56]
	bl	BsResidBits
	ldr	r3, [r4, #232]
	ldr	r3, [r3, #72]
	add	r3, r3, #3
	cmp	r0, r3
	bcs	.L2110
.L2130:
	mov	r0, #0
	sub	sp, fp, #40
	ldmfd	sp, {r4, r5, r6, r7, r8, r9, r10, fp, sp, pc}
.L2149:
	ldr	r1, .L2156+76
	mov	r0, #1
	bl	dprint_vfmw
	b	.L2109
.L2104:
	ldr	r1, .L2156+80
	mov	r0, #1
	bl	dprint_vfmw
	mvn	r0, #0
	b	.L2100
.L2106:
	ldr	r1, .L2156+84
	mov	r0, #1
	bl	dprint_vfmw
	mvn	r0, #0
	b	.L2100
.L2111:
	sub	r8, fp, #72
	add	r10, r5, #4
	add	r7, r5, #2016
	add	r9, r5, #64
	b	.L2120
.L2153:
	ldr	r3, [r4, #248]
	ldr	ip, [r5, #28]
	mla	ip, lr, ip, r3
	ldrb	r3, [ip, #27]	@ zero_extendqisi2
	cmp	r3, #1
	beq	.L2150
	ldr	r3, .L2156+88
	cmp	r1, #0
	add	ip, r3, #16
	moveq	r3, ip
	mov	r1, r3
	ldr	r3, .L2156+92
	ldr	r3, [r3, #52]
	blx	r3
.L2115:
	add	r6, r6, #1
	add	r7, r7, #16
	cmp	r6, #6
	add	r9, r9, #64
	beq	.L2151
.L2120:
	ldr	r1, .L2156+96
	mov	r0, r4
	bl	mvc_u_1
	movw	lr, #3992
	clz	r1, r6
	mov	r2, #16
	cmp	r0, #1
	mov	r3, r0
	mov	r0, r7
	str	r3, [r8, #4]!
	strb	r3, [r10, #1]!
	beq	.L2152
	cmp	r6, #0
	cmpne	r6, #3
	mov	r1, r1, lsr #5
	beq	.L2153
	ldr	r3, .L2156+92
	mov	r2, #16
	sub	r1, r7, #16
	mov	r0, r7
	ldr	r3, [r3, #52]
	blx	r3
	b	.L2115
.L2151:
	add	r8, r5, #2112
	add	r10, r5, #448
	sub	r7, fp, #76
	add	r9, r5, #11
	mov	r6, #0
.L2128:
	ldr	r2, [r5, #60]
	mov	r3, #0
	cmp	r2, #1
	strne	r3, [r7]
	strneb	r3, [r9]
	beq	.L2154
.L2123:
	ldr	r1, [r4, #248]
	movw	ip, #3992
	ldr	r3, [r5, #28]
	mov	r0, r8
	mov	r2, #64
	mla	r3, ip, r3, r1
	ldrb	r1, [r3, #27]	@ zero_extendqisi2
	cmp	r1, #1
	beq	.L2155
	ldr	r1, .L2156+100
	cmp	r6, #0
	ldr	r3, .L2156+92
	add	ip, r1, #64
	ldr	r3, [r3, #52]
	movne	r1, ip
	blx	r3
.L2124:
	add	r6, r6, #1
	add	r8, r8, #64
	cmp	r6, #2
	add	r10, r10, #256
	add	r7, r7, #4
	add	r9, r9, #1
	bne	.L2128
	b	.L2129
.L2152:
	mov	r3, r2
	str	r8, [sp]
	mov	r2, r7
	mov	r1, r9
	mov	r0, r4
	bl	MVC_Scaling_List
	ldr	r3, [r8]
	cmp	r3, #1
	bne	.L2115
	ldr	r1, .L2156+88
	mov	r2, #16
	ldr	r3, .L2156+92
	cmp	r6, #2
	add	r0, r1, r2
	ldr	r3, [r3, #52]
	movhi	r1, r0
	mov	r0, r7
	blx	r3
	b	.L2115
.L2150:
	ldr	r3, .L2156+92
	add	r1, r6, #167
	mov	r2, #16
	mov	r0, r7
	add	r1, ip, r1, lsl #4
	ldr	r3, [r3, #52]
	blx	r3
	b	.L2115
.L2148:
	ldr	r1, .L2156+104
	mov	r0, #1
	bl	dprint_vfmw
	mvn	r0, #0
	b	.L2100
.L2154:
	ldr	r1, .L2156+108
	mov	r0, r4
	bl	mvc_u_1
	mov	r2, r8
	mov	r1, r10
	mov	r3, #64
	mov	ip, r0
	cmp	ip, #1
	mov	r0, r4
	str	ip, [r7]
	strb	ip, [r9]
	bne	.L2123
	str	r7, [sp]
	bl	MVC_Scaling_List
	ldr	r3, [r7]
	cmp	r3, #1
	bne	.L2124
	ldr	r1, .L2156+100
	mov	r2, #64
	ldr	r3, .L2156+92
	cmp	r6, #0
	add	r0, r1, r2
	ldr	r3, [r3, #52]
	movne	r1, r0
	mov	r0, r8
	blx	r3
	b	.L2124
.L2155:
	add	r1, r3, r6, lsl #6
	ldr	r3, .L2156+92
	add	r1, r1, #2768
	ldr	r3, [r3, #52]
	blx	r3
	b	.L2124
.L2157:
	.align	2
.L2156:
	.word	.LC146
	.word	.LC147
	.word	.LC148
	.word	.LC149
	.word	g_event_report
	.word	.LC164
	.word	.LC165
	.word	.LC166
	.word	.LC169
	.word	.LC150
	.word	.LC152
	.word	.LC154
	.word	.LC155
	.word	.LC157
	.word	.LC158
	.word	.LC159
	.word	.LC160
	.word	.LC161
	.word	.LC162
	.word	.LC163
	.word	.LC151
	.word	.LC153
	.word	.LANCHOR1
	.word	vfmw_Osal_Func_Ptr_S
	.word	.LC167
	.word	.LANCHOR1+32
	.word	.LC156
	.word	.LC168
	UNWIND(.fnend)
	.size	MVC_ProcessPPS, .-MVC_ProcessPPS
	.align	2
	.global	MVC_PPSEqual
	.type	MVC_PPSEqual, %function
MVC_PPSEqual:
	UNWIND(.fnstart)
	@ args = 0, pretend = 0, frame = 24
	@ frame_needed = 1, uses_anonymous_args = 0
	UNWIND(.movsp ip)
	mov	ip, sp
	stmfd	sp!, {r4, r5, r6, r7, r8, r9, r10, fp, ip, lr, pc}
	UNWIND(.pad #4)
	UNWIND(.save {r4, r5, r6, r7, r8, r9, r10, fp, ip, lr})
	UNWIND(.setfp fp, ip, #-4)
	sub	fp, ip, #4
	UNWIND(.pad #28)
	sub	sp, sp, #28
	subs	r7, r0, #0
	beq	.L2185
	cmp	r1, #0
	beq	.L2186
	ldr	r2, [r1, #28]
	ldr	r0, [r7, #28]
	ldr	r3, [r7, #24]
	ldr	ip, [r1, #24]
	ldrb	lr, [r7]	@ zero_extendqisi2
	cmp	r0, r2
	cmpeq	r3, ip
	ldrb	r4, [r1]	@ zero_extendqisi2
	ldrb	ip, [r7, #1]	@ zero_extendqisi2
	ldrb	r5, [r1, #1]	@ zero_extendqisi2
	moveq	r2, #1
	movne	r2, #0
	ldr	r0, [r7, #36]
	cmp	lr, r4
	movne	r3, #0
	andeq	r3, r2, #1
	ldr	r4, [r1, #36]
	cmp	ip, r5
	movne	lr, #0
	andeq	lr, r3, #1
	ldr	r2, [r7, #40]
	ldr	r5, [r1, #40]
	cmp	r0, r4
	movne	ip, #0
	andeq	ip, lr, #1
	ldrb	r3, [r7, #2]	@ zero_extendqisi2
	ldrb	r4, [r1, #2]	@ zero_extendqisi2
	cmp	r2, r5
	movne	r0, #0
	andeq	r0, ip, #1
	ldr	lr, [r7, #44]
	ldr	r5, [r1, #44]
	cmp	r3, r4
	movne	r2, #0
	andeq	r2, r0, #1
	ldr	ip, [r7, #48]
	ldr	r4, [r1, #48]
	cmp	lr, r5
	movne	r3, #0
	andeq	r3, r2, #1
	ldr	r0, [r7, #52]
	ldr	r5, [r1, #52]
	cmp	ip, r4
	movne	lr, #0
	andeq	lr, r3, #1
	ldrb	r2, [r7, #3]	@ zero_extendqisi2
	ldrb	r4, [r1, #3]	@ zero_extendqisi2
	cmp	r0, r5
	movne	ip, #0
	andeq	ip, lr, #1
	ldrb	r3, [r7, #4]	@ zero_extendqisi2
	ldrb	lr, [r1, #4]	@ zero_extendqisi2
	cmp	r2, r4
	movne	r0, #0
	andeq	r0, ip, #1
	ldr	ip, [r7, #60]
	ldr	r4, [r1, #60]
	cmp	r3, lr
	movne	r2, #0
	andeq	r2, r0, #1
	ldrb	r0, [r7, #18]	@ zero_extendqisi2
	ldrb	lr, [r1, #18]	@ zero_extendqisi2
	cmp	ip, r4
	movne	r3, #0
	andeq	r3, r2, #1
	cmp	lr, r0
	movne	r3, #0
	andeq	r3, r3, #1
	cmp	r0, #0
	beq	.L2162
	mov	ip, ip, asl #1
	adds	r2, ip, #6
	str	r2, [fp, #-60]
	beq	.L2162
	sub	r2, r7, #1088
	sub	r10, r1, #1088
	add	r0, r1, #64
	sub	r2, r2, #4
	sub	r10, r10, #4
	str	r2, [fp, #-48]
	add	r9, r7, #1984
	add	r2, r7, #4
	add	r8, r1, #1984
	str	r2, [fp, #-56]
	add	r2, r1, #4
	str	r2, [fp, #-52]
	sub	r2, r7, #836
	mov	ip, r7
	mov	r6, #0
	mov	r5, r0
	str	r7, [fp, #-64]
	str	r1, [fp, #-68]
.L2167:
	ldr	r0, [fp, #-56]
	ldrb	r1, [r0, #1]!	@ zero_extendqisi2
	str	r0, [fp, #-56]
	ldr	r0, [fp, #-52]
	ldrsb	lr, [r0, #1]!
	str	r0, [fp, #-52]
	sxtb	r0, r1
	cmp	lr, r0
	movne	r3, #0
	andeq	r3, r3, #1
	cmp	r1, #0
	beq	.L2184
	ldr	r1, [r9]
	ldr	r0, [r8]
	cmp	r1, r0
	movne	r3, #0
	andeq	r3, r3, #1
	cmp	r6, #5
	bhi	.L2164
	cmp	r1, #0
	add	r7, ip, #64
	bne	.L2163
	add	r0, ip, #128
	mov	r1, r7
	mov	ip, r5
.L2165:
	ldr	r4, [r1], #4
	ldr	lr, [ip], #4
	cmp	r4, lr
	movne	r3, #0
	andeq	r3, r3, #1
	cmp	r1, r0
	bne	.L2165
.L2163:
	ldr	r1, [fp, #-60]
	add	r6, r6, #1
	add	r9, r9, #4
	add	r8, r8, #4
	cmp	r6, r1
	ldr	r1, [fp, #-48]
	add	r10, r10, #256
	add	r2, r2, #256
	add	r1, r1, #256
	mov	ip, r7
	str	r1, [fp, #-48]
	add	r5, r5, #64
	bne	.L2167
	ldr	r7, [fp, #-64]
	ldr	r1, [fp, #-68]
.L2162:
	ldr	r0, [r7, #56]
	ldr	r2, [r1, #56]
	cmp	r0, r2
	movne	r0, #0
	andeq	r0, r3, #1
	eor	r0, r0, #1
	rsb	r0, r0, #0
.L2160:
	sub	sp, fp, #40
	ldmfd	sp, {r4, r5, r6, r7, r8, r9, r10, fp, sp, pc}
.L2164:
	cmp	r1, #0
	bne	.L2184
	ldr	r1, [fp, #-48]
	mov	lr, r10
.L2166:
	ldr	r4, [r1, #4]!
	ldr	r0, [lr, #4]!
	cmp	r4, r0
	movne	r3, #0
	andeq	r3, r3, #1
	cmp	r2, r1
	bne	.L2166
.L2184:
	add	r7, ip, #64
	b	.L2163
.L2186:
	mov	r0, r1
	movw	r3, #9880
	ldr	r2, .L2187
	ldr	r1, .L2187+4
	bl	dprint_vfmw
	mvn	r0, #0
	b	.L2160
.L2185:
	movw	r3, #9879
	ldr	r2, .L2187
	ldr	r1, .L2187+4
	bl	dprint_vfmw
	mvn	r0, #0
	b	.L2160
.L2188:
	.align	2
.L2187:
	.word	.LC13
	.word	.LC14
	UNWIND(.fnend)
	.size	MVC_PPSEqual, .-MVC_PPSEqual
	.align	2
	.global	MVC_DecPPS
	.type	MVC_DecPPS, %function
MVC_DecPPS:
	UNWIND(.fnstart)
	@ args = 0, pretend = 0, frame = 8
	@ frame_needed = 1, uses_anonymous_args = 0
	UNWIND(.movsp ip)
	mov	ip, sp
	stmfd	sp!, {r4, r5, r6, r7, r8, fp, ip, lr, pc}
	UNWIND(.pad #4)
	UNWIND(.save {r4, r5, r6, r7, r8, fp, ip, lr})
	UNWIND(.setfp fp, ip, #-4)
	sub	fp, ip, #4
	UNWIND(.pad #12)
	sub	sp, sp, #12
	ldr	r1, .L2204
	mov	r4, r0
	bl	mvc_ue_v
	ldr	r3, [r4, #40]
	sub	r3, r3, #1
	cmp	r0, r3
	mov	r5, r0
	bls	.L2190
	mov	r2, r0
	ldr	r1, .L2204+4
	mov	r0, #1
	bl	dprint_vfmw
	ldr	r2, [r4, #40]
	sub	r3, r2, #1
	cmp	r5, r3
	bls	.L2197
	ldr	r3, .L2204+8
	ldr	r6, [r3]
	cmp	r6, #0
	beq	.L2197
	str	r2, [fp, #-40]
	mov	r3, #8
	str	r5, [fp, #-44]
	sub	r2, fp, #44
	ldr	r0, [r4, #120]
	mov	r1, #110
	blx	r6
	mvn	r0, #0
.L2191:
	sub	sp, fp, #32
	ldmfd	sp, {r4, r5, r6, r7, r8, fp, sp, pc}
.L2190:
	ldr	r1, .L2204+12
	mov	r0, r4
	bl	mvc_ue_v
	ldr	r3, [r4, #36]
	sub	r3, r3, #1
	cmp	r0, r3
	mov	ip, r0
	bhi	.L2201
	mov	r8, #2240
	ldr	r3, [r4, #252]
	mul	r6, r8, r5
	add	r3, r3, r6
	ldrb	r7, [r3, #19]	@ zero_extendqisi2
	cmp	r7, #0
	beq	.L2193
	ldr	r7, .L2204+16
	mov	r0, r4
	mov	r1, r7
	str	r5, [r7, #24]
	str	ip, [r7, #28]
	bl	MVC_ProcessPPS
	subs	r5, r0, #0
	bne	.L2202
	ldr	r1, [r4, #252]
	mov	r0, r7
	add	r1, r1, r6
	bl	MVC_PPSEqual
	cmp	r0, #0
	beq	.L2191
	ldr	ip, .L2204+20
	mov	r3, #1
	ldr	r0, [r4, #252]
	mov	r2, r8
	strb	r3, [r7, #20]
	mov	r1, r7
	add	r0, r0, r6
	ldr	r4, [ip, #56]
	strb	r3, [r7, #19]
	blx	r4
	mov	r0, r5
	b	.L2191
.L2193:
	str	r5, [r3, #24]
	mov	r0, r4
	ldr	r3, [r4, #252]
	add	r3, r3, r6
	str	ip, [r3, #28]
	ldr	r1, [r4, #252]
	add	r1, r1, r6
	bl	MVC_ProcessPPS
	cmp	r0, #0
	bne	.L2203
	ldr	r3, [r4, #252]
	mov	r2, #1
	add	r3, r3, r6
	strb	r2, [r3, #20]
	ldr	r3, [r4, #252]
	add	r6, r3, r6
	strb	r2, [r6, #19]
	sub	sp, fp, #32
	ldmfd	sp, {r4, r5, r6, r7, r8, fp, sp, pc}
.L2197:
	mvn	r0, #0
	sub	sp, fp, #32
	ldmfd	sp, {r4, r5, r6, r7, r8, fp, sp, pc}
.L2201:
	ldr	r1, .L2204+24
	mov	r0, #1
	bl	dprint_vfmw
	mvn	r0, #0
	b	.L2191
.L2202:
	movw	r2, #9644
	ldr	r1, .L2204+28
	mov	r0, #1
	bl	dprint_vfmw
	mvn	r0, #0
	b	.L2191
.L2203:
	movw	r2, #9663
	ldr	r1, .L2204+28
	mov	r0, #1
	bl	dprint_vfmw
	ldr	r3, [r4, #252]
	mov	r2, #1
	mvn	r0, #0
	add	r3, r3, r6
	strb	r2, [r3, #20]
	ldr	r3, [r4, #252]
	add	r6, r3, r6
	strb	r7, [r6, #19]
	b	.L2191
.L2205:
	.align	2
.L2204:
	.word	.LC170
	.word	.LC171
	.word	g_event_report
	.word	.LC172
	.word	.LANCHOR2
	.word	vfmw_Osal_Func_Ptr_S
	.word	.LC173
	.word	.LC174
	UNWIND(.fnend)
	.size	MVC_DecPPS, .-MVC_DecPPS
	.align	2
	.global	mvc_vui_parameters
	.type	mvc_vui_parameters, %function
mvc_vui_parameters:
	UNWIND(.fnstart)
	@ args = 0, pretend = 0, frame = 0
	@ frame_needed = 1, uses_anonymous_args = 0
	UNWIND(.movsp ip)
	mov	ip, sp
	stmfd	sp!, {r4, r5, r6, r7, r8, r9, fp, ip, lr, pc}
	UNWIND(.pad #4)
	UNWIND(.save {r4, r5, r6, r7, r8, r9, fp, ip, lr})
	UNWIND(.setfp fp, ip, #-4)
	sub	fp, ip, #4
	mov	r5, r1
	ldr	r1, .L2254
	mov	r4, r0
	bl	mvc_u_1
	uxtb	r0, r0
	strb	r0, [r5]
	cmp	r0, #0
	streqb	r0, [r5, #15]
	bne	.L2248
.L2208:
	ldr	r1, .L2254+4
	mov	r0, r4
	bl	mvc_u_1
	uxtb	r0, r0
	strb	r0, [r5, #1]
	cmp	r0, #0
	bne	.L2249
.L2209:
	ldr	r1, .L2254+8
	mov	r0, r4
	bl	mvc_u_1
	uxtb	r0, r0
	strb	r0, [r5, #3]
	cmp	r0, #0
	moveq	r3, #5
	streq	r3, [r5, #28]
	bne	.L2250
.L2211:
	ldr	r1, .L2254+12
	mov	r0, r4
	bl	mvc_u_1
	uxtb	r0, r0
	strb	r0, [r5, #6]
	cmp	r0, #0
	bne	.L2251
.L2212:
	ldr	r1, .L2254+16
	mov	r0, r4
	bl	mvc_u_1
	uxtb	r0, r0
	strb	r0, [r5, #8]
	cmp	r0, #0
	bne	.L2252
.L2214:
	ldr	r1, .L2254+20
	mov	r0, r4
	bl	mvc_u_1
	uxtb	r0, r0
	strb	r0, [r5, #7]
	cmp	r0, #0
	beq	.L2216
	ldr	r1, .L2254+24
	mov	r0, r4
	bl	mvc_ue_v
	ldr	r2, .L2254+28
	mov	r1, #4
	str	r0, [r5, #96]
	mov	r0, r4
	bl	mvc_u_v
	ldr	r2, .L2254+32
	mov	r1, #4
	strb	r0, [r5, #92]
	mov	r0, r4
	bl	mvc_u_v
	ldr	r3, [r5, #96]
	cmp	r3, #31
	strb	r0, [r5, #93]
	bhi	.L2219
	ldrb	r6, [r4, #10]	@ zero_extendqisi2
	cmp	r6, #0
	bne	.L2219
	add	r7, r5, #96
	add	r8, r5, #59
.L2220:
	ldr	r1, .L2254+36
	mov	r0, r4
	bl	mvc_ue_v
	ldr	r1, .L2254+40
	add	r6, r6, #1
	str	r0, [r7, #4]!
	mov	r0, r4
	bl	mvc_ue_v
	ldr	r1, .L2254+44
	str	r0, [r7, #128]
	mov	r0, r4
	bl	mvc_u_1
	strb	r0, [r8, #1]!
	ldr	r3, [r5, #96]
	cmp	r3, r6
	bcs	.L2220
	ldr	r2, .L2254+48
	mov	r1, #5
	mov	r0, r4
	bl	mvc_u_v
	ldr	r2, .L2254+52
	mov	r1, #5
	str	r0, [r5, #356]
	mov	r0, r4
	bl	mvc_u_v
	ldr	r2, .L2254+56
	mov	r1, #5
	str	r0, [r5, #360]
	mov	r0, r4
	bl	mvc_u_v
	ldr	r2, .L2254+60
	mov	r1, #5
	str	r0, [r5, #364]
	mov	r0, r4
	bl	mvc_u_v
	str	r0, [r5, #368]
.L2216:
	ldr	r1, .L2254+64
	mov	r0, r4
	bl	mvc_u_1
	uxtb	r0, r0
	strb	r0, [r5, #10]
	cmp	r0, #0
	bne	.L2253
	ldrb	r3, [r5, #7]	@ zero_extendqisi2
	cmp	r3, #0
	bne	.L2225
.L2224:
	ldr	r1, .L2254+68
	mov	r0, r4
	bl	mvc_u_1
	ldr	r1, .L2254+72
	strb	r0, [r5, #11]
	mov	r0, r4
	bl	mvc_u_1
	uxtb	r0, r0
	strb	r0, [r5, #12]
	cmp	r0, #0
	bne	.L2226
	ldrb	r0, [r4, #10]	@ zero_extendqisi2
.L2227:
	adds	r0, r0, #0
	movne	r0, #1
	rsb	r0, r0, #0
	ldmfd	sp, {r4, r5, r6, r7, r8, r9, fp, sp, pc}
.L2253:
	ldr	r1, .L2254+24
	mov	r0, r4
	bl	mvc_ue_v
	ldr	r2, .L2254+28
	mov	r1, #4
	str	r0, [r5, #408]
	mov	r0, r4
	bl	mvc_u_v
	ldr	r2, .L2254+32
	mov	r1, #4
	strb	r0, [r5, #404]
	mov	r0, r4
	bl	mvc_u_v
	ldr	r3, [r5, #408]
	cmp	r3, #31
	strb	r0, [r5, #405]
	bhi	.L2219
	ldrb	r6, [r4, #10]	@ zero_extendqisi2
	cmp	r6, #0
	bne	.L2219
	add	r8, r5, #368
	add	r7, r5, #408
	add	r8, r8, #3
.L2222:
	ldr	r1, .L2254+36
	mov	r0, r4
	bl	mvc_ue_v
	ldr	r1, .L2254+40
	add	r6, r6, #1
	str	r0, [r7, #4]!
	mov	r0, r4
	bl	mvc_ue_v
	ldr	r1, .L2254+44
	str	r0, [r7, #128]
	mov	r0, r4
	bl	mvc_u_1
	strb	r0, [r8, #1]!
	ldr	r3, [r5, #408]
	cmp	r3, r6
	bcs	.L2222
	ldr	r2, .L2254+48
	mov	r1, #5
	mov	r0, r4
	bl	mvc_u_v
	ldr	r2, .L2254+52
	mov	r1, #5
	str	r0, [r5, #668]
	mov	r0, r4
	bl	mvc_u_v
	ldr	r2, .L2254+56
	mov	r1, #5
	str	r0, [r5, #672]
	mov	r0, r4
	bl	mvc_u_v
	ldr	r2, .L2254+60
	mov	r1, #5
	str	r0, [r5, #676]
	mov	r0, r4
	bl	mvc_u_v
	ldrb	r3, [r5, #7]	@ zero_extendqisi2
	cmp	r3, #0
	str	r0, [r5, #680]
	bne	.L2225
	ldrb	r3, [r5, #10]	@ zero_extendqisi2
	cmp	r3, #0
	beq	.L2224
.L2225:
	ldr	r1, .L2254+76
	mov	r0, r4
	bl	mvc_u_1
	strb	r0, [r5, #14]
	b	.L2224
.L2252:
	ldr	r2, .L2254+80
	mov	r1, #32
	mov	r0, r4
	bl	mvc_u_v
	ldr	r2, .L2254+84
	mov	r1, #32
	str	r0, [r5, #52]
	mov	r0, r4
	bl	mvc_u_v
	ldr	r1, .L2254+88
	str	r0, [r5, #56]
	mov	r0, r4
	bl	mvc_u_1
	ldr	r1, [r5, #52]
	cmp	r1, #0
	strb	r0, [r5, #9]
	beq	.L2214
	ldr	r3, [r5, #56]
	mov	r0, #1000
	mul	r0, r0, r3
	bl	__aeabi_uidiv
	mov	r0, r0, lsr #1
	str	r0, [r4, #56]
	b	.L2214
.L2251:
	ldr	r1, .L2254+92
	mov	r0, r4
	bl	mvc_ue_v
	ldr	r1, .L2254+96
	str	r0, [r5, #44]
	mov	r0, r4
	bl	mvc_ue_v
	str	r0, [r5, #48]
	b	.L2212
.L2250:
	ldr	r2, .L2254+100
	mov	r1, #3
	mov	r0, r4
	bl	mvc_u_v
	ldr	r1, .L2254+104
	str	r0, [r5, #28]
	mov	r0, r4
	bl	mvc_u_1
	ldr	r1, .L2254+108
	strb	r0, [r5, #4]
	mov	r0, r4
	bl	mvc_u_1
	uxtb	r0, r0
	strb	r0, [r5, #5]
	cmp	r0, #0
	beq	.L2211
	ldr	r2, .L2254+112
	mov	r1, #8
	mov	r0, r4
	bl	mvc_u_v
	ldr	r2, .L2254+116
	mov	r1, #8
	str	r0, [r5, #32]
	mov	r0, r4
	bl	mvc_u_v
	ldr	r2, .L2254+120
	mov	r1, #8
	str	r0, [r5, #36]
	mov	r0, r4
	bl	mvc_u_v
	str	r0, [r5, #40]
	b	.L2211
.L2249:
	ldr	r1, .L2254+124
	mov	r0, r4
	bl	mvc_u_1
	strb	r0, [r5, #2]
	b	.L2209
.L2248:
	ldr	r2, .L2254+128
	mov	r1, #8
	mov	r0, r4
	bl	mvc_u_v
	uxtb	r0, r0
	strb	r0, [r5, #15]
	cmp	r0, #255
	bne	.L2208
	ldr	r2, .L2254+132
	mov	r1, #16
	mov	r0, r4
	bl	mvc_u_v
	ldr	r2, .L2254+136
	mov	r1, #16
	str	r0, [r5, #16]
	mov	r0, r4
	bl	mvc_u_v
	str	r0, [r5, #20]
	b	.L2208
.L2226:
	ldr	r1, .L2254+140
	mov	r0, r4
	bl	mvc_u_1
	ldr	r1, .L2254+144
	strb	r0, [r5, #13]
	mov	r0, r4
	bl	mvc_ue_v
	ldr	r1, .L2254+148
	str	r0, [r5, #684]
	mov	r0, r4
	bl	mvc_ue_v
	ldr	r1, .L2254+152
	str	r0, [r5, #688]
	mov	r0, r4
	bl	mvc_ue_v
	ldr	r1, .L2254+156
	str	r0, [r5, #696]
	mov	r0, r4
	bl	mvc_ue_v
	ldr	r1, .L2254+160
	str	r0, [r5, #692]
	mov	r0, r4
	bl	mvc_ue_v
	ldr	r1, .L2254+164
	str	r0, [r5, #700]
	mov	r0, r4
	bl	mvc_ue_v
	str	r0, [r5, #704]
	ldrb	r0, [r4, #10]	@ zero_extendqisi2
	cmp	r0, #0
	beq	.L2227
	mvn	r0, #0
	ldmfd	sp, {r4, r5, r6, r7, r8, r9, fp, sp, pc}
.L2219:
	ldr	r1, .L2254+168
	mov	r0, #1
	bl	dprint_vfmw
	mvn	r0, #0
	ldmfd	sp, {r4, r5, r6, r7, r8, r9, fp, sp, pc}
.L2255:
	.align	2
.L2254:
	.word	.LC175
	.word	.LC179
	.word	.LC181
	.word	.LC188
	.word	.LC191
	.word	.LC195
	.word	.LC196
	.word	.LC197
	.word	.LC198
	.word	.LC200
	.word	.LC201
	.word	.LC202
	.word	.LC203
	.word	.LC204
	.word	.LC205
	.word	.LC206
	.word	.LC207
	.word	.LC209
	.word	.LC210
	.word	.LC208
	.word	.LC192
	.word	.LC193
	.word	.LC194
	.word	.LC189
	.word	.LC190
	.word	.LC182
	.word	.LC183
	.word	.LC184
	.word	.LC185
	.word	.LC186
	.word	.LC187
	.word	.LC180
	.word	.LC176
	.word	.LC177
	.word	.LC178
	.word	.LC211
	.word	.LC212
	.word	.LC213
	.word	.LC214
	.word	.LC215
	.word	.LC216
	.word	.LC217
	.word	.LC199
	UNWIND(.fnend)
	.size	mvc_vui_parameters, .-mvc_vui_parameters
	.align	2
	.global	MVC_SPSEqual
	.type	MVC_SPSEqual, %function
MVC_SPSEqual:
	UNWIND(.fnstart)
	@ args = 0, pretend = 0, frame = 16
	@ frame_needed = 1, uses_anonymous_args = 0
	UNWIND(.movsp ip)
	mov	ip, sp
	stmfd	sp!, {r4, r5, r6, r7, r8, r9, r10, fp, ip, lr, pc}
	UNWIND(.pad #4)
	UNWIND(.save {r4, r5, r6, r7, r8, r9, r10, fp, ip, lr})
	UNWIND(.setfp fp, ip, #-4)
	sub	fp, ip, #4
	UNWIND(.pad #20)
	sub	sp, sp, #20
	subs	r6, r0, #0
	beq	.L2288
	cmp	r1, #0
	beq	.L2289
	ldrb	lr, [r1]	@ zero_extendqisi2
	ldrb	r3, [r6]	@ zero_extendqisi2
	ldr	ip, [r6, #736]
	ldr	r2, [r1, #736]
	ldrb	r0, [r6, #1]	@ zero_extendqisi2
	cmp	r3, lr
	cmpeq	ip, r2
	ldrb	r5, [r1, #1]	@ zero_extendqisi2
	ldrb	r2, [r6, #2]	@ zero_extendqisi2
	ldrb	r4, [r1, #2]	@ zero_extendqisi2
	moveq	lr, #1
	movne	lr, #0
	ldr	r3, [r6, #740]
	cmp	r0, r5
	movne	ip, #0
	andeq	ip, lr, #1
	ldr	r5, [r1, #740]
	cmp	r2, r4
	movne	r0, #0
	andeq	r0, ip, #1
	ldr	lr, [r1, #744]
	ldr	r4, [r6, #744]
	cmp	r3, r5
	movne	r2, #0
	andeq	r2, r0, #1
	ldrb	ip, [r1, #27]	@ zero_extendqisi2
	ldrb	r0, [r6, #27]	@ zero_extendqisi2
	cmp	r4, lr
	movne	r3, #0
	andeq	r3, r2, #1
	cmp	ip, r0
	movne	r3, #0
	andeq	r3, r3, #1
	cmp	r0, #0
	beq	.L2260
	add	r2, r6, #5
	sub	r0, r1, #404
	str	r2, [fp, #-48]
	add	r2, r1, #5
	add	r9, r1, #748
	sub	r10, r6, #404
	sub	r4, r6, #148
	mov	r8, r6
	str	r6, [fp, #-52]
	mov	r7, #0
	mov	r5, r0
	mov	r6, r2
	str	r1, [fp, #-56]
.L2264:
	ldr	r1, [fp, #-48]
	ldrsb	r0, [r6, #1]!
	ldrb	r2, [r1, #1]!	@ zero_extendqisi2
	str	r1, [fp, #-48]
	sxtb	r1, r2
	cmp	r0, r1
	movne	r3, #0
	andeq	r3, r3, #1
	cmp	r2, #0
	beq	.L2261
	cmp	r7, #5
	bhi	.L2271
	add	r2, r8, #748
	add	lr, r8, #812
	mov	r1, r9
.L2263:
	ldr	ip, [r2, #4]!
	ldr	r0, [r1, #4]!
	cmp	ip, r0
	movne	r3, #0
	andeq	r3, r3, #1
	cmp	r2, lr
	bne	.L2263
.L2261:
	add	r7, r7, #1
	add	r10, r10, #256
	cmp	r7, #8
	add	r5, r5, #256
	add	r4, r4, #256
	add	r8, r8, #64
	add	r9, r9, #64
	bne	.L2264
	ldr	r6, [fp, #-52]
	ldr	r1, [fp, #-56]
.L2260:
	ldr	r2, [r1, #2896]
	ldr	ip, [r6, #2900]
	ldr	r0, [r1, #2900]
	ldr	lr, [r6, #2896]
	cmp	ip, r0
	cmpeq	lr, r2
	moveq	r2, #1
	movne	r2, #0
	cmp	ip, #0
	and	r3, r3, r2
	beq	.L2266
	cmp	ip, #1
	bne	.L2265
	ldr	r0, [r1, #2908]
	ldr	ip, [r6, #2908]
	ldrb	r2, [r6, #18]	@ zero_extendqisi2
	ldrb	r4, [r1, #18]	@ zero_extendqisi2
	ldr	lr, [r6, #2912]
	cmp	ip, r0
	cmpeq	r2, r4
	ldr	r2, [r1, #2912]
	ldr	r5, [r6, #2916]
	ldr	ip, [r1, #2916]
	moveq	r0, #1
	movne	r0, #0
	cmp	lr, r2
	movne	r2, #0
	andeq	r2, r0, #1
	cmp	r5, ip
	movne	r2, #0
	andeq	r2, r2, #1
	cmp	r5, #0
	and	r3, r3, r2
	beq	.L2265
	add	ip, r6, #2912
	add	r0, r1, #2912
	add	ip, ip, #4
	add	r0, r0, #4
	mov	r2, #0
.L2268:
	ldr	r4, [ip, #4]!
	add	r2, r2, #1
	ldr	lr, [r0, #4]!
	cmp	r4, lr
	movne	r3, #0
	andeq	r3, r3, #1
	cmp	r2, r5
	bne	.L2268
.L2265:
	ldrb	lr, [r6, #19]	@ zero_extendqisi2
	ldrb	r0, [r1, #19]	@ zero_extendqisi2
	ldr	r2, [r6, #3944]
	ldr	r4, [r1, #3944]
	ldr	r7, [r6, #3948]
	cmp	lr, r0
	cmpeq	r2, r4
	ldr	r2, [r1, #3948]
	ldr	r5, [r6, #3952]
	ldr	r4, [r1, #3952]
	moveq	ip, #1
	movne	ip, #0
	ldrb	lr, [r1, #20]	@ zero_extendqisi2
	cmp	r7, r2
	movne	r0, #0
	andeq	r0, ip, #1
	ldrb	ip, [r6, #20]	@ zero_extendqisi2
	cmp	r5, r4
	movne	r2, #0
	andeq	r2, r0, #1
	cmp	lr, ip
	movne	r2, #0
	andeq	r2, r2, #1
	cmp	ip, #0
	and	r3, r3, r2
	bne	.L2269
	ldrb	r0, [r6, #21]	@ zero_extendqisi2
	ldrb	r2, [r1, #21]	@ zero_extendqisi2
	cmp	r0, r2
	movne	r3, #0
	andeq	r3, r3, #1
.L2269:
	ldrb	r2, [r1, #22]	@ zero_extendqisi2
	ldrb	ip, [r6, #23]	@ zero_extendqisi2
	ldrb	r0, [r1, #23]	@ zero_extendqisi2
	ldrb	lr, [r6, #22]	@ zero_extendqisi2
	cmp	r0, ip
	cmpeq	lr, r2
	moveq	r2, #1
	movne	r2, #0
	cmp	ip, #0
	and	r3, r3, r2
	bne	.L2290
.L2270:
	ldrb	r2, [r6, #24]	@ zero_extendqisi2
	ldr	r0, [r6, #52]
	ldr	ip, [r1, #52]
	ldrb	r1, [r1, #24]	@ zero_extendqisi2
	cmp	r0, ip
	cmpeq	r2, r1
	moveq	r2, #1
	movne	r2, #0
	tst	r3, r2
	mvneq	r0, #0
	movne	r0, #0
.L2258:
	sub	sp, fp, #40
	ldmfd	sp, {r4, r5, r6, r7, r8, r9, r10, fp, sp, pc}
.L2290:
	ldr	ip, [r1, #3960]
	ldr	lr, [r6, #3960]
	ldr	r0, [r6, #3956]
	ldr	r2, [r1, #3956]
	ldr	r5, [r6, #3964]
	cmp	lr, ip
	cmpeq	r0, r2
	ldr	r2, [r1, #3964]
	ldr	r4, [r6, #3968]
	ldr	lr, [r1, #3968]
	moveq	ip, #1
	movne	ip, #0
	cmp	r5, r2
	movne	r0, #0
	andeq	r0, ip, #1
	cmp	r4, lr
	movne	r2, #0
	andeq	r2, r0, #1
	and	r3, r3, r2
	b	.L2270
.L2271:
	mov	r1, r5
	mov	r2, r10
.L2262:
	ldr	ip, [r2, #4]!
	ldr	r0, [r1, #4]!
	cmp	ip, r0
	movne	r3, #0
	andeq	r3, r3, #1
	cmp	r2, r4
	bne	.L2262
	b	.L2261
.L2266:
	ldr	r0, [r6, #2904]
	ldr	r2, [r1, #2904]
	cmp	r0, r2
	movne	r3, #0
	andeq	r3, r3, #1
	b	.L2265
.L2289:
	mov	r0, r1
	movw	r3, #10123
	ldr	r2, .L2291
	ldr	r1, .L2291+4
	bl	dprint_vfmw
	mvn	r0, #0
	b	.L2258
.L2288:
	movw	r3, #10122
	ldr	r2, .L2291
	ldr	r1, .L2291+4
	bl	dprint_vfmw
	mvn	r0, #0
	b	.L2258
.L2292:
	.align	2
.L2291:
	.word	.LC13
	.word	.LC14
	UNWIND(.fnend)
	.size	MVC_SPSEqual, .-MVC_SPSEqual
	.global	__aeabi_idiv
	.align	2
	.global	MVC_GetDar
	.type	MVC_GetDar, %function
MVC_GetDar:
	UNWIND(.fnstart)
	@ args = 4, pretend = 0, frame = 0
	@ frame_needed = 1, uses_anonymous_args = 0
	UNWIND(.movsp ip)
	mov	ip, sp
	stmfd	sp!, {r4, r5, fp, ip, lr, pc}
	UNWIND(.pad #4)
	UNWIND(.save {r4, r5, fp, ip, lr})
	UNWIND(.setfp fp, ip, #-4)
	sub	fp, ip, #4
	subs	r4, r0, #0
	beq	.L2316
	subs	ip, r4, #255
	movne	ip, #1
	cmp	r4, #16
	movle	lr, #0
	andgt	lr, ip, #1
	cmp	lr, #0
	bne	.L2305
	cmp	r2, #0
	cmpne	r1, #0
	moveq	r0, #1
	movne	r0, #0
	cmp	r4, #255
	movne	r0, #0
	andeq	r0, r0, #1
	cmp	r0, #0
	bne	.L2306
	cmp	r4, #1
	moveq	r2, r0
	moveq	r4, #5
	beq	.L2294
	cmp	ip, #0
	ldrne	r0, .L2317
	addne	r4, r0, r4, lsl #3
	ldrne	r1, [r4, #100]
	ldrne	r2, [r4, #104]
	mul	r0, r3, r1
	ldr	r3, [fp, #4]
	mul	r1, r3, r2
	mov	r0, r0, asl #10
	bl	__aeabi_idiv
	movw	r3, #2405
	movw	r1, #2262
	cmp	r0, r3
	mov	r2, r0
	rsble	r3, r0, #2400
	subgt	r3, r0, #2400
	addle	r3, r3, #6
	subgt	r3, r3, #6
	cmp	r0, r1
	bgt	.L2298
	rsb	r1, r0, #2256
	add	r1, r1, #7
	cmp	r3, r1
	bge	.L2299
.L2309:
	mov	r4, #4
	b	.L2294
.L2305:
	mov	r4, #0
.L2316:
	mov	r2, r4
.L2294:
	mov	r3, r4
	ldr	r1, .L2317+4
	mov	r0, #22
	bl	dprint_vfmw
	mov	r0, r4
	ldmfd	sp, {r4, r5, fp, sp, pc}
.L2298:
	sub	r1, r0, #2256
	sub	r1, r1, #7
	cmp	r3, r1
	blt	.L2309
.L2299:
	movw	r3, #1819
	cmp	r2, r3
	bgt	.L2300
	rsb	r3, r2, #1808
	add	r3, r3, #12
	cmp	r1, r3
	blt	.L2311
.L2301:
	movw	r1, #1364
	cmp	r2, r1
	rsble	r4, r2, #1360
	subgt	r4, r2, #1360
	addle	r4, r4, #5
	subgt	r4, r4, #5
	cmp	r3, r4
	movlt	r4, #2
	movge	r4, #1
	b	.L2294
.L2306:
	mov	r4, lr
	mov	r2, lr
	b	.L2294
.L2300:
	sub	r3, r2, #1808
	sub	r3, r3, #12
	cmp	r1, r3
	bge	.L2301
.L2311:
	mov	r4, #3
	b	.L2294
.L2318:
	.align	2
.L2317:
	.word	.LANCHOR0
	.word	.LC218
	UNWIND(.fnend)
	.size	MVC_GetDar, .-MVC_GetDar
	.align	2
	.global	MVC_ProcessSPS
	.type	MVC_ProcessSPS, %function
MVC_ProcessSPS:
	UNWIND(.fnstart)
	@ args = 0, pretend = 0, frame = 40
	@ frame_needed = 1, uses_anonymous_args = 0
	UNWIND(.movsp ip)
	mov	ip, sp
	stmfd	sp!, {r4, r5, r6, r7, r8, r9, r10, fp, ip, lr, pc}
	UNWIND(.pad #4)
	UNWIND(.save {r4, r5, r6, r7, r8, r9, r10, fp, ip, lr})
	UNWIND(.setfp fp, ip, #-4)
	sub	fp, ip, #4
	UNWIND(.pad #52)
	sub	sp, sp, #52
	subs	r5, r1, #0
	mov	r4, r0
	beq	.L2432
	ldr	r3, [r5, #736]
	cmp	r3, #100
	cmpne	r3, #122
	bic	r1, r3, #16
	sub	r3, r3, #110
	moveq	r2, #1
	movne	r2, #0
	cmp	r1, #128
	orreq	r2, r2, #1
	bics	r3, r3, #8
	orreq	r3, r2, #1
	movne	r3, r2
	cmp	r3, #0
	streqb	r3, [r5, #27]
	moveq	r3, #1
	streq	r3, [r5, #748]
	bne	.L2433
.L2332:
	ldr	r1, .L2447
	mov	r0, r4
	bl	mvc_ue_v
	cmp	r0, #12
	str	r0, [r5, #2896]
	bhi	.L2345
	ldrb	r3, [r4, #10]	@ zero_extendqisi2
	cmp	r3, #0
	bne	.L2345
	ldr	r1, .L2447+4
	mov	r0, r4
	bl	mvc_ue_v
	cmp	r0, #2
	str	r0, [r5, #2900]
	bhi	.L2347
	ldrb	r3, [r4, #10]	@ zero_extendqisi2
	cmp	r3, #0
	bne	.L2347
	cmp	r0, #0
	beq	.L2434
	cmp	r0, #1
	beq	.L2435
.L2353:
	ldr	r1, .L2447+8
	mov	r0, r4
	bl	mvc_ue_v
	str	r0, [r5, #3944]
	ldrb	r3, [r4, #10]	@ zero_extendqisi2
	cmp	r3, #0
	bne	.L2430
	ldr	r1, .L2447+12
	mov	r0, r4
	bl	mvc_u_1
	strb	r0, [r5, #19]
	ldrb	r3, [r4, #10]	@ zero_extendqisi2
	cmp	r3, #0
	bne	.L2430
	ldr	r1, .L2447+16
	mov	r0, r4
	bl	mvc_ue_v
	movw	r7, #509
	sub	r3, r0, #1
	str	r0, [r5, #3948]
	cmp	r3, r7
	bhi	.L2358
	ldrb	r3, [r4, #10]	@ zero_extendqisi2
	cmp	r3, #0
	bne	.L2358
	ldr	r1, .L2447+20
	mov	r0, r4
	bl	mvc_ue_v
	str	r0, [r5, #3952]
	ldrb	r3, [r4, #10]	@ zero_extendqisi2
	cmp	r3, #0
	bne	.L2430
	ldr	r1, .L2447+24
	mov	r0, r4
	bl	mvc_u_1
	uxtb	r0, r0
	strb	r0, [r5, #20]
	ldrb	r3, [r4, #10]	@ zero_extendqisi2
	cmp	r3, #0
	bne	.L2430
	cmp	r0, #0
	bne	.L2436
	ldr	r1, .L2447+28
	mov	r0, r4
	bl	mvc_u_1
	ldr	r6, [r5, #3952]
	add	r6, r6, #1
	cmp	r6, #255
	strb	r0, [r5, #21]
	bhi	.L2391
	ldr	r3, [r5, #3948]
	add	r3, r3, #1
	cmp	r6, #1
	cmphi	r3, #3
	movhi	r8, #2
	bhi	.L2362
.L2391:
	ldr	r1, .L2447+32
	mov	r0, #1
	bl	dprint_vfmw
	mvn	r0, #0
	b	.L2423
.L2433:
	ldr	r1, .L2447+36
	bl	mvc_ue_v
	cmp	r0, #1
	str	r0, [r5, #748]
	bhi	.L2323
	ldrb	r3, [r4, #10]	@ zero_extendqisi2
	cmp	r3, #0
	bne	.L2323
	ldr	r1, .L2447+40
	mov	r0, r4
	bl	mvc_ue_v
	cmp	r0, #0
	bne	.L2325
	ldrb	r3, [r4, #10]	@ zero_extendqisi2
	cmp	r3, #0
	beq	.L2326
.L2325:
	ldr	r1, .L2447+44
	mov	r0, #1
	bl	dprint_vfmw
.L2326:
	ldr	r1, .L2447+48
	mov	r0, r4
	bl	mvc_ue_v
	cmp	r0, #0
	bne	.L2327
	ldrb	r3, [r4, #10]	@ zero_extendqisi2
	cmp	r3, #0
	beq	.L2328
.L2327:
	ldr	r1, .L2447+52
	mov	r0, #1
	bl	dprint_vfmw
.L2328:
	ldr	r1, .L2447+56
	mov	r0, r4
	bl	mvc_u_1
	cmp	r0, #0
	bne	.L2329
	ldrb	r6, [r4, #10]	@ zero_extendqisi2
	cmp	r6, #0
	bne	.L2329
	ldr	r1, .L2447+60
	mov	r0, r4
	bl	mvc_u_1
	uxtb	r0, r0
	strb	r0, [r5, #27]
	cmp	r0, #1
	bne	.L2332
	sub	r8, fp, #72
	add	r10, r5, #5
	add	r7, r5, #2672
	add	r9, r5, #752
	b	.L2338
.L2439:
	ldr	r3, .L2447+64
	cmp	r1, #0
	add	ip, r3, #16
	moveq	r3, ip
	mov	r1, r3
	ldr	r3, .L2447+68
	ldr	r3, [r3, #52]
	blx	r3
.L2334:
	add	r6, r6, #1
	add	r7, r7, #16
	cmp	r6, #6
	add	r9, r9, #64
	beq	.L2437
.L2338:
	ldr	r1, .L2447+72
	mov	r0, r4
	bl	mvc_u_1
	clz	r1, r6
	mov	r2, #16
	mov	r1, r1, lsr #5
	cmp	r0, #1
	mov	r3, r0
	mov	r0, r7
	str	r3, [r8, #4]!
	strb	r3, [r10, #1]!
	beq	.L2438
	cmp	r6, #0
	cmpne	r6, #3
	beq	.L2439
	ldr	r3, .L2447+68
	mov	r2, #16
	sub	r1, r7, #16
	mov	r0, r7
	ldr	r3, [r3, #52]
	blx	r3
	b	.L2334
.L2389:
	cmp	r1, r9
	cmpcs	r0, r6
	bcs	.L2388
	ldr	r3, .L2447+76
	ldr	r5, [r3]
	cmp	r5, #0
	beq	.L2430
	strh	r1, [fp, #-72]	@ movhi
	mov	r3, #8
	strh	r0, [fp, #-70]	@ movhi
	sub	r2, fp, #76
	strh	r9, [fp, #-76]	@ movhi
	mov	r1, #107
	strh	r6, [fp, #-74]	@ movhi
	ldr	r0, [r4, #120]
	blx	r5
.L2430:
	mvn	r0, #0
.L2423:
	sub	sp, fp, #40
	ldmfd	sp, {r4, r5, r6, r7, r8, r9, r10, fp, sp, pc}
.L2436:
	ldr	r6, [r5, #3952]
	strb	r3, [r5, #21]
	sub	r3, r6, #1
	cmp	r3, r7
	bhi	.L2391
	ldr	r3, [r5, #3948]
	mov	r8, #1
	add	r6, r6, #1
	add	r3, r3, r8
.L2362:
	mul	r6, r6, r8
	mov	r9, r3, asl #4
	mov	r6, r6, asl #4
	mul	r1, r9, r6
	add	r1, r1, r1, lsr #1
	cmp	r1, #100663296
	bhi	.L2440
	ldr	r2, [r5, #740]
	sub	r3, r2, #10
	cmp	r3, #31
	ldrls	pc, [pc, r3, asl #2]
	b	.L2364
.L2366:
	.word	.L2365
	.word	.L2367
	.word	.L2398
	.word	.L2398
	.word	.L2364
	.word	.L2364
	.word	.L2364
	.word	.L2364
	.word	.L2364
	.word	.L2364
	.word	.L2398
	.word	.L2369
	.word	.L2371
	.word	.L2364
	.word	.L2364
	.word	.L2364
	.word	.L2364
	.word	.L2364
	.word	.L2364
	.word	.L2364
	.word	.L2371
	.word	.L2372
	.word	.L2373
	.word	.L2364
	.word	.L2364
	.word	.L2364
	.word	.L2364
	.word	.L2364
	.word	.L2364
	.word	.L2364
	.word	.L2375
	.word	.L2375
.L2434:
	ldr	r1, .L2447+80
	mov	r0, r4
	bl	mvc_ue_v
	cmp	r0, #12
	str	r0, [r5, #2904]
	bhi	.L2350
	ldrb	r3, [r4, #10]	@ zero_extendqisi2
	cmp	r3, #0
	beq	.L2353
.L2350:
	ldr	r1, .L2447+84
	mov	r0, #1
	bl	dprint_vfmw
	mvn	r0, #0
	b	.L2423
.L2398:
	mov	r0, #60416
	movt	r0, 13
.L2368:
	bl	__aeabi_uidiv
	ldr	r1, .L2447+88
	cmp	r0, #16
	movcc	r7, r0
	movcs	r7, #16
	mov	r2, r7
	mov	r0, #21
	bl	dprint_vfmw
	ldr	r2, [r5, #3944]
	cmp	r2, r7
	bhi	.L2376
	ldrb	r3, [r4, #10]	@ zero_extendqisi2
	cmp	r3, #0
	beq	.L2377
.L2376:
	mov	r3, r7
	ldr	r1, .L2447+92
	mov	r0, #0
	bl	dprint_vfmw
	ldr	r3, [r5, #3944]
	cmp	r3, #16
	bhi	.L2427
	cmp	r7, r3
	movcc	r7, r3
.L2427:
	str	r7, [r5, #3944]
.L2377:
	ldr	r1, .L2447+96
	mov	r0, r4
	bl	mvc_u_1
	strb	r0, [r5, #22]
	ldrb	r3, [r4, #10]	@ zero_extendqisi2
	cmp	r3, #0
	bne	.L2430
	ldr	r1, .L2447+100
	mov	r0, r4
	bl	mvc_u_1
	uxtb	r0, r0
	strb	r0, [r5, #23]
	ldrb	r3, [r4, #10]	@ zero_extendqisi2
	cmp	r3, #0
	bne	.L2430
	cmp	r0, #0
	bne	.L2441
.L2379:
	mov	r2, r9, lsr #1
	mov	r3, r6, lsr #1
	str	r9, [r5, #3976]
	str	r6, [r5, #3980]
	str	r2, [r5, #3984]
	str	r3, [r5, #3988]
.L2381:
	ldr	r1, .L2447+104
	mov	r0, r4
	bl	mvc_u_1
	uxtb	r3, r0
	strb	r3, [r5, #24]
	ldrb	r2, [r4, #10]	@ zero_extendqisi2
	cmp	r2, #0
	bne	.L2430
	cmp	r3, #0
	mov	r2, #2
	str	r2, [r5, #68]
	bne	.L2442
	mov	r0, r3
	strb	r3, [r5, #43]
	mov	r3, #5
	str	r3, [r5, #56]
.L2384:
	ldr	r2, [r5, #48]
	mov	r3, r9
	ldr	r1, [r5, #44]
	str	r6, [sp]
	bl	MVC_GetDar
	ldr	r3, [r5, #3944]
	cmp	r3, #0
	str	r0, [r5, #52]
	beq	.L2387
	cmp	r7, r3
	movcs	r7, r3
.L2387:
	ldr	r3, [r4, #224]
	cmp	r7, #16
	movcs	r7, #16
	ldr	r2, [r3, #28]
	cmp	r2, #25
	beq	.L2443
.L2388:
	cmp	r6, #1920
	bcc	.L2390
	cmp	r7, #4
	movcs	r7, #4
.L2390:
	add	r7, r7, #1
	mov	r0, #0
	str	r7, [r5, #3972]
	sub	sp, fp, #40
	ldmfd	sp, {r4, r5, r6, r7, r8, r9, r10, fp, sp, pc}
.L2375:
	mov	r0, #12582912
	b	.L2368
.L2371:
	mov	r0, #30208
	movt	r0, 47
	b	.L2368
.L2437:
	sub	r8, fp, #88
	add	r10, r5, #11
	add	r7, r5, #2768
	add	r9, r5, #1136
	mov	r6, #0
.L2343:
	ldr	r1, .L2447+72
	mov	r0, r4
	bl	mvc_u_1
	mov	r2, #64
	mov	r3, r0
	cmp	r3, #1
	mov	r0, r7
	str	r3, [r8, #4]!
	strb	r3, [r10, #1]!
	beq	.L2444
	ldr	r1, .L2447+108
	cmp	r6, #0
	ldr	r3, .L2447+68
	add	ip, r1, #64
	ldr	r3, [r3, #52]
	movne	r1, ip
	blx	r3
.L2340:
	add	r6, r6, #1
	add	r7, r7, #64
	cmp	r6, #2
	add	r9, r9, #256
	bne	.L2343
	b	.L2332
.L2438:
	mov	r3, r2
	str	r8, [sp]
	mov	r2, r7
	mov	r1, r9
	mov	r0, r4
	bl	MVC_Scaling_List
	ldr	r3, [r8]
	cmp	r3, #1
	bne	.L2334
	ldr	r1, .L2447+64
	mov	r2, #16
	ldr	r3, .L2447+68
	cmp	r6, #2
	add	r0, r1, r2
	ldr	r3, [r3, #52]
	movhi	r1, r0
	mov	r0, r7
	blx	r3
	b	.L2334
.L2323:
	ldr	r1, .L2447+112
	mov	r0, #1
	bl	dprint_vfmw
	mvn	r0, #0
	sub	sp, fp, #40
	ldmfd	sp, {r4, r5, r6, r7, r8, r9, r10, fp, sp, pc}
.L2345:
	ldr	r1, .L2447+116
	mov	r0, #1
	bl	dprint_vfmw
	mvn	r0, #0
	b	.L2423
.L2441:
	ldr	r1, .L2447+120
	mov	r0, r4
	bl	mvc_ue_v
	ldr	r1, .L2447+124
	str	r0, [r5, #3956]
	mov	r0, r4
	bl	mvc_ue_v
	ldr	r1, .L2447+128
	str	r0, [r5, #3960]
	mov	r0, r4
	bl	mvc_ue_v
	ldr	r1, .L2447+132
	str	r0, [r5, #3964]
	mov	r0, r4
	bl	mvc_ue_v
	ldr	r3, [r5, #3964]
	ldr	r2, [r5, #3956]
	mov	r1, r8, asl #1
	ldr	ip, [r5, #3960]
	mov	r3, r3, asl #1
	mov	r2, r2, asl #1
	mul	r8, r8, r3
	rsb	r3, r2, r9
	sub	r3, r3, ip, asl #1
	rsb	ip, r8, r6
	str	r0, [r5, #3968]
	mls	r0, r0, r1, ip
	cmp	r3, #0
	cmpgt	r0, #0
	ble	.L2379
	add	r2, r2, r3, lsr #1
	add	r8, r8, r0, lsr #1
	str	r2, [r5, #3984]
	str	r8, [r5, #3988]
	str	r3, [r5, #3976]
	str	r0, [r5, #3980]
	b	.L2381
.L2442:
	add	r1, r5, #28
	mov	r0, r4
	bl	mvc_vui_parameters
	cmp	r0, #0
	bne	.L2429
	ldrb	r3, [r5, #40]	@ zero_extendqisi2
	cmp	r3, #0
	beq	.L2429
	ldr	r2, [r5, #732]
	clz	r3, r2
	mov	r3, r3, lsr #5
	cmp	r7, r2
	orrcc	r3, r3, #1
	cmp	r3, #0
	bne	.L2445
	ldr	r3, [r5, #3944]
	ldrb	r0, [r5, #43]	@ zero_extendqisi2
	cmp	r2, r3
	movcs	r7, r2
	movcc	r7, r3
	b	.L2384
.L2445:
	mov	r3, r7
	ldr	r1, .L2447+136
	mov	r0, #1
	bl	dprint_vfmw
.L2429:
	ldrb	r0, [r5, #43]	@ zero_extendqisi2
	b	.L2384
.L2443:
	ldr	r2, [r3, #732]
	cmp	r2, #0
	bne	.L2388
	ldr	r2, [r3, #716]
	ldr	r1, [r3, #692]
	cmp	r7, r2
	ldr	r0, [r3, #696]
	bls	.L2389
	ldr	r3, .L2447+76
	ldr	r5, [r3]
	cmp	r5, #0
	beq	.L2430
	str	r2, [fp, #-72]
	mov	r3, #8
	str	r7, [fp, #-76]
	sub	r2, fp, #76
	ldr	r0, [r4, #120]
	mov	r1, #106
	blx	r5
	mvn	r0, #0
	b	.L2423
.L2329:
	ldr	r1, .L2447+140
	mov	r0, #1
	bl	dprint_vfmw
	mvn	r0, #0
	b	.L2423
.L2435:
	ldr	r1, .L2447+144
	mov	r0, r4
	bl	mvc_u_1
	strb	r0, [r5, #18]
	ldrb	r3, [r4, #10]	@ zero_extendqisi2
	cmp	r3, #0
	bne	.L2430
	ldr	r1, .L2447+148
	mov	r0, r4
	bl	mvc_se_v
	str	r0, [r5, #2908]
	ldrb	r3, [r4, #10]	@ zero_extendqisi2
	cmp	r3, #0
	bne	.L2430
	ldr	r1, .L2447+152
	mov	r0, r4
	bl	mvc_se_v
	str	r0, [r5, #2912]
	ldrb	r3, [r4, #10]	@ zero_extendqisi2
	cmp	r3, #0
	bne	.L2430
	ldr	r1, .L2447+156
	mov	r0, r4
	bl	mvc_ue_v
	cmp	r0, #255
	str	r0, [r5, #2916]
	bhi	.L2355
	ldrb	r6, [r4, #10]	@ zero_extendqisi2
	cmp	r6, #0
	bne	.L2355
	cmp	r0, #0
	addne	r7, r5, #2912
	addne	r7, r7, #4
	bne	.L2357
	b	.L2353
.L2446:
	ldr	r3, [r5, #2916]
	cmp	r3, r6
	bls	.L2353
.L2357:
	ldr	r1, .L2447+160
	mov	r0, r4
	bl	mvc_se_v
	add	r6, r6, #1
	str	r0, [r7, #4]!
	ldrb	r3, [r4, #10]	@ zero_extendqisi2
	cmp	r3, #0
	beq	.L2446
	b	.L2430
.L2358:
	mov	r2, r0
	ldr	r1, .L2447+164
	mov	r0, #1
	bl	dprint_vfmw
	mvn	r0, #0
	b	.L2423
.L2372:
	mov	r0, #30720
	movt	r0, 105
	b	.L2368
.L2369:
	mov	r0, #55296
	movt	r0, 27
	b	.L2368
.L2373:
	mov	r0, #7864320
	b	.L2368
.L2367:
	mov	r0, #17920
	movt	r0, 5
	b	.L2368
.L2365:
	mov	r0, #20992
	movt	r0, 2
	b	.L2368
.L2364:
	ldr	r1, .L2447+168
	mov	r0, #1
	bl	dprint_vfmw
	mvn	r0, #0
	b	.L2423
.L2355:
	ldr	r1, .L2447+172
	mov	r0, #1
	bl	dprint_vfmw
	mvn	r0, #0
	b	.L2423
.L2444:
	mov	r3, r2
	str	r8, [sp]
	mov	r2, r7
	mov	r1, r9
	mov	r0, r4
	bl	MVC_Scaling_List
	ldr	r3, [r8]
	cmp	r3, #1
	bne	.L2340
	ldr	r1, .L2447+108
	mov	r2, #64
	ldr	r3, .L2447+68
	cmp	r6, #0
	add	r0, r1, r2
	ldr	r3, [r3, #52]
	movne	r1, r0
	mov	r0, r7
	blx	r3
	b	.L2340
.L2347:
	ldr	r1, .L2447+176
	mov	r0, #1
	bl	dprint_vfmw
	mvn	r0, #0
	b	.L2423
.L2440:
	ldr	r1, .L2447+180
	mov	r0, #0
	bl	dprint_vfmw
	mvn	r0, #0
	b	.L2423
.L2432:
	mov	r0, r5
	movw	r3, #10311
	ldr	r2, .L2447+184
	ldr	r1, .L2447+188
	bl	dprint_vfmw
	mvn	r0, #0
	b	.L2423
.L2448:
	.align	2
.L2447:
	.word	.LC228
	.word	.LC230
	.word	.LC233
	.word	.LC241
	.word	.LC242
	.word	.LC244
	.word	.LC245
	.word	.LC259
	.word	.LC246
	.word	.LC219
	.word	.LC221
	.word	.LC222
	.word	.LC223
	.word	.LC224
	.word	.LC225
	.word	.LC227
	.word	.LANCHOR1
	.word	vfmw_Osal_Func_Ptr_S
	.word	.LC167
	.word	g_event_report
	.word	.LC232
	.word	.LC234
	.word	.LC249
	.word	.LC250
	.word	.LC251
	.word	.LC252
	.word	.LC257
	.word	.LANCHOR1+32
	.word	.LC220
	.word	.LC229
	.word	.LC253
	.word	.LC254
	.word	.LC255
	.word	.LC256
	.word	.LC258
	.word	.LC226
	.word	.LC235
	.word	.LC236
	.word	.LC237
	.word	.LC238
	.word	.LC240
	.word	.LC243
	.word	.LC248
	.word	.LC239
	.word	.LC231
	.word	.LC247
	.word	.LC13
	.word	.LC14
	UNWIND(.fnend)
	.size	MVC_ProcessSPS, .-MVC_ProcessSPS
	.align	2
	.global	MVC_DecSPS
	.type	MVC_DecSPS, %function
MVC_DecSPS:
	UNWIND(.fnstart)
	@ args = 0, pretend = 0, frame = 32
	@ frame_needed = 1, uses_anonymous_args = 0
	UNWIND(.movsp ip)
	mov	ip, sp
	stmfd	sp!, {r4, r5, r6, r7, r8, r9, r10, fp, ip, lr, pc}
	UNWIND(.pad #4)
	UNWIND(.save {r4, r5, r6, r7, r8, r9, r10, fp, ip, lr})
	UNWIND(.setfp fp, ip, #-4)
	sub	fp, ip, #4
	UNWIND(.pad #36)
	sub	sp, sp, #36
	ldr	r2, .L2494
	mov	r1, #8
	mov	r4, r0
	bl	mvc_u_v
	ldr	r1, .L2494+4
	mov	r10, r0
	mov	r0, r4
	bl	mvc_u_1
	ldr	r1, .L2494+8
	mov	r9, r0
	mov	r0, r4
	bl	mvc_u_1
	ldr	r1, .L2494+12
	mov	r8, r0
	mov	r0, r4
	bl	mvc_u_1
	ldr	r1, .L2494+16
	str	r0, [fp, #-56]
	mov	r0, r4
	bl	mvc_u_1
	ldr	r1, .L2494+20
	str	r0, [fp, #-60]
	mov	r0, r4
	bl	mvc_u_1
	ldr	r1, .L2494+24
	str	r0, [fp, #-64]
	mov	r0, r4
	bl	mvc_u_1
	ldr	r2, .L2494+28
	mov	r1, #2
	str	r0, [fp, #-68]
	mov	r0, r4
	bl	mvc_u_v
	ldr	r2, .L2494+32
	mov	r1, #8
	mov	r0, r4
	bl	mvc_u_v
	ldr	r1, .L2494+36
	mov	r5, r0
	mov	r0, r4
	bl	mvc_ue_v
	ldrb	r3, [r4, #10]	@ zero_extendqisi2
	cmp	r3, #0
	mov	r6, r0
	bne	.L2487
	ldr	r3, [r4, #36]
	sub	r3, r3, #1
	cmp	r0, r3
	bhi	.L2489
	cmp	r10, #100
	mov	r7, r10
	beq	.L2455
	bhi	.L2456
	cmp	r10, #77
	beq	.L2455
	cmp	r10, #88
	beq	.L2457
	cmp	r10, #66
	bne	.L2454
	ldr	r1, .L2494+40
	mov	r0, #1
	bl	dprint_vfmw
.L2455:
	cmp	r5, #9
	mov	r2, r5
	bls	.L2486
.L2492:
	cmp	r5, #41
	bhi	.L2486
.L2461:
	movw	r3, #3992
	ldr	r1, [r4, #248]
	mul	r5, r3, r6
	add	r1, r1, r5
	ldrb	r10, [r1, #25]	@ zero_extendqisi2
	cmp	r10, #0
	beq	.L2462
	ldr	r10, .L2494+44
	mov	r0, r4
	str	r3, [fp, #-72]
	ldrb	r3, [fp, #-56]	@ zero_extendqisi2
	add	r1, r10, #2240
	str	r7, [r10, #2976]
	strb	r9, [r10, #2240]
	strb	r3, [r10, #2242]
	ldrb	r3, [fp, #-60]	@ zero_extendqisi2
	strb	r8, [r10, #2241]
	str	r2, [r10, #2980]
	strb	r3, [r10, #2243]
	ldrb	r3, [fp, #-64]	@ zero_extendqisi2
	str	r6, [r10, #2984]
	strb	r3, [r10, #2244]
	ldrb	r3, [fp, #-68]	@ zero_extendqisi2
	strb	r3, [r10, #2245]
	bl	MVC_ProcessSPS
	ldr	r3, [fp, #-72]
	subs	r7, r0, #0
	bne	.L2490
	ldr	r1, [r4, #248]
	add	r0, r10, #2240
	str	r3, [fp, #-56]
	add	r1, r1, r5
	bl	MVC_SPSEqual
	ldr	r3, [fp, #-56]
	cmp	r0, #0
	bne	.L2491
.L2451:
	sub	sp, fp, #40
	ldmfd	sp, {r4, r5, r6, r7, r8, r9, r10, fp, sp, pc}
.L2456:
	cmp	r10, #122
	beq	.L2459
	cmp	r10, #144
	beq	.L2459
	cmp	r10, #110
	beq	.L2459
.L2454:
	mov	r2, r10
	ldr	r1, .L2494+48
	mov	r0, #1
	mov	r7, #100
	bl	dprint_vfmw
	cmp	r5, #9
	mov	r2, r5
	bhi	.L2492
.L2486:
	mov	r3, #41
	ldr	r1, .L2494+52
	mov	r0, #1
	bl	dprint_vfmw
	mov	r2, #41
	b	.L2461
.L2462:
	str	r7, [r1, #736]
	mov	r0, r4
	ldr	r3, [r4, #248]
	ldrb	r1, [fp, #-56]	@ zero_extendqisi2
	strb	r9, [r3, r5]
	ldr	r3, [r4, #248]
	add	r3, r3, r5
	strb	r8, [r3, #1]
	ldr	r3, [r4, #248]
	add	r3, r3, r5
	strb	r1, [r3, #2]
	ldr	r3, [r4, #248]
	ldrb	r1, [fp, #-60]	@ zero_extendqisi2
	add	r3, r3, r5
	strb	r1, [r3, #3]
	ldr	r3, [r4, #248]
	ldrb	r1, [fp, #-64]	@ zero_extendqisi2
	add	r3, r3, r5
	strb	r1, [r3, #4]
	ldr	r3, [r4, #248]
	ldrb	r1, [fp, #-68]	@ zero_extendqisi2
	add	r3, r3, r5
	strb	r1, [r3, #5]
	ldr	r3, [r4, #248]
	add	r3, r3, r5
	str	r2, [r3, #740]
	ldr	r3, [r4, #248]
	add	r3, r3, r5
	str	r6, [r3, #744]
	ldr	r1, [r4, #248]
	add	r1, r1, r5
	bl	MVC_ProcessSPS
	cmp	r0, #0
	bne	.L2493
	ldr	r3, [r4, #248]
	mov	r2, #1
	add	r3, r3, r5
	strb	r2, [r3, #26]
	ldr	r3, [r4, #248]
	add	r5, r3, r5
	strb	r2, [r5, #25]
	sub	sp, fp, #40
	ldmfd	sp, {r4, r5, r6, r7, r8, r9, r10, fp, sp, pc}
.L2489:
	ldr	r1, .L2494+56
	mov	r0, #1
	bl	dprint_vfmw
	ldr	r2, [r4, #36]
	sub	r3, r2, #1
	cmp	r6, r3
	bls	.L2487
	ldr	r3, .L2494+60
	ldr	r5, [r3]
	cmp	r5, #0
	beq	.L2487
	str	r2, [fp, #-48]
	mov	r3, #8
	str	r6, [fp, #-52]
	sub	r2, fp, #52
	ldr	r0, [r4, #120]
	mov	r1, #109
	blx	r5
.L2487:
	mvn	r0, #0
	sub	sp, fp, #40
	ldmfd	sp, {r4, r5, r6, r7, r8, r9, r10, fp, sp, pc}
.L2459:
	ldr	r1, .L2494+64
	mov	r0, #1
	bl	dprint_vfmw
	cmp	r5, #9
	mov	r2, r5
	bhi	.L2492
	b	.L2486
.L2457:
	ldr	r1, .L2494+68
	mov	r0, #1
	bl	dprint_vfmw
	cmp	r5, #9
	mov	r2, r5
	bhi	.L2492
	b	.L2486
.L2491:
	ldr	ip, .L2494+72
	mov	r2, r3
	ldr	r0, [r4, #248]
	mov	r3, #1
	add	r1, r10, #2240
	strb	r3, [r10, #2266]
	add	r0, r0, r5
	ldr	r4, [ip, #56]
	strb	r3, [r10, #2265]
	blx	r4
	mov	r0, r7
	b	.L2451
.L2490:
	mov	r3, r6
	movw	r2, #10841
	ldr	r1, .L2494+76
	mov	r0, #1
	bl	dprint_vfmw
	mvn	r0, #0
	b	.L2451
.L2493:
	mov	r3, r6
	movw	r2, #10868
	ldr	r1, .L2494+76
	mov	r0, #1
	bl	dprint_vfmw
	ldr	r3, [r4, #248]
	mov	r2, #1
	mvn	r0, #0
	add	r3, r3, r5
	strb	r2, [r3, #26]
	ldr	r3, [r4, #248]
	add	r5, r3, r5
	strb	r10, [r5, #25]
	b	.L2451
.L2495:
	.align	2
.L2494:
	.word	.LC260
	.word	.LC261
	.word	.LC262
	.word	.LC263
	.word	.LC264
	.word	.LC265
	.word	.LC266
	.word	.LC267
	.word	.LC268
	.word	.LC269
	.word	.LC270
	.word	.LANCHOR2
	.word	.LC273
	.word	.LC274
	.word	.LC173
	.word	g_event_report
	.word	.LC272
	.word	.LC271
	.word	vfmw_Osal_Func_Ptr_S
	.word	.LC275
	UNWIND(.fnend)
	.size	MVC_DecSPS, .-MVC_DecSPS
	.align	2
	.global	MVC_FreeMvcExtMem
	.type	MVC_FreeMvcExtMem, %function
MVC_FreeMvcExtMem:
	UNWIND(.fnstart)
	@ args = 0, pretend = 0, frame = 0
	@ frame_needed = 1, uses_anonymous_args = 0
	UNWIND(.movsp ip)
	mov	ip, sp
	stmfd	sp!, {fp, ip, lr, pc}
	UNWIND(.pad #4)
	UNWIND(.save {fp, ip, lr})
	UNWIND(.setfp fp, ip, #-4)
	sub	fp, ip, #4
	mov	r0, #0
	ldmfd	sp, {fp, sp, pc}
	UNWIND(.fnend)
	.size	MVC_FreeMvcExtMem, .-MVC_FreeMvcExtMem
	.align	2
	.global	MVC_FreeMvcVuiExtMem
	.type	MVC_FreeMvcVuiExtMem, %function
MVC_FreeMvcVuiExtMem:
	UNWIND(.fnstart)
	@ args = 0, pretend = 0, frame = 0
	@ frame_needed = 1, uses_anonymous_args = 0
	UNWIND(.movsp ip)
	mov	ip, sp
	stmfd	sp!, {fp, ip, lr, pc}
	UNWIND(.pad #4)
	UNWIND(.save {fp, ip, lr})
	UNWIND(.setfp fp, ip, #-4)
	sub	fp, ip, #4
	mov	r0, #0
	ldmfd	sp, {fp, sp, pc}
	UNWIND(.fnend)
	.size	MVC_FreeMvcVuiExtMem, .-MVC_FreeMvcVuiExtMem
	.align	2
	.global	MVC_ProcessSUBSPSMvcExt
	.type	MVC_ProcessSUBSPSMvcExt, %function
MVC_ProcessSUBSPSMvcExt:
	UNWIND(.fnstart)
	@ args = 0, pretend = 0, frame = 32
	@ frame_needed = 1, uses_anonymous_args = 0
	UNWIND(.movsp ip)
	mov	ip, sp
	stmfd	sp!, {r4, r5, r6, r7, r8, r9, r10, fp, ip, lr, pc}
	UNWIND(.pad #4)
	UNWIND(.save {r4, r5, r6, r7, r8, r9, r10, fp, ip, lr})
	UNWIND(.setfp fp, ip, #-4)
	sub	fp, ip, #4
	UNWIND(.pad #36)
	sub	sp, sp, #36
	subs	r5, r1, #0
	mov	r4, r0
	beq	.L2560
	ldr	r1, .L2561
	bl	mvc_ue_v
	cmp	r0, #1
	str	r0, [r5, #4]
	bhi	.L2501
	ldrb	r6, [r4, #10]	@ zero_extendqisi2
	cmp	r6, #0
	addeq	r7, r5, #4
	bne	.L2501
.L2503:
	ldr	r1, .L2561+4
	mov	r0, r4
	bl	mvc_ue_v
	add	r6, r6, #1
	str	r0, [r7, #4]!
	ldr	r3, [r5, #4]
	cmp	r3, r6
	bcs	.L2503
	cmp	r3, #0
	mov	r2, #0
	str	r2, [r5, #16]
	str	r2, [r5, #24]
	beq	.L2504
	add	r8, r5, #16
	mov	r7, #1
.L2514:
	ldr	r1, .L2561+8
	mov	r0, r4
	bl	mvc_ue_v
	add	r9, r8, #4
	str	r0, [r8, #4]
	ldr	r3, [r5, #4]
	cmp	r3, #15
	movcs	r3, #15
	cmp	r0, r3
	bhi	.L2505
	ldrb	r6, [r4, #10]	@ zero_extendqisi2
	cmp	r6, #0
	bne	.L2505
	cmp	r0, #0
	addne	r10, r8, #16
	beq	.L2510
.L2509:
	ldr	r1, .L2561+12
	mov	r0, r4
	bl	mvc_ue_v
	add	r6, r6, #1
	str	r0, [r10, #4]!
	ldr	r3, [r9]
	cmp	r6, r3
	bcc	.L2509
.L2510:
	ldr	r1, .L2561+16
	mov	r0, r4
	bl	mvc_ue_v
	str	r0, [r9, #8]
	ldr	r3, [r5, #4]
	cmp	r3, #15
	movcc	r2, r3
	movcs	r2, #15
	cmp	r0, r2
	bhi	.L2507
	ldrb	r6, [r4, #10]	@ zero_extendqisi2
	cmp	r6, #0
	bne	.L2507
	cmp	r0, #0
	addne	r8, r8, #24
	beq	.L2512
.L2513:
	ldr	r1, .L2561+20
	mov	r0, r4
	bl	mvc_ue_v
	add	r6, r6, #1
	str	r0, [r8, #4]!
	ldr	r3, [r9, #8]
	cmp	r6, r3
	bcc	.L2513
	ldr	r3, [r5, #4]
.L2512:
	add	r7, r7, #1
	mov	r8, r9
	cmp	r7, r3
	bls	.L2514
	cmp	r3, #0
	mov	r3, #0
	addne	r8, r5, #48
	str	r3, [r5, #48]
	str	r3, [r5, #56]
	movne	r7, #1
	beq	.L2528
.L2527:
	ldr	r1, .L2561+24
	mov	r0, r4
	bl	mvc_ue_v
	add	r9, r8, #4
	str	r0, [r8, #4]
	ldr	r3, [r5, #4]
	cmp	r3, #15
	movcs	r3, #15
	cmp	r0, r3
	bhi	.L2518
	ldrb	r6, [r4, #10]	@ zero_extendqisi2
	cmp	r6, #0
	bne	.L2518
	cmp	r0, #0
	addne	r10, r8, #16
	beq	.L2523
.L2522:
	ldr	r1, .L2561+28
	mov	r0, r4
	bl	mvc_ue_v
	add	r6, r6, #1
	str	r0, [r10, #4]!
	ldr	r3, [r9]
	cmp	r6, r3
	bcc	.L2522
.L2523:
	ldr	r1, .L2561+32
	mov	r0, r4
	bl	mvc_ue_v
	str	r0, [r9, #8]
	ldr	r3, [r5, #4]
	cmp	r3, #15
	movcc	r2, r3
	movcs	r2, #15
	cmp	r0, r2
	bhi	.L2520
	ldrb	r6, [r4, #10]	@ zero_extendqisi2
	cmp	r6, #0
	bne	.L2520
	cmp	r0, #0
	addne	r8, r8, #24
	beq	.L2525
.L2526:
	ldr	r1, .L2561+36
	mov	r0, r4
	bl	mvc_ue_v
	add	r6, r6, #1
	str	r0, [r8, #4]!
	ldr	r3, [r9, #8]
	cmp	r6, r3
	bcc	.L2526
	ldr	r3, [r5, #4]
.L2525:
	add	r7, r7, #1
	mov	r8, r9
	cmp	r7, r3
	bls	.L2527
.L2528:
	ldr	r1, .L2561+40
	mov	r0, r4
	bl	mvc_ue_v
	add	r3, r0, #1
	str	r0, [r5, #80]
	cmp	r3, #16
	str	r3, [fp, #-60]
	bhi	.L2516
	ldrb	r3, [r4, #10]	@ zero_extendqisi2
	cmp	r3, #0
	bne	.L2516
	ldr	r2, [fp, #-60]
	cmp	r2, #0
	beq	.L2533
	add	r2, r5, #8384
	add	r1, r5, #80
	add	r2, r2, #16
	str	r1, [fp, #-72]
	str	r2, [fp, #-68]
	add	r2, r5, #212
	str	r3, [fp, #-56]
	str	r2, [fp, #-64]
	str	r5, [fp, #-76]
.L2532:
	ldr	r2, .L2561+44
	mov	r1, #8
	mov	r0, r4
	bl	mvc_u_v
	ldr	r3, [fp, #-72]
	ldr	r1, .L2561+48
	str	r0, [r3, #4]!
	mov	r0, r4
	mov	r5, r3
	str	r3, [fp, #-72]
	bl	mvc_ue_v
	add	r3, r0, #1
	str	r0, [r5, #64]
	str	r3, [fp, #-52]
	mov	r2, r3
	cmp	r2, #64
	bhi	.L2530
	ldrb	r7, [r4, #10]	@ zero_extendqisi2
	cmp	r7, #0
	bne	.L2530
	cmp	r2, #0
	beq	.L2540
	ldr	r3, [fp, #-64]
	movw	r10, #8188
	ldr	r2, [fp, #-68]
	movt	r10, 4
	add	r10, r3, r10
	mov	r8, r3
	str	r2, [fp, #-48]
.L2539:
	ldr	r2, .L2561+52
	mov	r1, #3
	mov	r0, r4
	bl	mvc_u_v
	ldr	r1, .L2561+56
	str	r0, [r8], #4
	mov	r0, r4
	bl	mvc_ue_v
	add	r6, r0, #1
	str	r0, [r8, #4092]
	cmp	r6, #64
	bhi	.L2534
	ldrb	r3, [r4, #10]	@ zero_extendqisi2
	cmp	r3, #0
	bne	.L2534
	cmp	r6, #0
	movne	r5, r3
	ldrne	r9, [fp, #-48]
	beq	.L2538
.L2535:
	ldr	r1, .L2561+60
	mov	r0, r4
	bl	mvc_ue_v
	add	r5, r5, #1
	cmp	r6, r5
	str	r0, [r9, #4]!
	bne	.L2535
.L2538:
	ldr	r1, .L2561+64
	mov	r0, r4
	bl	mvc_ue_v
	cmp	r0, #1024
	str	r0, [r10, #4]!
	bcs	.L2536
	ldrb	r3, [r4, #10]	@ zero_extendqisi2
	cmp	r3, #0
	bne	.L2536
	ldr	r3, [fp, #-48]
	add	r7, r7, #1
	add	r3, r3, #256
	str	r3, [fp, #-48]
	ldr	r3, [fp, #-52]
