#include "hi_asm_define.h"
	.arch armv7-a
	.fpu softvfp
	.eabi_attribute 20, 1
	.eabi_attribute 21, 1
	.eabi_attribute 23, 3
	.eabi_attribute 24, 1
	.eabi_attribute 25, 1
	.eabi_attribute 26, 2
	.eabi_attribute 30, 2
	.eabi_attribute 34, 0
	.eabi_attribute 18, 4
	.file	"hevc.c"
	.text
	.align	2
	.type	HEVC_ComparePicByPocAsc, %function
HEVC_ComparePicByPocAsc:
	UNWIND(.fnstart)
	@ args = 0, pretend = 0, frame = 0
	@ frame_needed = 1, uses_anonymous_args = 0
	UNWIND(.movsp ip)
	mov	ip, sp
	stmfd	sp!, {fp, ip, lr, pc}
	UNWIND(.pad #4)
	UNWIND(.save {fp, ip, lr})
	UNWIND(.setfp fp, ip, #-4)
	sub	fp, ip, #4
	ldr	r2, [r0]
	ldr	r3, [r1]
	ldr	r2, [r2, #8]
	ldr	r3, [r3, #8]
	cmp	r2, r3
	blt	.L3
	movgt	r0, #1
	movle	r0, #0
	ldmfd	sp, {fp, sp, pc}
.L3:
	mvn	r0, #0
	ldmfd	sp, {fp, sp, pc}
	UNWIND(.fnend)
	.size	HEVC_ComparePicByPocAsc, .-HEVC_ComparePicByPocAsc
	.align	2
	.type	HEVC_UpdateInterLayerReflist, %function
HEVC_UpdateInterLayerReflist:
	UNWIND(.fnstart)
	@ args = 0, pretend = 0, frame = 32
	@ frame_needed = 1, uses_anonymous_args = 0
	UNWIND(.movsp ip)
	mov	ip, sp
	stmfd	sp!, {r4, r5, r6, r7, r8, r9, r10, fp, ip, lr, pc}
	UNWIND(.pad #4)
	UNWIND(.save {r4, r5, r6, r7, r8, r9, r10, fp, ip, lr})
	UNWIND(.setfp fp, ip, #-4)
	sub	fp, ip, #4
	UNWIND(.pad #52)
	sub	sp, sp, #52
	add	r10, r0, #4096
	mov	r7, r0
	ldr	r3, [r10, #744]
	cmp	r3, #0
	streq	r3, [r0, #3064]
	streq	r3, [r0, #3068]
	beq	.L5
	ldr	r2, [r10, #2072]
	ldr	r1, [r0, #2836]
	cmp	r2, #0
	ble	.L34
	add	r2, r3, #1024
	add	r0, r1, #12288
	add	r2, r2, #8
	add	ip, r7, #6144
	mov	r3, r3, asl #1
	str	r3, [fp, #-52]
	add	r3, r1, #16384
	str	r3, [fp, #-48]
	add	r3, r0, r2, lsl #2
	str	r3, [fp, #-56]
	add	r3, ip, #24
	mov	r8, #0
	mov	r6, r8
	str	r8, [fp, #-64]
	str	r8, [fp, #-68]
	mov	r9, r0
	mov	r8, r3
.L26:
	ldr	r1, [fp, #-52]
	ldr	r3, [r8, #4]!
	ldr	r2, [fp, #-56]
	add	r3, r1, r3
	ldr	r1, [fp, #-48]
	add	r3, r3, #1040
	add	r3, r3, #4
	ldr	r2, [r2, #132]
	ldr	r1, [r1, #164]
	add	r3, r9, r3, lsl #2
	cmp	r2, r1
	ldr	lr, [r3, #132]
	add	r3, lr, #1024
	add	r3, r3, #8
	add	r3, r9, r3, lsl #2
	ldr	r3, [r3, #132]
	ble	.L56
	cmp	r2, r3
	movlt	r3, #0
	movge	r3, #1
	str	r3, [fp, #-60]
.L10:
	ldr	r0, [r7, #3040]
	cmp	r0, #0
	beq	.L12
	add	r2, r7, #3200
	ldr	ip, [r10, #724]
	add	r2, r2, #4
	mov	r4, #0
	b	.L25
.L13:
	add	r4, r4, #1
	cmp	r4, r0
	beq	.L12
.L25:
	ldr	r3, [r2, #4]!
	ldr	r1, [r3, #8]
	cmp	r1, ip
	bne	.L13
	ldr	r1, [r3, #32]
	cmp	r1, lr
	bne	.L13
	add	r4, r7, r4, lsl #2
	mov	r2, #1
	strb	r2, [r3, #1]
	ldr	r3, [r4, #3208]
	ldrb	r2, [r3, #1]	@ zero_extendqisi2
	cmp	r2, #0
	bne	.L57
.L14:
	mov	r5, #0
	str	r5, [r3, #64]
	ldr	r3, [r4, #3208]
	mov	r2, #1
	str	r2, [r3, #60]
	ldr	r3, [r4, #3208]
	str	r2, [r3, #72]
	ldr	r3, [r4, #3208]
	cmp	r3, r5
	beq	.L58
	ldr	r2, [r10, #744]
	mov	r1, #280
	mul	r1, r1, r2
	add	ip, r7, r1
	add	r0, ip, #13120
	add	r0, r0, #40
	ldr	r0, [r0, #4]
	cmp	r0, #0
	beq	.L16
	add	ip, ip, #13120
	add	ip, ip, #48
	ldr	ip, [ip, #4]
	cmp	ip, #0
	addne	r1, r1, #13120
	addne	r1, r1, #52
	addne	r1, r7, r1
	bne	.L19
	b	.L59
.L23:
	ldr	ip, [r1, #4]!
	cmp	ip, #0
	beq	.L17
.L19:
	add	r5, r5, #1
	cmp	r5, r0
	bne	.L23
.L16:
	ldr	r2, [fp, #-60]
	cmp	r2, #0
	beq	.L24
	ldr	r1, [fp, #-64]
	add	r2, r7, r1, lsl #2
	str	r3, [r2, #3072]
	add	r3, r1, #1
	str	r3, [fp, #-64]
.L12:
	ldr	r3, [r10, #2072]
	add	r6, r6, #1
	cmp	r3, r6
	bgt	.L26
	ldr	r9, [fp, #-64]
	ldr	r8, [fp, #-68]
	mov	r1, r9
	mov	r3, r8
.L8:
	ldr	r2, [r7, #3036]
	str	r1, [r7, #3064]
	cmp	r2, r9
	str	r3, [r7, #3068]
	ble	.L31
	add	r3, r9, #764
	mov	r1, #0
	add	r3, r3, #3
	add	r3, r7, r3, lsl #2
.L30:
	add	r9, r9, #1
	str	r1, [r3, #4]!
	cmp	r9, r2
	bne	.L30
.L31:
	cmp	r2, r8
	addgt	r1, r8, #784
	movgt	r3, #0
	addgt	r7, r7, r1, lsl #2
	ble	.L5
.L32:
	add	r8, r8, #1
	str	r3, [r7, #4]!
	cmp	r8, r2
	bne	.L32
.L5:
	sub	sp, fp, #40
	ldmfd	sp, {r4, r5, r6, r7, r8, r9, r10, fp, sp, pc}
.L56:
	cmp	r2, r3
	movle	r3, #1
	strle	r3, [fp, #-60]
	ble	.L10
	cmp	r2, r1
	movlt	r3, #0
	movge	r3, #1
	str	r3, [fp, #-60]
	b	.L10
.L24:
	ldr	r1, [fp, #-68]
	add	r2, r7, r1, lsl #2
	str	r3, [r2, #3140]
	add	r3, r1, #1
	str	r3, [fp, #-68]
	b	.L12
.L59:
	mov	r5, ip
.L17:
	ldr	r1, [r3, #28]
	ldr	r0, [r7, #276]
	str	r3, [fp, #-72]
	str	r2, [fp, #-76]
	bl	FSP_GetLogicFs
	ldr	r3, [fp, #-72]
	subs	lr, r0, #0
	beq	.L20
	ldr	r1, [lr, #28]
	ldr	r2, [fp, #-76]
	cmp	r1, #0
	beq	.L20
	mov	r1, #70
	mov	r0, #280
	mla	r1, r1, r2, r5
	mla	r2, r0, r2, r7
	mov	r0, #1
	add	r1, r7, r1, lsl #2
	add	ip, r2, #13120
	add	r1, r1, #12288
	add	r2, r2, r5
	add	r2, r2, #13376
	str	r0, [r1, #884]
	ldr	r0, [lr, #28]
	ldr	r0, [r0, #4]
	str	r0, [r1, #948]
	ldr	r0, [r3, #8]
	str	r0, [r1, #1012]
	ldr	r0, [ip, #48]
	add	r0, r0, #1
	str	r0, [ip, #48]
	ldr	r0, [r3, #32]
	str	r0, [r1, #1076]
	str	r5, [r3, #36]
	mov	r3, #1
	strb	r3, [r2, #52]
	ldr	r3, [r4, #3208]
	b	.L16
.L57:
	ldr	r1, [r3, #28]
	mov	r2, #1
	ldr	r0, [r7, #276]
	bl	FSP_SetRef
	ldr	r3, [r4, #3208]
	b	.L14
.L34:
	mov	r3, #0
	mov	r1, r3
	mov	r8, r3
	mov	r9, r3
	b	.L8
.L58:
	mov	r0, r3
	ldr	r2, .L60
	mov	r3, #170
	ldr	r1, .L60+4
	bl	dprint_vfmw
	ldr	r3, [r4, #3208]
	b	.L16
.L20:
	ldrb	r1, [r3, #1]	@ zero_extendqisi2
	mov	r0, #0
	ldr	ip, [r3, #8]
	ldr	r2, [r3, #28]
	stmia	sp, {r1, lr}
	mov	r3, ip
	str	r0, [sp, #8]
	ldr	r1, .L60+8
	bl	dprint_vfmw
	ldr	r3, [r4, #3208]
	b	.L16
.L61:
	.align	2
.L60:
	.word	.LC2
	.word	.LC3
	.word	.LC4
	UNWIND(.fnend)
	.size	HEVC_UpdateInterLayerReflist, .-HEVC_UpdateInterLayerReflist
	.align	2
	.type	HEVC_CheckThatAllRefPicsAreAvailable.part.14, %function
HEVC_CheckThatAllRefPicsAreAvailable.part.14:
	UNWIND(.fnstart)
	@ args = 0, pretend = 0, frame = 24
	@ frame_needed = 1, uses_anonymous_args = 0
	UNWIND(.movsp ip)
	mov	ip, sp
	stmfd	sp!, {r4, r5, r6, r7, r8, r9, r10, fp, ip, lr, pc}
	UNWIND(.pad #4)
	UNWIND(.save {r4, r5, r6, r7, r8, r9, r10, fp, ip, lr})
	UNWIND(.setfp fp, ip, #-4)
	sub	fp, ip, #4
	UNWIND(.pad #28)
	sub	sp, sp, #28
	add	r7, r0, #4096
	ldr	r2, [r0, #2820]
	movw	ip, #5036
	ldr	r3, [r7, #748]
	movw	r4, #12668
	str	r1, [fp, #-64]
	ldr	r1, [r7, #1648]
	mla	ip, ip, r3, r2
	ldr	r3, [r7, #1644]
	ldr	lr, [r0, #2816]
	mov	r2, #1
	add	r3, r1, r3
	str	r3, [fp, #-60]
	mov	r5, r3
	ldr	r3, [r7, #1652]
	ldr	r1, [ip, #32]
	cmp	r5, r3
	mla	r1, r4, r1, lr
	ldr	r10, [r1, #116]
	mov	r10, r2, asl r10
	bcs	.L63
	add	r6, r5, #1456
	add	r9, r5, #5696
	add	r6, r6, #4
	add	r9, r9, #56
	ldr	r1, [r0, #3040]
	add	r3, r3, #5696
	sub	r10, r10, #1
	add	r6, r0, r6, lsl #2
	add	r9, r0, r9
	add	r3, r3, #56
	mov	r2, #0
	add	r3, r0, r3
	str	r2, [fp, #-52]
	str	r3, [fp, #-48]
	str	r2, [fp, #-56]
.L64:
	cmp	r1, #0
	beq	.L70
	add	r3, r0, #3200
	mov	r8, #0
	add	r3, r3, #8
	mov	r2, r8
	ldr	r5, [r6, #-944]
	b	.L67
.L122:
	cmp	lr, #0
	beq	.L66
	ldr	r4, [ip, #8]
	ldr	lr, [r6]
	cmp	r4, lr
	beq	.L120
.L66:
	add	r2, r2, #1
	add	r3, r3, #4
	cmp	r2, r1
	beq	.L121
.L67:
	ldr	ip, [r3]
	cmp	r5, #0
	ldr	lr, [ip, #60]
	bne	.L122
	cmp	lr, #0
	beq	.L66
	ldr	r4, [r6]
	ldr	lr, [ip, #8]
	eor	lr, lr, r4
	tst	lr, r10
	bne	.L66
.L120:
	ldrb	lr, [ip, #1]	@ zero_extendqisi2
	cmp	lr, #0
	beq	.L66
	ldr	lr, [r0, #2856]
	ldr	r4, [ip, #16]
	ldr	ip, [lr, #4]
	cmp	r4, ip
	movls	r8, #1
	bls	.L66
	ldr	ip, [lr, #644]
	add	r2, r2, #1
	add	r3, r3, #4
	cmp	ip, #1
	movne	r8, #1
	cmp	r2, r1
	bne	.L67
.L121:
	cmp	r8, #0
	beq	.L70
.L68:
	ldr	r3, [fp, #-48]
	add	r9, r9, #1
	add	r6, r6, #4
	cmp	r9, r3
	bne	.L64
	ldr	r3, [fp, #-60]
	cmp	r3, #0
	beq	.L72
.L71:
	add	r5, r0, #5760
	add	r9, r0, #5696
	ldr	r10, [fp, #-60]
	add	r5, r5, #12
	ldr	ip, [fp, #-56]
	add	r9, r9, #56
	mov	r8, #0
.L76:
	cmp	r1, #0
	beq	.L77
	add	r4, r0, #3200
	mov	r6, #0
	add	r4, r4, #4
	mov	r3, r6
	str	ip, [fp, #-48]
	b	.L74
.L73:
	add	r3, r3, #1
	cmp	r3, r1
	beq	.L123
.L74:
	ldr	r2, [r4, #4]!
	ldr	lr, [r2, #60]
	cmp	lr, #0
	bne	.L73
	ldr	ip, [r5]
	ldr	lr, [r7, #724]
	add	lr, lr, ip
	ldr	ip, [r2, #8]
	cmp	ip, lr
	bne	.L73
	ldrb	lr, [r2, #1]	@ zero_extendqisi2
	cmp	lr, #0
	beq	.L73
	ldr	lr, [r0, #2856]
	ldr	r2, [r2, #16]
	ldr	ip, [lr, #4]
	cmp	r2, ip
	movls	r6, #1
	bls	.L73
	ldr	r2, [lr, #644]
	add	r3, r3, #1
	cmp	r2, #1
	movne	r6, #1
	cmp	r3, r1
	bne	.L74
.L123:
	cmp	r6, #0
	ldr	ip, [fp, #-48]
	beq	.L77
.L75:
	add	r8, r8, #1
	add	r5, r5, #4
	cmp	r10, r8
	add	r9, r9, #1
	bhi	.L76
	str	ip, [fp, #-56]
.L72:
	ldr	r3, [fp, #-56]
	cmp	r3, #0
	beq	.L85
	ldr	r3, [fp, #-64]
	mov	r0, #0
	ldr	r2, [fp, #-52]
	str	r2, [r3]
	sub	sp, fp, #40
	ldmfd	sp, {r4, r5, r6, r7, r8, r9, r10, fp, sp, pc}
.L77:
	ldr	r2, [r7, #744]
	ldr	r3, [r7, #724]
	ldr	lr, [r5]
	add	r2, r0, r2, lsl #2
	add	r3, r3, lr
	ldr	r2, [r2, #244]
	cmp	r3, r2
	blt	.L75
	ldrb	r2, [r9]	@ zero_extendqisi2
	cmp	r2, #0
	ldr	r2, [fp, #-52]
	movne	ip, #1
	movne	r2, r3
	str	r2, [fp, #-52]
	b	.L75
.L70:
	ldr	r2, [r7, #744]
	ldr	r3, [r7, #724]
	ldr	ip, [r6, #-68]
	add	r2, r0, r2, lsl #2
	add	r3, r3, ip
	ldr	r2, [r2, #244]
	cmp	r3, r2
	blt	.L68
	ldrb	r2, [r9]	@ zero_extendqisi2
	cmp	r2, #0
	ldr	r2, [fp, #-52]
	movne	r2, r3
	ldr	r3, [fp, #-56]
	str	r2, [fp, #-52]
	movne	r3, #1
	str	r3, [fp, #-56]
	b	.L68
.L85:
	mov	r0, #1
	sub	sp, fp, #40
	ldmfd	sp, {r4, r5, r6, r7, r8, r9, r10, fp, sp, pc}
.L63:
	ldr	r3, [fp, #-60]
	cmp	r3, #0
	beq	.L85
	mov	r3, #0
	ldr	r1, [r0, #3040]
	str	r3, [fp, #-52]
	str	r3, [fp, #-56]
	b	.L71
	UNWIND(.fnend)
	.size	HEVC_CheckThatAllRefPicsAreAvailable.part.14, .-HEVC_CheckThatAllRefPicsAreAvailable.part.14
	.align	2
	.type	HEVC_SetFrmRepeatCount.part.15, %function
HEVC_SetFrmRepeatCount.part.15:
	UNWIND(.fnstart)
	@ args = 0, pretend = 0, frame = 0
	@ frame_needed = 1, uses_anonymous_args = 0
	UNWIND(.movsp ip)
	mov	ip, sp
	stmfd	sp!, {fp, ip, lr, pc}
	UNWIND(.pad #4)
	UNWIND(.save {fp, ip, lr})
	UNWIND(.setfp fp, ip, #-4)
	sub	fp, ip, #4
	ldr	ip, [r0, #316]
	ldr	r2, [r0, #3036]
	ldr	r3, [r0, #312]
	add	r2, r2, ip
	add	ip, r2, #1
	cmp	r3, ip
	movcc	r3, #0
	strcc	r3, [r1, #16]
	ldmccfd	sp, {fp, sp, pc}
	sub	r3, r3, #1
	rsb	r3, r2, r3
	cmp	r3, #1
	movhi	r3, #2
	movls	r3, #1
	strhi	r3, [r1, #16]
	strls	r3, [r1, #16]
	ldrhi	r3, [r0, #316]
	ldrls	r3, [r0, #316]
	addhi	r3, r3, #2
	addls	r3, r3, #1
	str	r3, [r0, #316]
	ldmfd	sp, {fp, sp, pc}
	UNWIND(.fnend)
	.size	HEVC_SetFrmRepeatCount.part.15, .-HEVC_SetFrmRepeatCount.part.15
	.align	2
	.type	HEVC_OutputFrame, %function
HEVC_OutputFrame:
	UNWIND(.fnstart)
	@ args = 0, pretend = 0, frame = 8
	@ frame_needed = 1, uses_anonymous_args = 0
	UNWIND(.movsp ip)
	mov	ip, sp
	stmfd	sp!, {r4, r5, r6, r7, r8, r9, r10, fp, ip, lr, pc}
	UNWIND(.pad #4)
	UNWIND(.save {r4, r5, r6, r7, r8, r9, r10, fp, ip, lr})
	UNWIND(.setfp fp, ip, #-4)
	sub	fp, ip, #4
	UNWIND(.pad #20)
	sub	sp, sp, #20
	mov	r4, r0
	mov	r6, r1
	ldr	r0, [r0, #276]
	ldr	r1, [r1, #28]
	bl	FSP_GetFsImagePtr
	subs	r5, r0, #0
	beq	.L179
	ldrb	r2, [r4, #1]	@ zero_extendqisi2
	cmp	r2, #1
	beq	.L180
.L131:
	mov	r2, #1
	ldr	r1, [r6, #28]
	ldr	r0, [r4, #276]
	bl	FSP_SetDisplay
	add	r3, r4, #6144
	ldr	r0, [r4, #276]
	add	r3, r3, #40
	str	r5, [sp]
	mov	r2, r4
	mov	r1, #16
	bl	InsertImgToVoQueue
	cmp	r0, #1
	bne	.L181
.L151:
	ldr	r3, [r4, #2856]
	ldr	r3, [r3, #620]
	add	r3, r3, #2032
	add	r3, r3, #15
	cmp	r3, #4096
	movcc	r3, #0
	strcc	r3, [r5, #16]
	bcs	.L182
.L149:
	ldr	r2, [r4, #324]
	mov	r0, #0
	ldr	r3, [r4, #316]
	add	r2, r2, #1
	str	r2, [r4, #324]
	add	r3, r3, #1
	str	r3, [r4, #316]
.L172:
	sub	sp, fp, #40
	ldmfd	sp, {r4, r5, r6, r7, r8, r9, r10, fp, sp, pc}
.L182:
	mov	r1, r5
	mov	r0, r4
	bl	HEVC_SetFrmRepeatCount.part.15
	b	.L149
.L180:
	ldr	r1, [r6, #28]
	ldr	r0, [r4, #276]
	bl	FSP_SetDisplay
	ldr	r3, [r4, #2856]
	ldr	r3, [r3, #24]
	cmp	r3, #6
	beq	.L183
	bics	r2, r3, #4
	bne	.L146
	ldr	r3, [r6, #32]
	cmp	r3, #0
	beq	.L131
	b	.L147
.L146:
	cmp	r3, #5
	bne	.L131
	ldr	r3, [r6, #32]
	cmp	r3, #1
	beq	.L131
.L147:
	ldr	r1, [r6, #28]
	mov	r2, #0
	ldr	r0, [r4, #276]
	bl	FSP_SetDisplay
	b	.L151
.L183:
	cmp	r6, #0
	addeq	r3, r4, #2416
	moveq	r9, r3
	beq	.L133
	ldr	r3, [r6, #32]
	cmp	r3, #0
	addne	r7, r4, #2608
	addeq	r3, r4, #2416
	addne	r7, r7, #4
	addne	r3, r4, #2416
	moveq	r7, r3
	moveq	r9, r3
	ldrh	r1, [r7, #2]
	movne	r9, r3
	ldrh	r0, [r7]
	add	r2, r1, #1
	and	r3, r2, #15
	cmp	r3, r0
	beq	.L184
.L136:
	mov	r3, r1, asl #4
	ldr	r0, [r6, #8]
	sub	r3, r3, r1, asl #2
	and	r2, r2, #15
	add	r3, r7, r3
	str	r0, [r3, #4]
	ldr	r1, [r6, #28]
	str	r1, [r3, #8]!
	str	r5, [r3, #4]
	strh	r2, [r7, #2]	@ movhi
.L133:
	add	r3, r4, #6144
	str	r5, [fp, #-52]
	mov	r5, r9
	mov	r1, r3
	ldrh	r3, [r9]
	add	r1, r1, #40
	str	r1, [fp, #-48]
.L137:
	ldrh	r2, [r5, #2]
	cmp	r2, r3
	beq	.L176
.L187:
	add	r8, r4, #2608
	add	r8, r8, #4
	ldrh	r6, [r8]
	ldrh	r2, [r8, #2]
	cmp	r2, r6
	beq	.L176
	mov	r7, r3, asl #4
	sub	r7, r7, r3, asl #2
	add	r7, r4, r7
	ldr	r1, [r7, #2428]
	cmp	r1, #0
	beq	.L176
	mov	r10, r6, asl #2
	mov	r6, r6, asl #4
	rsb	r9, r10, r6
	add	r9, r4, r9
	add	r2, r9, #2608
	add	r2, r2, #12
	ldr	r3, [r2, #4]
	cmp	r3, #0
	beq	.L176
	ldr	r3, [r7, #2420]
	ldr	r0, [r9, #2616]
	cmp	r3, r0
	bgt	.L185
	blt	.L186
	ldr	r3, [r1, #180]
	cmp	r3, #0
	beq	.L142
	mov	r3, #0
	str	r3, [r1, #180]
	ldr	r3, [r2, #4]
	mov	r2, #1
	str	r2, [r3, #180]
	ldr	r1, [r7, #2428]
.L142:
	ldr	r0, [r4, #276]
	mov	r2, r4
	str	r1, [sp]
	mov	r1, #16
	ldr	r3, [fp, #-48]
	bl	InsertImgToVoQueue
	cmp	r0, #1
	beq	.L143
	ldr	r2, .L188
	mov	r0, #1
	ldr	r1, .L188+4
	ldr	r3, [r7, #2420]
	bl	dprint_vfmw
	ldr	r1, [r7, #2424]
	mov	r2, #0
	ldr	r0, [r4, #276]
	bl	FSP_SetDisplay
.L143:
	ldrh	r1, [r5]
	rsb	r6, r10, r6
	add	r6, r4, r6
	ldr	r3, [fp, #-48]
	add	r1, r1, #1
	mov	r2, r4
	and	r1, r1, #15
	strh	r1, [r5]	@ movhi
	ldr	ip, [r6, #2624]
	mov	r1, #16
	ldr	r0, [r4, #276]
	str	ip, [sp]
	bl	InsertImgToVoQueue
	cmp	r0, #1
	beq	.L144
	ldr	r3, [r9, #2616]
	mov	r0, #1
	ldr	r2, .L188
	ldr	r1, .L188+8
	bl	dprint_vfmw
.L177:
	ldr	r1, [r9, #2620]
	mov	r2, #0
	ldr	r0, [r4, #276]
	bl	FSP_SetDisplay
.L144:
	ldrh	r3, [r8]
	add	r3, r3, #1
	and	r3, r3, #15
	strh	r3, [r8]	@ movhi
	ldrh	r3, [r5]
	ldrh	r2, [r5, #2]
	cmp	r2, r3
	bne	.L187
.L176:
	ldr	r5, [fp, #-52]
	b	.L151
.L185:
	str	r0, [sp]
	mov	r0, #1
	ldr	r2, .L188
	ldr	r1, .L188+12
	bl	dprint_vfmw
	b	.L177
.L186:
	str	r3, [sp]
	mov	r3, r0
	ldr	r2, .L188
	mov	r0, #1
	ldr	r1, .L188+16
	bl	dprint_vfmw
	ldr	r1, [r7, #2424]
	mov	r2, #0
	ldr	r0, [r4, #276]
	bl	FSP_SetDisplay
	ldrh	r3, [r5]
	add	r3, r3, #1
	and	r3, r3, #15
	strh	r3, [r5]	@ movhi
	b	.L137
.L181:
	ldr	r2, .L188+20
	mov	r0, #1
	ldr	r1, .L188+24
	bl	dprint_vfmw
	ldr	r0, [r4, #276]
	ldr	r1, [r6, #28]
	mov	r2, #0
	bl	FSP_SetDisplay
	mvn	r0, #0
	b	.L172
.L179:
	ldr	r2, .L188+20
	ldr	r1, .L188+28
	bl	dprint_vfmw
	mvn	r0, #0
	b	.L172
.L184:
	mov	r1, r3, asl #4
	mov	r2, #0
	sub	r3, r1, r3, asl #2
	ldr	r0, [r4, #276]
	add	r3, r7, r3
	ldr	r8, [r3, #8]
	mov	r1, r8
	bl	FSP_SetDisplay
	ldrh	r2, [r7]
	ldr	r1, .L188+32
	mov	r3, r8
	add	r2, r2, #1
	mov	r0, #1
	and	r2, r2, #15
	strh	r2, [r7]	@ movhi
	ldr	r2, [r6, #32]
	bl	dprint_vfmw
	ldrh	r1, [r7, #2]
	add	r2, r1, #1
	b	.L136
.L189:
	.align	2
.L188:
	.word	.LANCHOR0+20
	.word	.LC9
	.word	.LC10
	.word	.LC7
	.word	.LC8
	.word	.LANCHOR0
	.word	.LC11
	.word	.LC5
	.word	.LC6
	UNWIND(.fnend)
	.size	HEVC_OutputFrame, .-HEVC_OutputFrame
	.align	2
	.global	HEVC_CheckVpsExtOverlap
	.type	HEVC_CheckVpsExtOverlap, %function
HEVC_CheckVpsExtOverlap:
	UNWIND(.fnstart)
	@ args = 0, pretend = 0, frame = 0
	@ frame_needed = 1, uses_anonymous_args = 0
	UNWIND(.movsp ip)
	mov	ip, sp
	stmfd	sp!, {r4, r5, fp, ip, lr, pc}
	UNWIND(.pad #4)
	UNWIND(.save {r4, r5, fp, ip, lr})
	UNWIND(.setfp fp, ip, #-4)
	sub	fp, ip, #4
	subs	r4, r0, #0
	beq	.L194
.L191:
	add	r3, r4, #12288
	ldrb	r0, [r4]	@ zero_extendqisi2
	ldrb	r3, [r3, #200]	@ zero_extendqisi2
	cmp	r3, #0
	movne	r3, #2
	moveq	r3, #0
	cmp	r0, #0
	moveq	r0, r3
	orrne	r0, r3, #1
	ldmfd	sp, {r4, r5, fp, sp, pc}
.L194:
	ldr	r2, .L195
	mov	r0, #1
	ldr	r1, .L195+4
	bl	dprint_vfmw
	b	.L191
.L196:
	.align	2
.L195:
	.word	.LANCHOR0+48
	.word	.LC12
	UNWIND(.fnend)
	.size	HEVC_CheckVpsExtOverlap, .-HEVC_CheckVpsExtOverlap
	.align	2
	.global	HEVC_CheckPpsExtOverlap
	.type	HEVC_CheckPpsExtOverlap, %function
HEVC_CheckPpsExtOverlap:
	UNWIND(.fnstart)
	@ args = 0, pretend = 0, frame = 0
	@ frame_needed = 1, uses_anonymous_args = 0
	UNWIND(.movsp ip)
	mov	ip, sp
	stmfd	sp!, {r4, r5, fp, ip, lr, pc}
	UNWIND(.pad #4)
	UNWIND(.save {r4, r5, fp, ip, lr})
	UNWIND(.setfp fp, ip, #-4)
	sub	fp, ip, #4
	subs	r4, r0, #0
	beq	.L201
.L198:
	ldrb	r3, [r4, #3144]	@ zero_extendqisi2
	ldrb	r0, [r4]	@ zero_extendqisi2
	cmp	r3, #0
	movne	r3, #2
	moveq	r3, #0
	cmp	r0, #0
	moveq	r0, r3
	orrne	r0, r3, #1
	ldmfd	sp, {r4, r5, fp, sp, pc}
.L201:
	ldr	r2, .L202
	mov	r0, #1
	ldr	r1, .L202+4
	bl	dprint_vfmw
	b	.L198
.L203:
	.align	2
.L202:
	.word	.LANCHOR0+72
	.word	.LC13
	UNWIND(.fnend)
	.size	HEVC_CheckPpsExtOverlap, .-HEVC_CheckPpsExtOverlap
	.align	2
	.global	HEVC_CheckSliceExtOverlap
	.type	HEVC_CheckSliceExtOverlap, %function
HEVC_CheckSliceExtOverlap:
	UNWIND(.fnstart)
	@ args = 0, pretend = 0, frame = 0
	@ frame_needed = 1, uses_anonymous_args = 0
	UNWIND(.movsp ip)
	mov	ip, sp
	stmfd	sp!, {r4, r5, fp, ip, lr, pc}
	UNWIND(.pad #4)
	UNWIND(.save {r4, r5, fp, ip, lr})
	UNWIND(.setfp fp, ip, #-4)
	sub	fp, ip, #4
	subs	r4, r0, #0
	beq	.L208
.L205:
	ldrb	r3, [r4, #16]	@ zero_extendqisi2
	ldrb	r0, [r4]	@ zero_extendqisi2
	cmp	r3, #0
	movne	r3, #2
	moveq	r3, #0
	cmp	r0, #0
	moveq	r0, r3
	orrne	r0, r3, #1
	ldmfd	sp, {r4, r5, fp, sp, pc}
.L208:
	ldr	r2, .L209
	mov	r0, #1
	ldr	r1, .L209+4
	bl	dprint_vfmw
	b	.L205
.L210:
	.align	2
.L209:
	.word	.LANCHOR0+96
	.word	.LC14
	UNWIND(.fnend)
	.size	HEVC_CheckSliceExtOverlap, .-HEVC_CheckSliceExtOverlap
	.align	2
	.global	HEVC_Sei_ParsePts_Init
	.type	HEVC_Sei_ParsePts_Init, %function
HEVC_Sei_ParsePts_Init:
	UNWIND(.fnstart)
	@ args = 0, pretend = 0, frame = 0
	@ frame_needed = 1, uses_anonymous_args = 0
	UNWIND(.movsp ip)
	mov	ip, sp
	stmfd	sp!, {r4, r5, fp, ip, lr, pc}
	UNWIND(.pad #4)
	UNWIND(.save {r4, r5, fp, ip, lr})
	UNWIND(.setfp fp, ip, #-4)
	sub	fp, ip, #4
	ldr	r3, .L212
	mov	r4, r0
	add	r0, r0, #11712
	mov	r2, #56
	mov	r1, #0
	add	r0, r0, #16
	ldr	r3, [r3, #48]
	blx	r3
	add	r3, r4, #3488
	mov	r0, #0
	mov	r1, #0
	mov	r2, #0
	strd	r0, [r3, #40]
	strd	r0, [r3, #16]
	strd	r0, [r3, #24]
	strd	r0, [r3, #32]
	str	r2, [r4, #3484]
	ldmfd	sp, {r4, r5, fp, sp, pc}
.L213:
	.align	2
.L212:
	.word	vfmw_Osal_Func_Ptr_S
	UNWIND(.fnend)
	.size	HEVC_Sei_ParsePts_Init, .-HEVC_Sei_ParsePts_Init
	.align	2
	.global	HEVC_Sei_Get_Dpb_Output_Time
	.type	HEVC_Sei_Get_Dpb_Output_Time, %function
HEVC_Sei_Get_Dpb_Output_Time:
	UNWIND(.fnstart)
	@ args = 0, pretend = 0, frame = 0
	@ frame_needed = 1, uses_anonymous_args = 0
	UNWIND(.movsp ip)
	mov	ip, sp
	stmfd	sp!, {r4, r5, r6, r7, r8, r9, fp, ip, lr, pc}
	UNWIND(.pad #4)
	UNWIND(.save {r4, r5, r6, r7, r8, r9, fp, ip, lr})
	UNWIND(.setfp fp, ip, #-4)
	sub	fp, ip, #4
	UNWIND(.pad #8)
	sub	sp, sp, #8
	add	r3, r0, #4096
	ldr	lr, [r0, #164]
	ldr	ip, [r3, #748]
	cmp	ip, #0
	blt	.L216
	cmp	ip, lr
	bge	.L216
	ldr	r3, [r0, #2820]
	movw	r2, #5036
	mla	ip, r2, ip, r3
	ldr	lr, [ip, #32]
	ldr	ip, [r0, #160]
	cmp	lr, #0
	blt	.L220
	cmp	lr, ip
	bge	.L220
	ldr	r2, [r0, #2816]
	movw	r4, #12668
	ldr	r3, [r1, #36]
	add	ip, r0, #8192
	mla	lr, r4, lr, r2
	str	r3, [ip, #3548]
	ldr	r2, [r1, #40]
	ldr	r3, [ip, #3540]
	str	r2, [ip, #3552]
	cmp	r3, #1
	ldr	r3, [lr, #52]
	add	r3, r3, #90
	ldrb	r6, [lr, r3, asl #2]	@ zero_extendqisi2
	beq	.L228
	ldrb	r3, [ip, #3537]	@ zero_extendqisi2
	cmp	r3, #0
	beq	.L224
	ldrb	r3, [r0, #3480]	@ zero_extendqisi2
	add	lr, r0, #3488
	cmp	r3, #0
	beq	.L225
	ldrd	r2, [lr, #24]
	mov	r8, r2
	mov	r9, r3
.L226:
	ldr	r4, [r0, #3496]
	mov	r5, #0
	adds	r2, r2, r4
	adc	r3, r3, r5
	cmp	r2, r8
	sbcs	r7, r3, r9
	strd	r2, [lr, #40]
	strd	r2, [lr, #16]
	bge	.L223
	adds	r2, r4, r8
	adc	r3, r5, r9
	strd	r2, [lr, #40]
	strd	r2, [lr, #16]
	b	.L223
.L220:
	ldr	r3, [r0, #276]
	movw	r2, #2621
	str	ip, [sp, #4]
	mov	r0, #0
	str	lr, [sp]
	ldr	r1, .L230
	bl	dprint_vfmw
	sub	sp, fp, #36
	ldmfd	sp, {r4, r5, r6, r7, r8, r9, fp, sp, pc}
.L216:
	ldr	r3, [r0, #276]
	movw	r2, #2611
	str	lr, [sp, #4]
	mov	r0, #0
	str	ip, [sp]
	ldr	r1, .L230+4
	bl	dprint_vfmw
	sub	sp, fp, #36
	ldmfd	sp, {r4, r5, r6, r7, r8, r9, fp, sp, pc}
.L224:
	add	lr, r0, #3488
	ldr	r4, [r0, #3496]
	ldrd	r2, [lr, #16]
	adds	r2, r2, r4
	adc	r3, r3, #0
	strd	r2, [lr, #40]
.L223:
	add	r7, ip, #3536
	strd	r2, [lr, #32]
	mov	lr, #0
	strb	lr, [ip, #3537]
	ldrd	r4, [r7, #32]
	strd	r4, [r7, #48]
	ldrb	r1, [r1, #2]	@ zero_extendqisi2
	cmp	r1, lr
	ldr	r1, [r0, #3500]
	bne	.L229
	adds	r2, r2, r1
	adc	r3, r3, #0
	subs	r2, r2, r6
	sbc	r3, r3, #0
	strd	r2, [r7, #32]
	sub	sp, fp, #36
	ldmfd	sp, {r4, r5, r6, r7, r8, r9, fp, sp, pc}
.L229:
	adds	r2, r2, r1
	adc	r3, r3, #0
	movs	r3, r3, asr #1
	mov	r2, r2, rrx
	subs	r2, r2, r6
	sbc	r3, r3, #0
	strd	r2, [r7, #32]
	sub	sp, fp, #36
	ldmfd	sp, {r4, r5, r6, r7, r8, r9, fp, sp, pc}
.L228:
	ldr	r2, [r0, #3484]
	add	lr, r0, #3488
	mov	r3, r2, asr #31
	strd	r2, [lr, #40]
	strd	r2, [lr, #16]
	b	.L223
.L225:
	ldrd	r2, [lr, #16]
	ldrd	r8, [lr, #24]
	b	.L226
.L231:
	.align	2
.L230:
	.word	.LC16
	.word	.LC15
	UNWIND(.fnend)
	.size	HEVC_Sei_Get_Dpb_Output_Time, .-HEVC_Sei_Get_Dpb_Output_Time
	.align	2
	.global	HEVC_Get_Last_IDR_Frame_Info
	.type	HEVC_Get_Last_IDR_Frame_Info, %function
HEVC_Get_Last_IDR_Frame_Info:
	UNWIND(.fnstart)
	@ args = 0, pretend = 0, frame = 0
	@ frame_needed = 1, uses_anonymous_args = 0
	UNWIND(.movsp ip)
	mov	ip, sp
	stmfd	sp!, {r4, r5, fp, ip, lr, pc}
	UNWIND(.pad #4)
	UNWIND(.save {r4, r5, fp, ip, lr})
	UNWIND(.setfp fp, ip, #-4)
	sub	fp, ip, #4
	sub	r3, r1, #19
	cmp	r3, #1
	bls	.L236
.L233:
	sub	r1, r1, #6
	cmp	r1, #3
	addhi	r0, r0, #3488
	ldrhid	r2, [r0, #40]
	strhid	r2, [r0, #24]
	ldmfd	sp, {r4, r5, fp, sp, pc}
.L236:
	ldr	ip, [r0, #2856]
	mvn	r3, #0
	mvn	r2, #0
	ldrd	r4, [ip, #64]
	cmp	r5, r3
	cmpeq	r4, r2
	beq	.L234
	add	r3, r0, #11712
	movw	ip, #11760
	add	r2, r0, #11776
	strd	r4, [r3, #40]
	ldrd	r4, [r0, ip]
	strd	r4, [r2, #-8]
	strd	r4, [r2]
.L234:
	add	r3, r0, #8192
	mov	r2, #1
	strb	r2, [r3, #3536]
	b	.L233
	UNWIND(.fnend)
	.size	HEVC_Get_Last_IDR_Frame_Info, .-HEVC_Get_Last_IDR_Frame_Info
	.global	__aeabi_uidivmod
	.global	__aeabi_uidiv
	.align	2
	.global	HEVC_Sei_Get_Frame_Pts
	.type	HEVC_Sei_Get_Frame_Pts, %function
HEVC_Sei_Get_Frame_Pts:
	UNWIND(.fnstart)
	@ args = 0, pretend = 0, frame = 16
	@ frame_needed = 1, uses_anonymous_args = 0
	UNWIND(.movsp ip)
	mov	ip, sp
	stmfd	sp!, {r4, r5, r6, r7, r8, r9, r10, fp, ip, lr, pc}
	UNWIND(.pad #4)
	UNWIND(.save {r4, r5, r6, r7, r8, r9, r10, fp, ip, lr})
	UNWIND(.setfp fp, ip, #-4)
	sub	fp, ip, #4
	UNWIND(.pad #20)
	sub	sp, sp, #20
	add	r3, r0, #11712
	add	r2, r0, #8192
	add	r3, r3, #48
	mov	r4, r0
	add	r0, r0, #11776
	ldr	r5, [r2, #3548]
	movw	r1, #11760
	ldr	r10, [r2, #3552]
	ldrd	r2, [r3, #-8]
	cmp	r5, #0
	ldrd	r6, [r4, r1]
	strd	r2, [fp, #-52]
	ldrd	r2, [r0, #-8]
	strd	r2, [fp, #-60]
	beq	.L240
	mov	r9, r5
	mov	r0, r10
	b	.L239
.L241:
	mov	r9, r1
.L239:
	mov	r1, r9
	bl	__aeabi_uidivmod
	mov	r0, r9
	cmp	r1, #0
	bne	.L241
.L238:
	ldrd	r2, [fp, #-60]
	mov	r1, r9
	mov	r0, r5
	mov	r8, #1000
	subs	r2, r6, r2
	movw	r5, #4752
	mul	r6, r8, r2
	bl	__aeabi_uidiv
	mov	r1, r9
	mul	r6, r0, r6
	mov	r0, r10
	bl	__aeabi_uidiv
	mov	r1, r0
	mov	r0, r6
	bl	__aeabi_uidiv
	ldrd	r2, [fp, #-52]
	adds	r2, r2, r0
	adc	r3, r3, #0
	mov	r0, r2
	mov	r1, r3
	strd	r0, [r4, r5]
	sub	sp, fp, #40
	ldmfd	sp, {r4, r5, r6, r7, r8, r9, r10, fp, sp, pc}
.L240:
	mov	r9, r10
	b	.L238
	UNWIND(.fnend)
	.size	HEVC_Sei_Get_Frame_Pts, .-HEVC_Sei_Get_Frame_Pts
	.align	2
	.global	HEVC_InitSigLastScan
	.type	HEVC_InitSigLastScan, %function
HEVC_InitSigLastScan:
	UNWIND(.fnstart)
	@ args = 16, pretend = 0, frame = 24
	@ frame_needed = 1, uses_anonymous_args = 0
	UNWIND(.movsp ip)
	mov	ip, sp
	stmfd	sp!, {r4, r5, r6, r7, r8, r9, r10, fp, ip, lr, pc}
	UNWIND(.pad #4)
	UNWIND(.save {r4, r5, r6, r7, r8, r9, r10, fp, ip, lr})
	UNWIND(.setfp fp, ip, #-4)
	sub	fp, ip, #4
	UNWIND(.pad #28)
	sub	sp, sp, #28
	ldr	r4, [fp, #8]
	str	r0, [fp, #-48]
	cmp	r4, #15
	ldr	r6, [fp, #4]
	bgt	.L243
	cmp	r4, #8
	mul	r9, r4, r4
	beq	.L276
	cmp	r9, #0
	movne	r10, r6
	beq	.L243
.L245:
	mov	r5, #0
	rsb	r7, r4, #1
	mov	r8, r5
.L251:
	cmp	r4, r8
	bgt	.L263
	rsb	lr, r4, r8
	sub	r2, r4, #1
	add	lr, lr, #1
.L252:
	cmp	r2, #0
	cmpge	r4, lr
	ble	.L249
	mla	r0, r2, r4, lr
	add	ip, r10, r5, lsl #2
	mov	r1, r5
.L250:
	add	r1, r1, #1
	sub	r2, r2, #1
	rsb	r3, r5, r1
	str	r0, [ip], #4
	add	r3, r3, lr
	add	r0, r0, r7
	cmp	r2, #0
	cmpge	r4, r3
	bgt	.L250
	mov	r5, r1
.L249:
	cmp	r9, r5
	add	r8, r8, #1
	bhi	.L251
.L243:
	cmp	r4, #4
	ble	.L242
	mov	r3, r4, asr #2
	ldr	r1, [fp, #-48]
	str	r3, [fp, #-60]
	mov	r2, r3
	add	r3, r1, r3
	mul	r2, r2, r2
	mov	r0, r2
	str	r2, [fp, #-56]
	cmp	r0, #0
	ldrsb	r2, [r3, #15]
	add	r2, r2, #1
	beq	.L242
	add	r3, r1, #376
.L247:
	rsb	r5, r4, #1
	mov	r2, r2, asl #14
	str	r3, [fp, #-52]
	mov	r3, #0
	str	r2, [fp, #-64]
	str	r3, [fp, #-48]
.L261:
	ldr	r3, .L277
	cmp	r4, #32
	ldr	r1, [fp, #-48]
	mov	r8, #0
	ldr	r2, [fp, #-64]
	ldr	r3, [r3]
	add	r2, r2, r1
	ldr	r9, [fp, #-60]
	ldr	r7, [r3, r2, asl #2]
	ldreq	r3, [fp, #-52]
	mov	r1, r9
	ldreq	r7, [r3]
	mov	r0, r7
	bl	__aeabi_uidiv
	ldr	ip, [fp, #-48]
	mov	r3, r8
	mov	r2, r8
	mov	lr, r8
	mov	r10, ip, asl #4
	mla	r1, r4, r0, r7
	mls	r1, r9, r0, r1
	mov	r9, r1, asl #2
.L255:
	cmp	lr, #3
	mvn	r1, r2
	mov	r1, r1, lsr #31
	movgt	r1, #0
	cmp	r1, #0
	beq	.L256
	mla	r1, r2, r4, lr
	add	r0, r3, r10
	rsb	lr, r3, lr
	add	r0, r6, r0, lsl #2
	add	r1, r1, r9
.L257:
	add	r3, r3, #1
	sub	r2, r2, #1
	add	r7, lr, r3
	str	r1, [r0], #4
	cmp	r7, #3
	mvn	ip, r2
	mov	ip, ip, lsr #31
	add	r1, r1, r5
	movgt	ip, #0
	cmp	ip, #0
	bne	.L257
.L256:
	cmp	r3, #15
	add	r8, r8, #1
	bhi	.L258
	cmp	r8, #3
	movle	r2, r8
	movle	lr, #0
	subgt	lr, r8, #3
	movgt	r2, #3
	b	.L255
.L258:
	ldr	r2, [fp, #-52]
	ldr	r3, [fp, #-48]
	add	r2, r2, #4
	str	r2, [fp, #-52]
	ldr	r2, [fp, #-56]
	add	r3, r3, #1
	str	r3, [fp, #-48]
	cmp	r3, r2
	bne	.L261
.L242:
	sub	sp, fp, #40
	ldmfd	sp, {r4, r5, r6, r7, r8, r9, r10, fp, sp, pc}
.L263:
	mov	r2, r8
	mov	lr, #0
	b	.L252
.L276:
	add	r3, r0, #376
	cmp	r9, #0
	mov	r10, r3
	bne	.L245
	ldr	r2, [fp, #-48]
	mov	r1, #2
	str	r1, [fp, #-60]
	mov	r1, #4
	str	r1, [fp, #-56]
	ldrsb	r2, [r2, #17]
	add	r2, r2, #1
	b	.L247
.L278:
	.align	2
.L277:
	.word	.LANCHOR1
	UNWIND(.fnend)
	.size	HEVC_InitSigLastScan, .-HEVC_InitSigLastScan
	.align	2
	.global	HEVC_InitScalingOrderTable
	.type	HEVC_InitScalingOrderTable, %function
HEVC_InitScalingOrderTable:
	UNWIND(.fnstart)
	@ args = 0, pretend = 0, frame = 0
	@ frame_needed = 1, uses_anonymous_args = 0
	UNWIND(.movsp ip)
	mov	ip, sp
	stmfd	sp!, {r4, r5, r6, r7, fp, ip, lr, pc}
	UNWIND(.pad #4)
	UNWIND(.save {r4, r5, r6, r7, fp, ip, lr})
	UNWIND(.setfp fp, ip, #-4)
	sub	fp, ip, #4
	UNWIND(.pad #16)
	sub	sp, sp, #16
	add	r3, r0, #14
	add	r1, r0, #143
	mov	r6, r0
	mvn	r2, #0
.L280:
	strb	r2, [r3, #1]!
	cmp	r3, r1
	bne	.L280
	ldr	r7, .L284
	mov	r2, #0
	mov	r3, #2
	mov	r4, r2
	mov	r5, r3
	strb	r2, [r6, #19]
	strb	r3, [r6, #31]
	mov	r2, #1
	mov	r3, #3
	strb	r2, [r6, #23]
	strb	r3, [r6, #47]
	mov	r3, #4
	strb	r3, [r6, #79]
.L281:
	ldr	r1, [r7]
	mov	r3, #0
	str	r4, [sp, #12]
	mov	r2, r3
	add	r1, r1, r4, lsl #16
	str	r5, [sp, #8]
	str	r5, [sp, #4]
	add	r4, r4, #1
	str	r1, [sp]
	mov	r0, r6
	mov	r1, r3
	mov	r5, r5, asl #1
	bl	HEVC_InitSigLastScan
	cmp	r4, #7
	bne	.L281
	sub	sp, fp, #28
	ldmfd	sp, {r4, r5, r6, r7, fp, sp, pc}
.L285:
	.align	2
.L284:
	.word	.LANCHOR1
	UNWIND(.fnend)
	.size	HEVC_InitScalingOrderTable, .-HEVC_InitScalingOrderTable
	.global	__aeabi_idiv
	.align	2
	.global	HEVC_GetDar
	.type	HEVC_GetDar, %function
HEVC_GetDar:
	UNWIND(.fnstart)
	@ args = 4, pretend = 0, frame = 0
	@ frame_needed = 1, uses_anonymous_args = 0
	UNWIND(.movsp ip)
	mov	ip, sp
	stmfd	sp!, {r4, r5, fp, ip, lr, pc}
	UNWIND(.pad #4)
	UNWIND(.save {r4, r5, fp, ip, lr})
	UNWIND(.setfp fp, ip, #-4)
	sub	fp, ip, #4
	cmp	r0, #0
	mov	ip, r1
	mov	r5, r3
	ble	.L299
	subs	lr, r0, #255
	movne	lr, #1
	cmp	r0, #16
	movle	r4, #0
	andgt	r4, lr, #1
	cmp	r4, #0
	bne	.L299
	cmp	r2, #0
	cmpne	r1, #0
	moveq	r1, #1
	movne	r1, #0
	cmp	r0, #255
	movne	r1, #0
	andeq	r1, r1, #1
	cmp	r1, #0
	bne	.L287
	cmp	r0, #1
	beq	.L314
	cmp	lr, #0
	ldrne	r3, .L316
	addne	r0, r3, r0, lsl #3
	ldrne	r2, [r0, #128]
	ldrne	ip, [r0, #124]
	mov	r1, r2
	mov	r0, ip, asl #10
	bl	__aeabi_idiv
	ldr	r1, [fp, #4]
	mov	r4, r0
	mov	r0, r5, asl #10
	bl	__aeabi_idiv
	movw	r3, #2405
	movw	r2, #2262
	mul	r0, r0, r4
	add	r4, r0, #1020
	cmp	r0, #0
	add	r4, r4, #3
	movlt	r0, r4
	mov	r0, r0, asr #10
	cmp	r0, r3
	rsble	r3, r0, #2400
	subgt	r3, r0, #2400
	addle	r3, r3, #6
	subgt	r3, r3, #6
	cmp	r0, r2
	bgt	.L292
	rsb	r2, r0, #2256
	add	r2, r2, #7
	cmp	r3, r2
	blt	.L307
.L293:
	movw	r3, #1819
	cmp	r0, r3
	bgt	.L294
	rsb	r3, r0, #1808
	add	r3, r3, #12
	cmp	r2, r3
	bge	.L295
.L309:
	mov	r4, #3
	b	.L287
.L299:
	mov	r4, #0
.L287:
	mov	r2, r4
	ldr	r1, .L316+4
	mov	r0, #22
	bl	dprint_vfmw
	mov	r0, r4
	ldmfd	sp, {r4, r5, fp, sp, pc}
.L292:
	sub	r2, r0, #2256
	sub	r2, r2, #7
	cmp	r3, r2
	bge	.L293
.L307:
	mov	r4, #4
	b	.L287
.L314:
	ldr	r2, [fp, #4]
	movw	r3, #4320
	cmp	r5, #7680
	cmpeq	r2, r3
	bne	.L315
.L304:
	mov	r4, #2
	b	.L287
.L294:
	sub	r3, r0, #1808
	sub	r3, r3, #12
	cmp	r2, r3
	blt	.L309
.L295:
	movw	r2, #1364
	cmp	r0, r2
	rsble	r4, r0, #1360
	subgt	r4, r0, #1360
	addle	r4, r4, #5
	subgt	r4, r4, #5
	cmp	r3, r4
	movlt	r4, #2
	movge	r4, #1
	b	.L287
.L315:
	cmp	r5, #3840
	cmpeq	r2, #2160
	beq	.L304
	sub	r3, r2, #1072
	sub	r3, r3, #8
	bics	r3, r3, #8
	moveq	r3, #1
	movne	r3, #0
	cmp	r5, #1920
	movne	r3, #0
	andeq	r3, r3, #1
	cmp	r3, #0
	bne	.L304
	cmp	r5, #1280
	cmpeq	r2, #720
	beq	.L304
	cmp	r5, #640
	cmpeq	r2, #480
	moveq	r4, #1
	movne	r4, #5
	b	.L287
.L317:
	.align	2
.L316:
	.word	.LANCHOR0
	.word	.LC17
	UNWIND(.fnend)
	.size	HEVC_GetDar, .-HEVC_GetDar
	.align	2
	.global	HEVC_PrintNaluArraySlot
	.type	HEVC_PrintNaluArraySlot, %function
HEVC_PrintNaluArraySlot:
	UNWIND(.fnstart)
	@ args = 0, pretend = 0, frame = 0
	@ frame_needed = 1, uses_anonymous_args = 0
	UNWIND(.movsp ip)
	mov	ip, sp
	stmfd	sp!, {r4, r5, r6, r7, fp, ip, lr, pc}
	UNWIND(.pad #4)
	UNWIND(.save {r4, r5, r6, r7, fp, ip, lr})
	UNWIND(.setfp fp, ip, #-4)
	sub	fp, ip, #4
	UNWIND(.pad #8)
	sub	sp, sp, #8
	ldr	r1, .L324
	mov	r6, r0
	mov	r0, #1
	bl	dprint_vfmw
	ldr	r3, [r6, #168]
	cmn	r3, #1
	movne	r5, #0
	movwne	r7, #52429
	movne	r4, r5
	movtne	r7, 52428
	bne	.L321
	b	.L322
.L320:
	ldr	r3, [r6, #168]
	add	r3, r3, #1
	cmp	r3, r4
	bls	.L322
.L321:
	ldr	r3, [r6, #2852]
	mov	r2, r4
	ldr	r1, .L324+4
	mov	r0, #1
	add	r3, r3, r5
	add	r5, r5, #96
	ldr	ip, [r3, #32]
	str	ip, [sp]
	bl	dprint_vfmw
	umull	r2, r3, r4, r7
	mov	r2, r3, lsr #3
	mov	r3, r2, asl #3
	add	r3, r3, r2, lsl #1
	cmp	r4, r3
	add	r4, r4, #1
	bne	.L320
	ldr	r1, .L324+8
	mov	r0, #1
	bl	dprint_vfmw
	ldr	r3, [r6, #168]
	add	r3, r3, #1
	cmp	r3, r4
	bhi	.L321
.L322:
	ldr	r1, .L324+8
	mov	r0, #1
	bl	dprint_vfmw
	ldr	r1, .L324+12
	mov	r0, #1
	sub	sp, fp, #28
	ldmfd	sp, {r4, r5, r6, r7, fp, sp, lr}
	b	dprint_vfmw
.L325:
	.align	2
.L324:
	.word	.LC18
	.word	.LC21
	.word	.LC19
	.word	.LC20
	UNWIND(.fnend)
	.size	HEVC_PrintNaluArraySlot, .-HEVC_PrintNaluArraySlot
	.align	2
	.global	HEVC_PrintCurrSlicelistX
	.type	HEVC_PrintCurrSlicelistX, %function
HEVC_PrintCurrSlicelistX:
	UNWIND(.fnstart)
	@ args = 0, pretend = 0, frame = 0
	@ frame_needed = 1, uses_anonymous_args = 0
	UNWIND(.movsp ip)
	mov	ip, sp
	stmfd	sp!, {r4, r5, r6, r7, fp, ip, lr, pc}
	UNWIND(.pad #4)
	UNWIND(.save {r4, r5, r6, r7, fp, ip, lr})
	UNWIND(.setfp fp, ip, #-4)
	sub	fp, ip, #4
	add	r6, r0, #4096
	mov	r7, r0
	ldr	r1, .L347
	mov	r0, #1
	bl	dprint_vfmw
	ldr	r2, [r6, #780]
	ldr	r1, .L347+4
	mov	r0, #1
	bl	dprint_vfmw
	ldr	r3, [r6, #780]
	cmp	r3, #0
	addne	r5, r7, #2864
	movne	r4, #0
	beq	.L334
.L333:
	ldr	r3, [r5, #4]!
	mov	r2, r4
	ldr	r1, .L347+8
	mov	r0, #1
	bl	dprint_vfmw
	mov	r0, #1
	ldr	r3, [r5]
	add	r4, r4, r0
	ldr	r1, .L347+12
	cmp	r3, #0
	beq	.L331
	ldr	r2, [r3, #20]
	bl	dprint_vfmw
	ldr	r3, [r5]
	ldr	r3, [r3, #20]
	cmp	r3, #0
	beq	.L331
	ldr	r1, [r3, #28]
	ldr	r0, [r7, #276]
	bl	FSP_GetLogicFs
	ldr	r1, .L347+16
	mov	r2, r0
	mov	r0, #1
	bl	dprint_vfmw
.L331:
	ldr	r1, .L347+20
	mov	r0, #1
	bl	dprint_vfmw
	ldr	r3, [r6, #780]
	cmp	r3, r4
	bhi	.L333
.L334:
	ldr	r2, [r6, #784]
	mov	r0, #1
	ldr	r1, .L347+24
	bl	dprint_vfmw
	ldr	r3, [r6, #784]
	cmp	r3, #0
	addne	r5, r7, #2928
	movne	r4, #0
	addne	r5, r5, #4
	beq	.L329
.L338:
	ldr	r3, [r5, #4]!
	mov	r2, r4
	ldr	r1, .L347+28
	mov	r0, #1
	bl	dprint_vfmw
	mov	r0, #1
	ldr	r3, [r5]
	add	r4, r4, r0
	ldr	r1, .L347+12
	cmp	r3, #0
	beq	.L336
	ldr	r2, [r3, #20]
	bl	dprint_vfmw
	ldr	r3, [r5]
	ldr	r3, [r3, #20]
	cmp	r3, #0
	beq	.L336
	ldr	r1, [r3, #28]
	ldr	r0, [r7, #276]
	bl	FSP_GetLogicFs
	ldr	r1, .L347+16
	mov	r2, r0
	mov	r0, #1
	bl	dprint_vfmw
.L336:
	ldr	r1, .L347+20
	mov	r0, #1
	bl	dprint_vfmw
	ldr	r3, [r6, #784]
	cmp	r3, r4
	bhi	.L338
.L329:
	ldr	r1, .L347+32
	mov	r0, #1
	sub	sp, fp, #28
	ldmfd	sp, {r4, r5, r6, r7, fp, sp, lr}
	b	dprint_vfmw
.L348:
	.align	2
.L347:
	.word	.LC22
	.word	.LC23
	.word	.LC25
	.word	.LC26
	.word	.LC27
	.word	.LC19
	.word	.LC24
	.word	.LC29
	.word	.LC28
	UNWIND(.fnend)
	.size	HEVC_PrintCurrSlicelistX, .-HEVC_PrintCurrSlicelistX
	.align	2
	.global	HEVC_PrintFrameStoreState
	.type	HEVC_PrintFrameStoreState, %function
HEVC_PrintFrameStoreState:
	UNWIND(.fnstart)
	@ args = 0, pretend = 0, frame = 0
	@ frame_needed = 1, uses_anonymous_args = 0
	UNWIND(.movsp ip)
	mov	ip, sp
	stmfd	sp!, {r4, r5, r6, r7, r8, r9, r10, fp, ip, lr, pc}
	UNWIND(.pad #4)
	UNWIND(.save {r4, r5, r6, r7, r8, r9, r10, fp, ip, lr})
	UNWIND(.setfp fp, ip, #-4)
	sub	fp, ip, #4
	UNWIND(.pad #20)
	sub	sp, sp, #20
	ldr	r1, .L356
	mov	r10, r0
	mov	r0, #1
	bl	dprint_vfmw
	ldr	r3, [r10, #180]
	cmp	r3, #0
	addne	r8, r10, #13696
	movne	r9, #0
	addne	r8, r8, #32
	beq	.L353
.L352:
	ldrb	ip, [r8, #2]	@ zero_extendqisi2
	mov	r3, r8
	mov	r2, r9
	ldr	r1, .L356+4
	mov	r0, #1
	add	r5, r8, #616
	str	ip, [sp, #8]
	mov	r4, #0
	ldrb	ip, [r8, #1]	@ zero_extendqisi2
	str	ip, [sp, #4]
	ldr	ip, [r8, #48]
	str	ip, [sp]
	bl	dprint_vfmw
.L351:
	ldrd	r6, [r5, #8]!
	mov	r2, r4
	ldr	r1, .L356+8
	add	r4, r4, #1
	mov	r0, #1
	strd	r6, [sp]
	bl	dprint_vfmw
	cmp	r4, #4
	bne	.L351
	ldr	r1, .L356+12
	mov	r0, #1
	bl	dprint_vfmw
	ldr	r3, [r10, #180]
	add	r9, r9, #1
	add	r8, r8, #720
	cmp	r3, r9
	bhi	.L352
.L353:
	ldr	r1, .L356+16
	mov	r0, #1
	sub	sp, fp, #40
	ldmfd	sp, {r4, r5, r6, r7, r8, r9, r10, fp, sp, lr}
	b	dprint_vfmw
.L357:
	.align	2
.L356:
	.word	.LC30
	.word	.LC32
	.word	.LC33
	.word	.LC19
	.word	.LC31
	UNWIND(.fnend)
	.size	HEVC_PrintFrameStoreState, .-HEVC_PrintFrameStoreState
	.align	2
	.global	HEVC_PrintAPCState
	.type	HEVC_PrintAPCState, %function
HEVC_PrintAPCState:
	UNWIND(.fnstart)
	@ args = 0, pretend = 0, frame = 0
	@ frame_needed = 1, uses_anonymous_args = 0
	UNWIND(.movsp ip)
	mov	ip, sp
	stmfd	sp!, {r4, r5, r6, r7, fp, ip, lr, pc}
	UNWIND(.pad #4)
	UNWIND(.save {r4, r5, r6, r7, fp, ip, lr})
	UNWIND(.setfp fp, ip, #-4)
	sub	fp, ip, #4
	UNWIND(.pad #8)
	sub	sp, sp, #8
	ldr	r1, .L363
	mov	r6, r0
	mov	r0, #1
	bl	dprint_vfmw
	add	r6, r6, #13120
	add	r6, r6, #48
	mov	r7, #0
.L360:
	ldr	ip, [r6, #-4]
	mov	r2, r7
	ldr	r3, [r6]
	mov	r0, #1
	ldr	r1, .L363+4
	mov	r5, r6
	str	ip, [sp]
	mov	r4, #0
	bl	dprint_vfmw
.L359:
	ldr	r3, [r5, #4]!
	mov	r2, r4
	ldr	r1, .L363+8
	add	r4, r4, #1
	mov	r0, #1
	ldr	ip, [r5, #128]
	str	ip, [sp, #4]
	ldr	ip, [r5, #64]
	str	ip, [sp]
	bl	dprint_vfmw
	cmp	r4, #16
	bne	.L359
	add	r7, r7, #1
	add	r6, r6, #280
	cmp	r7, #2
	bne	.L360
	ldr	r1, .L363+12
	mov	r0, #1
	sub	sp, fp, #28
	ldmfd	sp, {r4, r5, r6, r7, fp, sp, lr}
	b	dprint_vfmw
.L364:
	.align	2
.L363:
	.word	.LC34
	.word	.LC35
	.word	.LC36
	.word	.LC37
	UNWIND(.fnend)
	.size	HEVC_PrintAPCState, .-HEVC_PrintAPCState
	.align	2
	.global	HEVC_PrintDPBState
	.type	HEVC_PrintDPBState, %function
HEVC_PrintDPBState:
	UNWIND(.fnstart)
	@ args = 0, pretend = 0, frame = 24
	@ frame_needed = 1, uses_anonymous_args = 0
	UNWIND(.movsp ip)
	mov	ip, sp
	stmfd	sp!, {r4, r5, r6, r7, r8, r9, r10, fp, ip, lr, pc}
	UNWIND(.pad #4)
	UNWIND(.save {r4, r5, r6, r7, r8, r9, r10, fp, ip, lr})
	UNWIND(.setfp fp, ip, #-4)
	sub	fp, ip, #4
	UNWIND(.pad #76)
	sub	sp, sp, #76
	ldr	r1, .L381
	mov	r9, r0
	mov	r0, #1
	bl	dprint_vfmw
	ldr	r1, [r9, #3052]
	ldr	lr, [r9, #3048]
	mov	r0, #1
	ldr	ip, [r9, #3056]
	ldr	r3, [r9, #3040]
	ldr	r2, [r9, #3036]
	stmia	sp, {r1, ip, lr}
	ldr	r1, .L381+4
	bl	dprint_vfmw
	ldr	r3, [r9, #3040]
	cmp	r3, #0
	addne	r4, r9, #3200
	movne	r5, #0
	addne	r4, r4, #4
	beq	.L370
.L369:
	ldr	r3, [r4, #4]!
	ldr	r0, [r9, #276]
	ldr	r2, [r3, #32]
	ldrb	ip, [r3]	@ zero_extendqisi2
	ldr	lr, [r3, #48]
	ldrb	r6, [r3, #1]	@ zero_extendqisi2
	ldrb	r7, [r3, #2]	@ zero_extendqisi2
	ldr	r1, [r3, #28]
	str	r2, [fp, #-48]
	str	ip, [fp, #-52]
	str	lr, [fp, #-56]
	ldr	r8, [r3, #8]
	ldr	r10, [r3, #60]
	str	r6, [fp, #-60]
	str	r7, [fp, #-64]
	bl	FSP_GetLogicFs
	ldr	r3, [r4]
	ldr	r1, [r3, #28]
	mov	r6, r0
	ldr	r0, [r9, #276]
	bl	FSP_GetRef
	ldr	r3, [r4]
	ldr	r1, [r3, #28]
	mov	r7, r0
	ldr	r0, [r9, #276]
	bl	FSP_GetDisplay
	ldr	r1, [r4]
	ldr	lr, [fp, #-56]
	mov	r2, r5
	add	r5, r5, #1
	ldr	ip, [r1, #228]
	mov	r3, r1
	str	ip, [sp, #44]
	ldr	r1, [r1, #28]
	ldr	ip, [fp, #-52]
	str	r10, [sp, #24]
	str	r8, [sp, #20]
	str	r1, [sp, #40]
	ldr	r10, [fp, #-64]
	ldr	r1, [fp, #-48]
	ldr	r8, [fp, #-60]
	str	r10, [sp, #16]
	str	r1, [sp]
	str	r8, [sp, #12]
	str	lr, [sp, #8]
	str	ip, [sp, #4]
	str	r7, [sp, #32]
	str	r6, [sp, #28]
	ldr	r1, .L381+8
	str	r0, [sp, #36]
	mov	r0, #1
	bl	dprint_vfmw
	ldr	r3, [r9, #3040]
	cmp	r3, r5
	bhi	.L369
.L370:
	ldr	r1, .L381+12
	mov	r0, #1
	bl	dprint_vfmw
	ldr	r3, [r9, #3040]
	cmp	r3, #0
	addne	r5, r9, #3200
	movne	r6, #0
	addne	r5, r5, #4
	bne	.L377
	b	.L368
.L380:
	bl	dprint_vfmw
	ldr	r2, [r4, #20]
	ldr	r1, .L381+16
	mov	r0, #1
	bl	dprint_vfmw
	ldrsb	r2, [r4]
	ldr	r1, .L381+20
	mov	r0, #1
	bl	dprint_vfmw
	ldrsb	r2, [r4, #1]
	ldr	r1, .L381+24
	mov	r0, #1
	bl	dprint_vfmw
.L372:
	cmp	r8, #0
	mov	r2, r8
	ldr	r1, .L381+28
	mov	r0, #1
	beq	.L373
	bl	dprint_vfmw
	ldr	r2, [r8, #72]
	ldr	r1, .L381+32
	mov	r0, #1
	bl	dprint_vfmw
.L374:
	cmp	r7, #0
	mov	r2, r7
	ldr	r1, .L381+36
	mov	r0, #1
	beq	.L375
	bl	dprint_vfmw
	ldr	r2, [r7, #72]
	ldr	r1, .L381+40
	mov	r0, #1
	bl	dprint_vfmw
.L376:
	ldr	r1, .L381+12
	mov	r0, #1
	bl	dprint_vfmw
	ldr	r3, [r9, #3040]
	add	r6, r6, #1
	cmp	r3, r6
	bls	.L368
.L377:
	ldr	r3, [r5, #4]!
	ldr	r0, [r9, #276]
	ldr	r1, [r3, #28]
	bl	FSP_GetLogicFs
	ldr	r3, [r5]
	ldr	r1, [r3, #28]
	mov	r4, r0
	ldr	r0, [r9, #276]
	bl	FSP_GetDecPhyFs
	ldr	r3, [r5]
	ldr	r1, [r3, #28]
	mov	r8, r0
	ldr	r0, [r9, #276]
	bl	FSP_GetDispPhyFs
	mov	r2, r6
	ldr	r1, .L381+44
	mov	r7, r0
	mov	r0, #1
	bl	dprint_vfmw
	cmp	r4, #0
	mov	r2, r4
	ldr	r1, .L381+48
	mov	r0, #1
	bne	.L380
	ldr	r1, .L381+52
	mov	r0, #1
	bl	dprint_vfmw
	b	.L372
.L375:
	ldr	r1, .L381+56
	mov	r0, #1
	bl	dprint_vfmw
	b	.L376
.L373:
	ldr	r1, .L381+60
	mov	r0, #1
	bl	dprint_vfmw
	b	.L374
.L368:
	ldr	r1, .L381+64
	mov	r0, #1
	sub	sp, fp, #40
	ldmfd	sp, {r4, r5, r6, r7, r8, r9, r10, fp, sp, lr}
	b	dprint_vfmw
.L382:
	.align	2
.L381:
	.word	.LC38
	.word	.LC39
	.word	.LC40
	.word	.LC19
	.word	.LC44
	.word	.LC45
	.word	.LC46
	.word	.LC48
	.word	.LC49
	.word	.LC51
	.word	.LC52
	.word	.LC42
	.word	.LC43
	.word	.LC47
	.word	.LC53
	.word	.LC50
	.word	.LC41
	UNWIND(.fnend)
	.size	HEVC_PrintDPBState, .-HEVC_PrintDPBState
	.align	2
	.global	HEVC_IsSliceUnit
	.type	HEVC_IsSliceUnit, %function
HEVC_IsSliceUnit:
	UNWIND(.fnstart)
	@ args = 0, pretend = 0, frame = 0
	@ frame_needed = 1, uses_anonymous_args = 0
	UNWIND(.movsp ip)
	mov	ip, sp
	stmfd	sp!, {fp, ip, lr, pc}
	UNWIND(.pad #4)
	UNWIND(.save {fp, ip, lr})
	UNWIND(.setfp fp, ip, #-4)
	sub	fp, ip, #4
	cmp	r0, #9
	bls	.L385
	sub	r0, r0, #16
	cmp	r0, #5
	movhi	r0, #0
	movls	r0, #1
	ldmfd	sp, {fp, sp, pc}
.L385:
	mov	r0, #1
	ldmfd	sp, {fp, sp, pc}
	UNWIND(.fnend)
	.size	HEVC_IsSliceUnit, .-HEVC_IsSliceUnit
	.align	2
	.global	HEVC_IsIUnit
	.type	HEVC_IsIUnit, %function
HEVC_IsIUnit:
	UNWIND(.fnstart)
	@ args = 0, pretend = 0, frame = 0
	@ frame_needed = 1, uses_anonymous_args = 0
	UNWIND(.movsp ip)
	mov	ip, sp
	stmfd	sp!, {fp, ip, lr, pc}
	UNWIND(.pad #4)
	UNWIND(.save {fp, ip, lr})
	UNWIND(.setfp fp, ip, #-4)
	sub	fp, ip, #4
	sub	r0, r0, #16
	cmp	r0, #5
	movhi	r0, #0
	movls	r0, #1
	ldmfd	sp, {fp, sp, pc}
	UNWIND(.fnend)
	.size	HEVC_IsIUnit, .-HEVC_IsIUnit
	.align	2
	.global	HEVC_IsNonRefPic
	.type	HEVC_IsNonRefPic, %function
HEVC_IsNonRefPic:
	UNWIND(.fnstart)
	@ args = 0, pretend = 0, frame = 0
	@ frame_needed = 1, uses_anonymous_args = 0
	UNWIND(.movsp ip)
	mov	ip, sp
	stmfd	sp!, {fp, ip, lr, pc}
	UNWIND(.pad #4)
	UNWIND(.save {fp, ip, lr})
	UNWIND(.setfp fp, ip, #-4)
	sub	fp, ip, #4
	bics	r0, r0, #6
	subne	r0, r0, #8
	clzne	r0, r0
	movne	r0, r0, lsr #5
	moveq	r0, #1
	ldmfd	sp, {fp, sp, pc}
	UNWIND(.fnend)
	.size	HEVC_IsNonRefPic, .-HEVC_IsNonRefPic
	.align	2
	.global	HEVC_IsFlushUnit
	.type	HEVC_IsFlushUnit, %function
HEVC_IsFlushUnit:
	UNWIND(.fnstart)
	@ args = 0, pretend = 0, frame = 0
	@ frame_needed = 1, uses_anonymous_args = 0
	UNWIND(.movsp ip)
	mov	ip, sp
	stmfd	sp!, {fp, ip, lr, pc}
	UNWIND(.pad #4)
	UNWIND(.save {fp, ip, lr})
	UNWIND(.setfp fp, ip, #-4)
	sub	fp, ip, #4
	sub	r0, r0, #16
	cmp	r0, #4
	movhi	r0, #0
	movls	r0, #1
	ldmfd	sp, {fp, sp, pc}
	UNWIND(.fnend)
	.size	HEVC_IsFlushUnit, .-HEVC_IsFlushUnit
	.align	2
	.global	HEVC_IsPVRFlushPic
	.type	HEVC_IsPVRFlushPic, %function
HEVC_IsPVRFlushPic:
	UNWIND(.fnstart)
	@ args = 0, pretend = 0, frame = 0
	@ frame_needed = 1, uses_anonymous_args = 0
	UNWIND(.movsp ip)
	mov	ip, sp
	stmfd	sp!, {fp, ip, lr, pc}
	UNWIND(.pad #4)
	UNWIND(.save {fp, ip, lr})
	UNWIND(.setfp fp, ip, #-4)
	sub	fp, ip, #4
	add	r3, r0, #4096
	ldr	r3, [r3, #24]
	cmp	r3, #0
	bne	.L393
	ldr	r2, [r0, #2856]
	ldr	r1, [r2, #660]
	cmp	r1, #1
	beq	.L397
.L395:
	mov	r0, r3
	ldmfd	sp, {fp, sp, pc}
.L393:
	mov	r0, #0
	ldmfd	sp, {fp, sp, pc}
.L397:
	ldr	r0, [r2, #656]
	cmp	r0, #0
	bne	.L395
	ldr	r3, [r2, #664]
	cmp	r3, #0
	ldmnefd	sp, {fp, sp, pc}
	ldr	r3, [r2, #620]
	add	r3, r3, #1024
	cmp	r3, #2048
	movls	r0, #0
	movhi	r0, #1
	ldmfd	sp, {fp, sp, pc}
	UNWIND(.fnend)
	.size	HEVC_IsPVRFlushPic, .-HEVC_IsPVRFlushPic
	.align	2
	.global	HEVC_IsEosNal
	.type	HEVC_IsEosNal, %function
HEVC_IsEosNal:
	UNWIND(.fnstart)
	@ args = 0, pretend = 0, frame = 0
	@ frame_needed = 1, uses_anonymous_args = 0
	UNWIND(.movsp ip)
	mov	ip, sp
	stmfd	sp!, {r4, r5, fp, ip, lr, pc}
	UNWIND(.pad #4)
	UNWIND(.save {r4, r5, fp, ip, lr})
	UNWIND(.setfp fp, ip, #-4)
	sub	fp, ip, #4
	mov	r1, #32
	mov	r4, r0
	ldr	r0, [r0, #2808]
	bl	BsGet
	mov	r1, #32
	mov	r5, r0
	ldr	r0, [r4, #2808]
	bl	BsGet
	movw	r2, #20036
	movw	r3, #20553
	movt	r2, 17221
	movt	r3, 18515
	cmp	r0, r2
	cmpeq	r5, r3
	moveq	r0, #1
	movne	r0, #0
	ldmfd	sp, {r4, r5, fp, sp, pc}
	UNWIND(.fnend)
	.size	HEVC_IsEosNal, .-HEVC_IsEosNal
	.align	2
	.global	HEVC_CalcTileInfo
	.type	HEVC_CalcTileInfo, %function
HEVC_CalcTileInfo:
	UNWIND(.fnstart)
	@ args = 0, pretend = 0, frame = 8
	@ frame_needed = 1, uses_anonymous_args = 0
	UNWIND(.movsp ip)
	mov	ip, sp
	stmfd	sp!, {r4, r5, r6, r7, r8, r9, r10, fp, ip, lr, pc}
	UNWIND(.pad #4)
	UNWIND(.save {r4, r5, r6, r7, r8, r9, r10, fp, ip, lr})
	UNWIND(.setfp fp, ip, #-4)
	sub	fp, ip, #4
	UNWIND(.pad #20)
	sub	sp, sp, #20
	mov	r7, r1
	ldr	r1, [r0, #2844]
	mov	r5, r2
	ldr	r2, [r0, #2840]
	mov	r4, r0
	str	r3, [fp, #-48]
	ldr	r6, [r1, #68]
	ldr	r2, [r2, #128]
	sub	r3, r6, #1
	ldr	r8, [r1, #72]
	cmp	r3, #9
	str	r2, [fp, #-52]
	bhi	.L427
	sub	r3, r8, #1
	cmp	r3, #10
	bhi	.L428
	ldr	r9, .L429
	mov	r2, #512
	mov	r1, #0
	mov	r0, r7
	ldr	r3, [r9, #48]
	blx	r3
	ldr	r3, [r9, #48]
	mov	r2, #80
	mov	r1, #0
	mov	r0, r5
	blx	r3
	ldr	r3, [r9, #48]
	mov	r2, #88
	mov	r1, #0
	ldr	r0, [fp, #-48]
	blx	r3
	cmp	r6, #0
	ble	.L408
	ldr	r3, [fp, #-52]
	mov	ip, #0
	mov	lr, ip
	mov	r9, r5
	sub	r10, r3, #4
.L407:
	str	ip, [r5, lr, asl #3]
	mov	r3, ip, asl r10
	ldr	r2, [r4, #2844]
	add	r2, r2, lr, lsl #1
	ldrsh	r2, [r2, #172]
	add	ip, r2, ip
	sub	r2, ip, #1
	str	r2, [r9, #4]
	mov	r1, ip, asl r10
	cmp	r3, r1
	bge	.L413
	cmp	r3, #255
	bhi	.L409
	uxtb	r0, lr
	add	r2, r7, r3
	b	.L411
.L412:
	cmp	r3, #256
	beq	.L409
.L411:
	add	r3, r3, #1
	strb	r0, [r2], #1
	cmp	r3, r1
	bne	.L412
.L413:
	add	lr, lr, #1
	add	r9, r9, #8
	cmp	lr, r6
	bne	.L407
.L408:
	cmp	r8, #0
	ble	.L405
	ldr	r3, [fp, #-52]
	mov	ip, #0
	ldr	r9, [fp, #-48]
	mov	lr, ip
	sub	r5, r3, #4
	mov	r6, r9
.L415:
	str	ip, [r9, lr, asl #3]
	mov	r3, ip, asl r5
	ldr	r2, [r4, #2844]
	add	r2, r2, lr, lsl #1
	ldrsh	r2, [r2, #212]
	add	ip, r2, ip
	sub	r2, ip, #1
	str	r2, [r6, #4]
	mov	r1, ip, asl r5
	cmp	r3, r1
	bge	.L420
	cmp	r3, #255
	bhi	.L416
	add	r2, r3, #255
	uxtb	r0, lr
	add	r2, r7, r2
	b	.L418
.L419:
	cmp	r3, #256
	beq	.L416
.L418:
	add	r3, r3, #1
	strb	r0, [r2, #1]!
	cmp	r3, r1
	bne	.L419
.L420:
	add	lr, lr, #1
	add	r6, r6, #8
	cmp	lr, r8
	bne	.L415
.L405:
	mov	r0, #0
	b	.L401
.L409:
	ldr	r2, .L429+4
	mov	r0, #1
	ldr	r1, .L429+8
	bl	dprint_vfmw
	mvn	r0, #0
.L401:
	sub	sp, fp, #40
	ldmfd	sp, {r4, r5, r6, r7, r8, r9, r10, fp, sp, pc}
.L416:
	ldr	r2, .L429+4
	mov	r0, #1
	ldr	r1, .L429+12
	bl	dprint_vfmw
	mvn	r0, #0
	b	.L401
.L428:
	mov	r1, #11
	mov	r3, r8
	str	r1, [sp]
	mov	r0, #1
	ldr	r2, .L429+4
	ldr	r1, .L429+16
	bl	dprint_vfmw
	mvn	r0, #0
	b	.L401
.L427:
	mov	r1, #10
	mov	r3, r6
	str	r1, [sp]
	mov	r0, #1
	ldr	r2, .L429+4
	ldr	r1, .L429+20
	bl	dprint_vfmw
	mvn	r0, #0
	b	.L401
.L430:
	.align	2
.L429:
	.word	vfmw_Osal_Func_Ptr_S
	.word	.LANCHOR0+260
	.word	.LC56
	.word	.LC57
	.word	.LC55
	.word	.LC54
	UNWIND(.fnend)
	.size	HEVC_CalcTileInfo, .-HEVC_CalcTileInfo
	.align	2
	.global	HEVC_Sei_More_Data_In_Payload
	.type	HEVC_Sei_More_Data_In_Payload, %function
HEVC_Sei_More_Data_In_Payload:
	UNWIND(.fnstart)
	@ args = 0, pretend = 0, frame = 0
	@ frame_needed = 1, uses_anonymous_args = 0
	UNWIND(.movsp ip)
	mov	ip, sp
	stmfd	sp!, {r4, r5, fp, ip, lr, pc}
	UNWIND(.pad #4)
	UNWIND(.save {r4, r5, fp, ip, lr})
	UNWIND(.setfp fp, ip, #-4)
	sub	fp, ip, #4
	ldr	r2, [r0, #2808]
	mov	r5, r1
	ldr	r3, [r2, #24]
	mov	r0, r2
	ldr	r4, [r2, #28]
	rsb	r4, r4, r3
	bl	BsIsByteAligned
	cmp	r4, r5, asl #3
	movne	r3, #1
	moveq	r3, #0
	cmp	r0, #0
	moveq	r0, #0
	andne	r0, r3, #1
	eor	r0, r0, #1
	ldmfd	sp, {r4, r5, fp, sp, pc}
	UNWIND(.fnend)
	.size	HEVC_Sei_More_Data_In_Payload, .-HEVC_Sei_More_Data_In_Payload
	.align	2
	.global	HEVC_Sei_Payload_Extension_Present
	.type	HEVC_Sei_Payload_Extension_Present, %function
HEVC_Sei_Payload_Extension_Present:
	UNWIND(.fnstart)
	@ args = 0, pretend = 0, frame = 32
	@ frame_needed = 1, uses_anonymous_args = 0
	UNWIND(.movsp ip)
	mov	ip, sp
	stmfd	sp!, {r4, r5, fp, ip, lr, pc}
	UNWIND(.pad #4)
	UNWIND(.save {r4, r5, fp, ip, lr})
	UNWIND(.setfp fp, ip, #-4)
	sub	fp, ip, #4
	UNWIND(.pad #32)
	sub	sp, sp, #32
	ldr	r3, .L439
	mov	r5, r1
	mov	r2, #32
	ldr	r1, [r0, #2808]
	sub	r0, fp, #52
	ldr	r3, [r3, #52]
	mov	r5, r5, asl #3
	blx	r3
	ldr	r3, [fp, #-28]
	ldr	r2, [fp, #-24]
	rsb	r3, r2, r3
	cmp	r3, r5
	movcs	r0, #0
	bcc	.L438
.L433:
	sub	sp, fp, #20
	ldmfd	sp, {r4, r5, fp, sp, pc}
.L438:
	mov	r1, #1
	sub	r0, fp, #52
	bl	BsShow
	cmp	r0, #0
	moveq	r0, #1
	beq	.L433
	mov	r1, #1
	sub	r0, fp, #52
	bl	BsSkip
	ldr	r3, [fp, #-28]
	ldr	r4, [fp, #-24]
	rsb	r4, r4, r3
	b	.L434
.L435:
	bl	BsSkip
	ldr	r3, [fp, #-28]
	ldr	r4, [fp, #-24]
	rsb	r4, r4, r3
.L434:
	mov	r1, #1
	sub	r0, fp, #52
	bl	BsShow
	cmp	r4, r5
	mov	r1, #1
	movcs	r3, #0
	movcc	r3, #1
	cmp	r0, #0
	movne	r2, #0
	andeq	r2, r3, #1
	sub	r0, fp, #52
	cmp	r2, #0
	bne	.L435
	mov	r0, r3
	sub	sp, fp, #20
	ldmfd	sp, {r4, r5, fp, sp, pc}
.L440:
	.align	2
.L439:
	.word	vfmw_Osal_Func_Ptr_S
	UNWIND(.fnend)
	.size	HEVC_Sei_Payload_Extension_Present, .-HEVC_Sei_Payload_Extension_Present
	.align	2
	.global	HEVC_Sei_Decoded_Picture_Hash
	.type	HEVC_Sei_Decoded_Picture_Hash, %function
HEVC_Sei_Decoded_Picture_Hash:
	UNWIND(.fnstart)
	@ args = 0, pretend = 0, frame = 0
	@ frame_needed = 1, uses_anonymous_args = 0
	UNWIND(.movsp ip)
	mov	ip, sp
	stmfd	sp!, {r4, r5, r6, r7, fp, ip, lr, pc}
	UNWIND(.pad #4)
	UNWIND(.save {r4, r5, r6, r7, fp, ip, lr})
	UNWIND(.setfp fp, ip, #-4)
	sub	fp, ip, #4
	cmp	r1, #0
	cmpne	r0, #0
	mov	r5, r0
	beq	.L449
	mov	r1, #8
	ldr	r0, [r0, #2808]
	bl	BsGet
	mov	r6, #3
	mov	r7, r0
.L448:
	cmp	r7, #0
	bne	.L443
	mov	r4, #16
.L444:
	mov	r1, #8
	ldr	r0, [r5, #2808]
	bl	BsGet
	subs	r4, r4, #1
	bne	.L444
.L445:
	subs	r6, r6, #1
	bne	.L448
.L453:
	mov	r0, r6
	ldmfd	sp, {r4, r5, r6, r7, fp, sp, pc}
.L443:
	cmp	r7, #1
	beq	.L452
	cmp	r7, #2
	bne	.L445
	mov	r1, #32
	ldr	r0, [r5, #2808]
	bl	BsGet
	subs	r6, r6, #1
	bne	.L448
	b	.L453
.L452:
	mov	r1, #16
	ldr	r0, [r5, #2808]
	bl	BsGet
	subs	r6, r6, #1
	bne	.L448
	b	.L453
.L449:
	mvn	r0, #0
	ldmfd	sp, {r4, r5, r6, r7, fp, sp, pc}
	UNWIND(.fnend)
	.size	HEVC_Sei_Decoded_Picture_Hash, .-HEVC_Sei_Decoded_Picture_Hash
	.align	2
	.global	HEVC_Sei_Region_Refresh_Info
	.type	HEVC_Sei_Region_Refresh_Info, %function
HEVC_Sei_Region_Refresh_Info:
	UNWIND(.fnstart)
	@ args = 0, pretend = 0, frame = 0
	@ frame_needed = 1, uses_anonymous_args = 0
	UNWIND(.movsp ip)
	mov	ip, sp
	stmfd	sp!, {r4, r5, fp, ip, lr, pc}
	UNWIND(.pad #4)
	UNWIND(.save {r4, r5, fp, ip, lr})
	UNWIND(.setfp fp, ip, #-4)
	sub	fp, ip, #4
	cmp	r1, #0
	cmpne	r0, #0
	moveq	r4, #1
	movne	r4, #0
	beq	.L456
	mov	r1, #1
	ldr	r0, [r0, #2808]
	bl	BsGet
	mov	r0, r4
	ldmfd	sp, {r4, r5, fp, sp, pc}
.L456:
	mvn	r0, #0
	ldmfd	sp, {r4, r5, fp, sp, pc}
	UNWIND(.fnend)
	.size	HEVC_Sei_Region_Refresh_Info, .-HEVC_Sei_Region_Refresh_Info
	.align	2
	.global	HEVC_Sei_Mastering_Display_Colour_Volume
	.type	HEVC_Sei_Mastering_Display_Colour_Volume, %function
HEVC_Sei_Mastering_Display_Colour_Volume:
	UNWIND(.fnstart)
	@ args = 0, pretend = 0, frame = 0
	@ frame_needed = 1, uses_anonymous_args = 0
	UNWIND(.movsp ip)
	mov	ip, sp
	stmfd	sp!, {r4, r5, r6, r7, fp, ip, lr, pc}
	UNWIND(.pad #4)
	UNWIND(.save {r4, r5, r6, r7, fp, ip, lr})
	UNWIND(.setfp fp, ip, #-4)
	sub	fp, ip, #4
	cmp	r1, #0
	cmpne	r0, #0
	mov	r5, r0
	mov	r6, r1
	beq	.L460
	add	r7, r1, #12
	mov	r4, r1
	mov	r3, #1
	strb	r3, [r1]
.L459:
	mov	r1, #16
	ldr	r0, [r5, #2808]
	bl	BsGet
	mov	r1, #16
	str	r0, [r4, #4]!
	ldr	r0, [r5, #2808]
	bl	BsGet
	cmp	r4, r7
	str	r0, [r4, #12]
	bne	.L459
	mov	r1, #16
	ldr	r0, [r5, #2808]
	bl	BsGet
	mov	r1, #16
	str	r0, [r6, #28]
	ldr	r0, [r5, #2808]
	bl	BsGet
	mov	r1, #32
	str	r0, [r6, #32]
	ldr	r0, [r5, #2808]
	bl	BsGet
	mov	r1, #32
	str	r0, [r6, #36]
	ldr	r0, [r5, #2808]
	bl	BsGet
	mov	r3, #0
	str	r0, [r6, #40]
.L458:
	mov	r0, r3
	ldmfd	sp, {r4, r5, r6, r7, fp, sp, pc}
.L460:
	mvn	r3, #0
	b	.L458
	UNWIND(.fnend)
	.size	HEVC_Sei_Mastering_Display_Colour_Volume, .-HEVC_Sei_Mastering_Display_Colour_Volume
	.align	2
	.global	HEVC_Sei_Content_Light_Level_Information
	.type	HEVC_Sei_Content_Light_Level_Information, %function
HEVC_Sei_Content_Light_Level_Information:
	UNWIND(.fnstart)
	@ args = 0, pretend = 0, frame = 0
	@ frame_needed = 1, uses_anonymous_args = 0
	UNWIND(.movsp ip)
	mov	ip, sp
	stmfd	sp!, {r4, r5, r6, r7, fp, ip, lr, pc}
	UNWIND(.pad #4)
	UNWIND(.save {r4, r5, r6, r7, fp, ip, lr})
	UNWIND(.setfp fp, ip, #-4)
	sub	fp, ip, #4
	cmp	r1, #0
	cmpne	r0, #0
	mov	r6, r0
	mov	r5, r1
	moveq	r4, #1
	movne	r4, #0
	beq	.L464
	mov	r3, #1
	mov	r1, #16
	strb	r3, [r5]
	ldr	r0, [r0, #2808]
	bl	BsGet
	mov	r1, #16
	strh	r0, [r5, #2]	@ movhi
	ldr	r0, [r6, #2808]
	bl	BsGet
	mov	r3, r4
	strh	r0, [r5, #4]	@ movhi
.L463:
	mov	r0, r3
	ldmfd	sp, {r4, r5, r6, r7, fp, sp, pc}
.L464:
	mvn	r3, #0
	b	.L463
	UNWIND(.fnend)
	.size	HEVC_Sei_Content_Light_Level_Information, .-HEVC_Sei_Content_Light_Level_Information
	.align	2
	.global	HEVC_Sei_HLGHDR_Comapitibility_Info
	.type	HEVC_Sei_HLGHDR_Comapitibility_Info, %function
HEVC_Sei_HLGHDR_Comapitibility_Info:
	UNWIND(.fnstart)
	@ args = 0, pretend = 0, frame = 0
	@ frame_needed = 1, uses_anonymous_args = 0
	UNWIND(.movsp ip)
	mov	ip, sp
	stmfd	sp!, {r4, r5, fp, ip, lr, pc}
	UNWIND(.pad #4)
	UNWIND(.save {r4, r5, fp, ip, lr})
	UNWIND(.setfp fp, ip, #-4)
	sub	fp, ip, #4
	cmp	r1, #0
	cmpne	r0, #0
	mov	r5, r1
	moveq	r4, #1
	movne	r4, #0
	beq	.L467
	ldr	r0, [r0, #2808]
	mov	r1, #8
	bl	BsGet
	mov	r3, r4
	strb	r0, [r5]
.L466:
	mov	r0, r3
	ldmfd	sp, {r4, r5, fp, sp, pc}
.L467:
	mvn	r3, #0
	b	.L466
	UNWIND(.fnend)
	.size	HEVC_Sei_HLGHDR_Comapitibility_Info, .-HEVC_Sei_HLGHDR_Comapitibility_Info
	.align	2
	.global	HEVC_Sei_Temporal_Sub_Layer_Zero_Index
	.type	HEVC_Sei_Temporal_Sub_Layer_Zero_Index, %function
HEVC_Sei_Temporal_Sub_Layer_Zero_Index:
	UNWIND(.fnstart)
	@ args = 0, pretend = 0, frame = 0
	@ frame_needed = 1, uses_anonymous_args = 0
	UNWIND(.movsp ip)
	mov	ip, sp
	stmfd	sp!, {r4, r5, fp, ip, lr, pc}
	UNWIND(.pad #4)
	UNWIND(.save {r4, r5, fp, ip, lr})
	UNWIND(.setfp fp, ip, #-4)
	sub	fp, ip, #4
	cmp	r1, #0
	cmpne	r0, #0
	mov	r5, r0
	moveq	r4, #1
	movne	r4, #0
	beq	.L470
	mov	r1, #1
	ldr	r0, [r0, #2808]
	bl	BsGet
	mov	r1, #1
	ldr	r0, [r5, #2808]
	bl	BsGet
	ldr	r0, [r5, #2808]
	bl	BsToNextByte
	mov	r0, r4
	ldmfd	sp, {r4, r5, fp, sp, pc}
.L470:
	mvn	r0, #0
	ldmfd	sp, {r4, r5, fp, sp, pc}
	UNWIND(.fnend)
	.size	HEVC_Sei_Temporal_Sub_Layer_Zero_Index, .-HEVC_Sei_Temporal_Sub_Layer_Zero_Index
	.align	2
	.global	HEVC_Sei_Display_Orientation
	.type	HEVC_Sei_Display_Orientation, %function
HEVC_Sei_Display_Orientation:
	UNWIND(.fnstart)
	@ args = 0, pretend = 0, frame = 0
	@ frame_needed = 1, uses_anonymous_args = 0
	UNWIND(.movsp ip)
	mov	ip, sp
	stmfd	sp!, {r4, r5, fp, ip, lr, pc}
	UNWIND(.pad #4)
	UNWIND(.save {r4, r5, fp, ip, lr})
	UNWIND(.setfp fp, ip, #-4)
	sub	fp, ip, #4
	cmp	r1, #0
	cmpne	r0, #0
	mov	r4, r0
	beq	.L474
	mov	r1, #1
	ldr	r0, [r0, #2808]
	bl	BsGet
	tst	r0, #255
	beq	.L475
.L473:
	ldr	r0, [r4, #2808]
	bl	BsToNextByte
	mov	r0, #0
	ldmfd	sp, {r4, r5, fp, sp, pc}
.L475:
	mov	r1, #1
	ldr	r0, [r4, #2808]
	bl	BsGet
	mov	r1, #1
	ldr	r0, [r4, #2808]
	bl	BsGet
	mov	r1, #16
	ldr	r0, [r4, #2808]
	bl	BsGet
	mov	r1, #1
	ldr	r0, [r4, #2808]
	bl	BsGet
	b	.L473
.L474:
	mvn	r0, #0
	ldmfd	sp, {r4, r5, fp, sp, pc}
	UNWIND(.fnend)
	.size	HEVC_Sei_Display_Orientation, .-HEVC_Sei_Display_Orientation
	.align	2
	.global	HEVC_Sei_TSI
	.type	HEVC_Sei_TSI, %function
HEVC_Sei_TSI:
	UNWIND(.fnstart)
	@ args = 0, pretend = 0, frame = 0
	@ frame_needed = 1, uses_anonymous_args = 0
	UNWIND(.movsp ip)
	mov	ip, sp
	stmfd	sp!, {r4, r5, r6, r7, fp, ip, lr, pc}
	UNWIND(.pad #4)
	UNWIND(.save {r4, r5, r6, r7, fp, ip, lr})
	UNWIND(.setfp fp, ip, #-4)
	sub	fp, ip, #4
	cmp	r1, #0
	cmpne	r0, #0
	mov	r6, r0
	mov	r5, r1
	moveq	r4, #1
	movne	r4, #0
	beq	.L478
	mov	r1, #4
	ldr	r0, [r0, #2808]
	bl	BsGet
	mov	r1, #4
	strb	r0, [r5, #1]
	ldr	r0, [r6, #2808]
	bl	BsGet
	mov	r3, r4
	mov	r2, #1
	strb	r2, [r5]
	strb	r0, [r5, #2]
.L477:
	mov	r0, r3
	ldmfd	sp, {r4, r5, r6, r7, fp, sp, pc}
.L478:
	mvn	r3, #0
	b	.L477
	UNWIND(.fnend)
	.size	HEVC_Sei_TSI, .-HEVC_Sei_TSI
	.align	2
	.global	HEVC_Sei_User_Data_Unregistered
	.type	HEVC_Sei_User_Data_Unregistered, %function
HEVC_Sei_User_Data_Unregistered:
	UNWIND(.fnstart)
	@ args = 0, pretend = 0, frame = 0
	@ frame_needed = 1, uses_anonymous_args = 0
	UNWIND(.movsp ip)
	mov	ip, sp
	stmfd	sp!, {r4, r5, r6, r7, fp, ip, lr, pc}
	UNWIND(.pad #4)
	UNWIND(.save {r4, r5, r6, r7, fp, ip, lr})
	UNWIND(.setfp fp, ip, #-4)
	sub	fp, ip, #4
	cmp	r2, #15
	mov	r6, r2
	mov	r5, r0
	movhi	r4, #16
	bls	.L488
.L482:
	mov	r1, #8
	ldr	r0, [r5, #2808]
	bl	BsGet
	subs	r4, r4, #1
	bne	.L482
	subs	r6, r6, #16
	beq	.L484
.L483:
	add	r4, r4, #1
	mov	r1, #8
	ldr	r0, [r5, #2808]
	bl	BsGet
	cmp	r6, r4
	bne	.L483
.L484:
	mov	r0, #0
	ldmfd	sp, {r4, r5, r6, r7, fp, sp, pc}
.L488:
	ldr	r1, .L489
	mov	r0, #1
	bl	dprint_vfmw
	mvn	r0, #0
	ldmfd	sp, {r4, r5, r6, r7, fp, sp, pc}
.L490:
	.align	2
.L489:
	.word	.LC58
	UNWIND(.fnend)
	.size	HEVC_Sei_User_Data_Unregistered, .-HEVC_Sei_User_Data_Unregistered
	.align	2
	.global	HEVC_IsRefListWrong
	.type	HEVC_IsRefListWrong, %function
HEVC_IsRefListWrong:
	UNWIND(.fnstart)
	@ args = 0, pretend = 0, frame = 0
	@ frame_needed = 1, uses_anonymous_args = 0
	UNWIND(.movsp ip)
	mov	ip, sp
	stmfd	sp!, {r4, r5, r6, r7, fp, ip, lr, pc}
	UNWIND(.pad #4)
	UNWIND(.save {r4, r5, r6, r7, fp, ip, lr})
	UNWIND(.setfp fp, ip, #-4)
	sub	fp, ip, #4
	UNWIND(.pad #8)
	sub	sp, sp, #8
	add	r7, r0, #4096
	mov	r5, r0
	ldr	r3, [r7, #780]
	cmp	r3, #0
	beq	.L492
	ldr	r4, [r0, #2868]
	cmp	r4, #0
	beq	.L493
	ldr	r2, [r4, #20]
	cmp	r2, #0
	addne	r6, r0, #2864
	movne	r4, #0
	addne	r6, r6, #4
	bne	.L498
	b	.L536
.L499:
	ldr	r3, [ip, #28]
	cmp	r3, #0
	beq	.L500
	ldr	r3, [r7, #780]
	add	r4, r4, #1
	cmp	r4, r3
	bcs	.L537
	ldr	r2, [r6, #4]!
	cmp	r2, #0
	beq	.L493
	ldr	r2, [r2, #20]
	cmp	r2, #0
	beq	.L494
.L498:
	ldr	r1, [r2, #28]
	ldr	r0, [r5, #276]
	bl	FSP_GetLogicFs
	subs	ip, r0, #0
	bne	.L499
.L500:
	add	r5, r5, r4, lsl #2
	mov	r2, r4
	ldr	r1, .L541
	mov	r0, #1
	ldr	r3, [r5, #2868]
	ldr	r3, [r3, #20]
	str	ip, [sp]
	bl	dprint_vfmw
.L497:
	mvn	r0, #0
	sub	sp, fp, #28
	ldmfd	sp, {r4, r5, r6, r7, fp, sp, pc}
.L537:
	cmp	r3, #0
	beq	.L492
	ldr	r2, [r7, #784]
	cmp	r2, #0
	beq	.L492
	ldr	r4, [r5, #2936]
	cmp	r4, #0
	beq	.L505
	ldr	r2, [r4, #20]
	cmp	r2, #0
	addne	r6, r5, #2928
	movne	r4, #0
	addne	r6, r6, #8
	bne	.L509
	b	.L538
.L510:
	ldr	r3, [r0, #28]
	cmp	r3, #0
	beq	.L511
	ldr	r3, [r7, #784]
	add	r4, r4, #1
	cmp	r4, r3
	bcs	.L492
	ldr	r3, [r6, #4]!
	cmp	r3, #0
	beq	.L539
	ldr	r2, [r3, #20]
	cmp	r2, #0
	beq	.L540
.L509:
	ldr	r1, [r2, #28]
	ldr	r0, [r5, #276]
	bl	FSP_GetLogicFs
	cmp	r0, #0
	bne	.L510
.L511:
	mov	r3, r0
	mov	r2, r4
	ldr	r1, .L541+4
	mov	r0, #1
	bl	dprint_vfmw
	mvn	r0, #0
	b	.L531
.L492:
	mov	r0, #0
.L531:
	sub	sp, fp, #28
	ldmfd	sp, {r4, r5, r6, r7, fp, sp, pc}
.L493:
	mov	r2, r4
	ldr	r1, .L541+8
	mov	r0, #1
	bl	dprint_vfmw
	b	.L497
.L536:
	mov	r4, r2
.L494:
	mov	r2, r4
	ldr	r1, .L541+12
	mov	r0, #1
	bl	dprint_vfmw
	b	.L497
.L539:
	ldr	r3, [r7, #780]
.L505:
	mov	r2, r4
	ldr	r1, .L541+16
	mov	r0, #1
	bl	dprint_vfmw
	mvn	r0, #0
	b	.L531
.L540:
	ldr	r3, [r7, #780]
.L506:
	mov	r2, r4
	ldr	r1, .L541+20
	mov	r0, #1
	bl	dprint_vfmw
	mvn	r0, #0
	b	.L531
.L538:
	mov	r4, r2
	b	.L506
.L542:
	.align	2
.L541:
	.word	.LC61
	.word	.LC64
	.word	.LC59
	.word	.LC60
	.word	.LC62
	.word	.LC63
	UNWIND(.fnend)
	.size	HEVC_IsRefListWrong, .-HEVC_IsRefListWrong
	.align	2
	.global	HEVC_GetUnRefPicWithMinPoc
	.type	HEVC_GetUnRefPicWithMinPoc, %function
HEVC_GetUnRefPicWithMinPoc:
	UNWIND(.fnstart)
	@ args = 0, pretend = 0, frame = 0
	@ frame_needed = 1, uses_anonymous_args = 0
	UNWIND(.movsp ip)
	mov	ip, sp
	stmfd	sp!, {r4, r5, fp, ip, lr, pc}
	UNWIND(.pad #4)
	UNWIND(.save {r4, r5, fp, ip, lr})
	UNWIND(.setfp fp, ip, #-4)
	sub	fp, ip, #4
	UNWIND(.pad #8)
	sub	sp, sp, #8
	mvn	r4, #0
	str	r4, [r1]
	ldr	r3, [r0, #3040]
	cmp	r3, #16
	bhi	.L544
	cmp	r3, #0
	addne	lr, r0, #3200
	mvnne	r5, #-2147483648
	addne	lr, lr, #4
	movne	r2, #0
	beq	.L546
.L549:
	ldr	ip, [lr, #4]!
	ldr	r4, [ip, #8]
	cmp	r4, r5
	bge	.L548
	ldr	ip, [ip]
	bic	ip, ip, #-16777216
	bic	ip, ip, #255
	cmp	ip, #0
	streq	r2, [r1]
	ldreq	r3, [r0, #3040]
	moveq	r5, r4
.L548:
	add	r2, r2, #1
	cmp	r3, r2
	bhi	.L549
	ldr	r3, [r1]
	cmn	r3, #1
	beq	.L546
	str	r5, [sp]
	mov	r0, #1
	ldr	r2, .L552
	ldr	r1, .L552+4
	bl	dprint_vfmw
	mov	r0, #0
.L547:
	sub	sp, fp, #20
	ldmfd	sp, {r4, r5, fp, sp, pc}
.L544:
	ldr	r2, .L552
	mov	r0, #1
	ldr	r1, .L552+8
	bl	dprint_vfmw
	mov	r0, r4
	b	.L547
.L546:
	ldr	r2, .L552
	mov	r0, #1
	ldr	r1, .L552+12
	bl	dprint_vfmw
	mvn	r0, #0
	b	.L547
.L553:
	.align	2
.L552:
	.word	.LANCHOR0+280
	.word	.LC67
	.word	.LC65
	.word	.LC66
	UNWIND(.fnend)
	.size	HEVC_GetUnRefPicWithMinPoc, .-HEVC_GetUnRefPicWithMinPoc
	.align	2
	.global	HEVC_IncreaseDPBSize
	.type	HEVC_IncreaseDPBSize, %function
HEVC_IncreaseDPBSize:
	UNWIND(.fnstart)
	@ args = 0, pretend = 0, frame = 0
	@ frame_needed = 1, uses_anonymous_args = 0
	UNWIND(.movsp ip)
	mov	ip, sp
	stmfd	sp!, {r4, r5, fp, ip, lr, pc}
	UNWIND(.pad #4)
	UNWIND(.save {r4, r5, fp, ip, lr})
	UNWIND(.setfp fp, ip, #-4)
	sub	fp, ip, #4
	UNWIND(.pad #8)
	sub	sp, sp, #8
	ldr	r3, [r0, #3036]
	mov	r5, r0
	cmp	r3, #16
	bhi	.L558
	ldr	r0, [r0, #276]
	bl	FSP_GetTotalValidFsNum
	add	r3, r5, #4096
	ldr	r2, [r5, #276]
	ldr	r1, [r3, #32]
	mov	r4, r0
	ldr	r0, [r3, #28]
	bl	FSP_GetOccupiedNum
	rsb	r0, r0, r4
	bic	r0, r0, r0, asr #31
	cmp	r0, #0
	ble	.L557
	ldr	r3, [r5, #3036]
	add	r3, r3, #1
	cmp	r0, r3
	bcc	.L557
	str	r3, [r5, #3036]
	mov	r0, #13
	ldr	r2, .L559
	ldr	r1, .L559+4
	bl	dprint_vfmw
	mov	r0, #0
.L556:
	sub	sp, fp, #20
	ldmfd	sp, {r4, r5, fp, sp, pc}
.L557:
	mov	r3, r0
	ldr	r2, .L559
	ldr	r1, .L559+8
	mov	r0, #1
	bl	dprint_vfmw
	mvn	r0, #0
	b	.L556
.L558:
	mov	r4, #17
	ldr	r2, .L559
	mov	r0, #1
	str	r4, [sp]
	ldr	r1, .L559+12
	bl	dprint_vfmw
	str	r4, [r5, #3036]
	mvn	r0, #0
	b	.L556
.L560:
	.align	2
.L559:
	.word	.LANCHOR0+308
	.word	.LC69
	.word	.LC70
	.word	.LC68
	UNWIND(.fnend)
	.size	HEVC_IncreaseDPBSize, .-HEVC_IncreaseDPBSize
	.align	2
	.global	HEVC_PicTypeStatistic
	.type	HEVC_PicTypeStatistic, %function
HEVC_PicTypeStatistic:
	UNWIND(.fnstart)
	@ args = 0, pretend = 0, frame = 0
	@ frame_needed = 1, uses_anonymous_args = 0
	UNWIND(.movsp ip)
	mov	ip, sp
	stmfd	sp!, {fp, ip, lr, pc}
	UNWIND(.pad #4)
	UNWIND(.save {fp, ip, lr})
	UNWIND(.setfp fp, ip, #-4)
	sub	fp, ip, #4
	add	r0, r0, #4096
	ldr	r3, [r0, #740]
	sub	r2, r3, #16
	cmp	r2, #5
	bls	.L562
	ldr	r3, [r0, #12]
	sub	r3, r3, #16
	cmp	r3, #5
	bls	.L573
	ldr	r3, [r0, #732]
	cmp	r3, #1
	beq	.L565
	cmp	r3, #2
	beq	.L566
	cmp	r3, #0
	moveq	r3, #2
	streq	r3, [r0, #24]
	ldmfd	sp, {fp, sp, pc}
.L562:
	str	r3, [r0, #12]
	mov	r3, #0
	str	r3, [r0, #24]
	ldmfd	sp, {fp, sp, pc}
.L565:
	ldr	r2, [r0, #24]
	cmp	r2, #2
	beq	.L574
	str	r3, [r0, #24]
	ldmfd	sp, {fp, sp, pc}
.L566:
	ldr	r3, [r0, #24]
	sub	r3, r3, #1
	cmp	r3, #1
	movhi	r3, #0
	strhi	r3, [r0, #24]
	ldmfd	sp, {fp, sp, pc}
.L574:
	ldmfd	sp, {fp, sp, pc}
.L573:
	ldmfd	sp, {fp, sp, pc}
	UNWIND(.fnend)
	.size	HEVC_PicTypeStatistic, .-HEVC_PicTypeStatistic
	.align	2
	.global	HEVC_IsReferenceNalu
	.type	HEVC_IsReferenceNalu, %function
HEVC_IsReferenceNalu:
	UNWIND(.fnstart)
	@ args = 0, pretend = 0, frame = 0
	@ frame_needed = 1, uses_anonymous_args = 0
	UNWIND(.movsp ip)
	mov	ip, sp
	stmfd	sp!, {fp, ip, lr, pc}
	UNWIND(.pad #4)
	UNWIND(.save {fp, ip, lr})
	UNWIND(.setfp fp, ip, #-4)
	sub	fp, ip, #4
	add	r0, r0, #4096
	ldr	r0, [r0, #740]
	cmp	r0, #15
	bhi	.L576
	tst	r0, #1
	bne	.L578
.L576:
	sub	r0, r0, #16
	cmp	r0, #7
	movhi	r0, #0
	movls	r0, #1
	ldmfd	sp, {fp, sp, pc}
.L578:
	mov	r0, #1
	ldmfd	sp, {fp, sp, pc}
	UNWIND(.fnend)
	.size	HEVC_IsReferenceNalu, .-HEVC_IsReferenceNalu
	.align	2
	.global	HEVC_WriteQmatrix_4x4
	.type	HEVC_WriteQmatrix_4x4, %function
HEVC_WriteQmatrix_4x4:
	UNWIND(.fnstart)
	@ args = 0, pretend = 0, frame = 0
	@ frame_needed = 1, uses_anonymous_args = 0
	UNWIND(.movsp ip)
	mov	ip, sp
	stmfd	sp!, {fp, ip, lr, pc}
	UNWIND(.pad #4)
	UNWIND(.save {fp, ip, lr})
	UNWIND(.setfp fp, ip, #-4)
	sub	fp, ip, #4
	add	r1, r1, r0, lsl #6
	ldr	r0, [r1, #640]
	ldr	r3, [r1, #644]
	ldrb	ip, [r1, #632]	@ zero_extendqisi2
	ldrb	lr, [r1, #636]	@ zero_extendqisi2
	mov	r0, r0, asl #8
	orr	r3, ip, r3, asl #24
	uxth	r0, r0
	orr	r3, r3, lr, asl #16
	orr	r3, r3, r0
	str	r3, [r2]
	ldr	r0, [r1, #640]
	ldrb	lr, [r1, #633]	@ zero_extendqisi2
	ldrb	r3, [r1, #645]	@ zero_extendqisi2
	and	r0, r0, #65280
	ldrb	ip, [r1, #637]	@ zero_extendqisi2
	orr	r0, lr, r0
	orr	r3, r0, r3, asl #24
	orr	r3, r3, ip, asl #16
	str	r3, [r2, #4]
	ldr	r0, [r1, #636]
	ldrb	lr, [r1, #634]	@ zero_extendqisi2
	ldrb	r3, [r1, #646]	@ zero_extendqisi2
	and	r0, r0, #16711680
	ldrb	ip, [r1, #642]	@ zero_extendqisi2
	orr	r0, lr, r0
	orr	r3, r0, r3, asl #24
	orr	r3, r3, ip, asl #8
	str	r3, [r2, #8]
	ldr	r0, [r1, #644]
	ldrb	r3, [r1, #639]	@ zero_extendqisi2
	ldrb	lr, [r1, #635]	@ zero_extendqisi2
	and	r0, r0, #-16777216
	ldrb	ip, [r1, #643]	@ zero_extendqisi2
	orr	r1, lr, r0
	orr	r3, r1, r3, asl #16
	orr	r3, r3, ip, asl #8
	str	r3, [r2, #12]
	ldmfd	sp, {fp, sp, pc}
	UNWIND(.fnend)
	.size	HEVC_WriteQmatrix_4x4, .-HEVC_WriteQmatrix_4x4
	.align	2
	.global	HEVC_WriteQmatrix_32x32
	.type	HEVC_WriteQmatrix_32x32, %function
HEVC_WriteQmatrix_32x32:
	UNWIND(.fnstart)
	@ args = 0, pretend = 0, frame = 0
	@ frame_needed = 1, uses_anonymous_args = 0
	UNWIND(.movsp ip)
	mov	ip, sp
	stmfd	sp!, {r4, fp, ip, lr, pc}
	UNWIND(.pad #4)
	UNWIND(.save {r4, fp, ip, lr})
	UNWIND(.setfp fp, ip, #-4)
	sub	fp, ip, #4
	add	lr, r0, #18
	add	r0, r1, r0, lsl #6
	add	lr, r1, lr, lsl #6
	ldr	r1, [r0, #1792]
	ldr	r3, [r0, #1808]
	ldrb	ip, [lr, #632]	@ zero_extendqisi2
	ldrb	r4, [r0, #1800]	@ zero_extendqisi2
	mov	r1, r1, asl #8
	orr	r3, ip, r3, asl #24
	uxth	r1, r1
	orr	r3, r3, r4, asl #16
	orr	r3, r3, r1
	str	r3, [r2]
	ldr	r1, [r0, #1824]
	ldr	r3, [r0, #1840]
	ldrb	ip, [r0, #1816]	@ zero_extendqisi2
	ldrb	r4, [r0, #1832]	@ zero_extendqisi2
	mov	r1, r1, asl #8
	orr	r3, ip, r3, asl #24
	uxth	r1, r1
	orr	r3, r3, r4, asl #16
	orr	r3, r3, r1
	str	r3, [r2, #4]
	ldr	r1, [r0, #1792]
	ldrb	r4, [lr, #633]	@ zero_extendqisi2
	ldrb	r3, [r0, #1809]	@ zero_extendqisi2
	and	r1, r1, #65280
	ldrb	ip, [r0, #1801]	@ zero_extendqisi2
	orr	r1, r4, r1
	orr	r3, r1, r3, asl #24
	orr	r3, r3, ip, asl #16
	str	r3, [r2, #8]
	ldr	r1, [r0, #1824]
	ldrb	r4, [r0, #1817]	@ zero_extendqisi2
	ldrb	r3, [r0, #1841]	@ zero_extendqisi2
	and	r1, r1, #65280
	ldrb	ip, [r0, #1833]	@ zero_extendqisi2
	orr	r1, r4, r1
	orr	r3, r1, r3, asl #24
	orr	r3, r3, ip, asl #16
	str	r3, [r2, #12]
	ldr	ip, [r0, #1800]
	ldrb	r4, [lr, #634]	@ zero_extendqisi2
	ldrb	r3, [r0, #1810]	@ zero_extendqisi2
	and	ip, ip, #16711680
	ldrb	r1, [r0, #1794]	@ zero_extendqisi2
	orr	ip, r4, ip
	orr	r3, ip, r3, asl #24
	orr	r3, r3, r1, asl #8
	str	r3, [r2, #16]
	ldr	ip, [r0, #1832]
	ldrb	r4, [r0, #1818]	@ zero_extendqisi2
	ldrb	r3, [r0, #1842]	@ zero_extendqisi2
	and	ip, ip, #16711680
	ldrb	r1, [r0, #1826]	@ zero_extendqisi2
	orr	ip, r4, ip
	orr	r3, ip, r3, asl #24
	orr	r3, r3, r1, asl #8
	str	r3, [r2, #20]
	ldr	r1, [r0, #1808]
	ldrb	lr, [lr, #635]	@ zero_extendqisi2
	ldrb	r3, [r0, #1803]	@ zero_extendqisi2
	and	r1, r1, #-16777216
	ldrb	ip, [r0, #1795]	@ zero_extendqisi2
	orr	r1, lr, r1
	orr	r3, r1, r3, asl #16
	orr	r3, r3, ip, asl #8
	str	r3, [r2, #24]
	ldr	r1, [r0, #1840]
	ldrb	lr, [r0, #1819]	@ zero_extendqisi2
	ldrb	r3, [r0, #1835]	@ zero_extendqisi2
	and	r1, r1, #-16777216
	ldrb	ip, [r0, #1827]	@ zero_extendqisi2
	orr	r1, lr, r1
	orr	r3, r1, r3, asl #16
	orr	r3, r3, ip, asl #8
	str	r3, [r2, #28]
	ldr	r1, [r0, #1796]
	ldr	r3, [r0, #1812]
	ldrb	ip, [r0, #1788]	@ zero_extendqisi2
	ldrb	lr, [r0, #1804]	@ zero_extendqisi2
	mov	r1, r1, asl #8
	orr	r3, ip, r3, asl #24
	uxth	r1, r1
	orr	r3, r3, lr, asl #16
	orr	r3, r3, r1
	str	r3, [r2, #32]
	ldr	r1, [r0, #1828]
	ldr	r3, [r0, #1844]
	ldrb	ip, [r0, #1820]	@ zero_extendqisi2
	ldrb	lr, [r0, #1836]	@ zero_extendqisi2
	mov	r1, r1, asl #8
	orr	r3, ip, r3, asl #24
	uxth	r1, r1
	orr	r3, r3, lr, asl #16
	orr	r3, r3, r1
	str	r3, [r2, #36]
	ldr	r1, [r0, #1796]
	ldrb	lr, [r0, #1789]	@ zero_extendqisi2
	ldrb	r3, [r0, #1813]	@ zero_extendqisi2
	and	r1, r1, #65280
	ldrb	ip, [r0, #1805]	@ zero_extendqisi2
	orr	r1, lr, r1
	orr	r3, r1, r3, asl #24
	orr	r3, r3, ip, asl #16
	str	r3, [r2, #40]
	ldr	r1, [r0, #1828]
	ldrb	lr, [r0, #1821]	@ zero_extendqisi2
	ldrb	r3, [r0, #1845]	@ zero_extendqisi2
	and	r1, r1, #65280
	ldrb	ip, [r0, #1837]	@ zero_extendqisi2
	orr	r1, lr, r1
	orr	r3, r1, r3, asl #24
	orr	r3, r3, ip, asl #16
	str	r3, [r2, #44]
	ldr	r1, [r0, #1804]
	ldrb	lr, [r0, #1790]	@ zero_extendqisi2
	ldrb	r3, [r0, #1814]	@ zero_extendqisi2
	and	r1, r1, #16711680
	ldrb	ip, [r0, #1798]	@ zero_extendqisi2
	orr	r1, lr, r1
	orr	r3, r1, r3, asl #24
	orr	r3, r3, ip, asl #8
	str	r3, [r2, #48]
	ldr	r1, [r0, #1836]
	ldrb	lr, [r0, #1822]	@ zero_extendqisi2
	ldrb	r3, [r0, #1846]	@ zero_extendqisi2
	and	r1, r1, #16711680
	ldrb	ip, [r0, #1830]	@ zero_extendqisi2
	orr	r1, lr, r1
	orr	r3, r1, r3, asl #24
	orr	r3, r3, ip, asl #8
	str	r3, [r2, #52]
	ldr	r1, [r0, #1812]
	ldrb	lr, [r0, #1791]	@ zero_extendqisi2
	ldrb	r3, [r0, #1807]	@ zero_extendqisi2
	and	r1, r1, #-16777216
	ldrb	ip, [r0, #1799]	@ zero_extendqisi2
	orr	r1, lr, r1
	orr	r3, r1, r3, asl #16
	orr	r3, r3, ip, asl #8
	str	r3, [r2, #56]
	ldr	r1, [r0, #1844]
	ldrb	ip, [r0, #1823]	@ zero_extendqisi2
	ldrb	r3, [r0, #1839]	@ zero_extendqisi2
	and	r1, r1, #-16777216
	ldrb	r0, [r0, #1831]	@ zero_extendqisi2
	orr	r1, ip, r1
	orr	r3, r1, r3, asl #16
	orr	r3, r3, r0, asl #8
	str	r3, [r2, #60]
	ldmfd	sp, {r4, fp, sp, pc}
	UNWIND(.fnend)
	.size	HEVC_WriteQmatrix_32x32, .-HEVC_WriteQmatrix_32x32
	.align	2
	.global	HEVC_WriteQmatrix_8x8
	.type	HEVC_WriteQmatrix_8x8, %function
HEVC_WriteQmatrix_8x8:
	UNWIND(.fnstart)
	@ args = 0, pretend = 0, frame = 0
	@ frame_needed = 1, uses_anonymous_args = 0
	UNWIND(.movsp ip)
	mov	ip, sp
	stmfd	sp!, {r4, fp, ip, lr, pc}
	UNWIND(.pad #4)
	UNWIND(.save {r4, fp, ip, lr})
	UNWIND(.setfp fp, ip, #-4)
	sub	fp, ip, #4
	add	lr, r0, #6
	add	r0, r1, r0, lsl #6
	add	lr, r1, lr, lsl #6
	ldr	r1, [r0, #1032]
	ldr	r3, [r0, #1064]
	ldrb	ip, [lr, #632]	@ zero_extendqisi2
	ldrb	r4, [r0, #1048]	@ zero_extendqisi2
	mov	r1, r1, asl #8
	orr	r3, ip, r3, asl #24
	uxth	r1, r1
	orr	r3, r3, r4, asl #16
	orr	r3, r3, r1
	str	r3, [r2]
	ldr	r1, [r0, #1040]
	ldr	r3, [r0, #1072]
	ldrb	ip, [r0, #1024]	@ zero_extendqisi2
	ldrb	r4, [r0, #1056]	@ zero_extendqisi2
	mov	r1, r1, asl #8
	orr	r3, ip, r3, asl #24
	uxth	r1, r1
	orr	r3, r3, r4, asl #16
	orr	r3, r3, r1
	str	r3, [r2, #4]
	ldr	r1, [r0, #1032]
	ldrb	r4, [lr, #633]	@ zero_extendqisi2
	ldrb	r3, [r0, #1065]	@ zero_extendqisi2
	and	r1, r1, #65280
	ldrb	ip, [r0, #1049]	@ zero_extendqisi2
	orr	r1, r4, r1
	orr	r3, r1, r3, asl #24
	orr	r3, r3, ip, asl #16
	str	r3, [r2, #8]
	ldr	r1, [r0, #1040]
	ldrb	r4, [r0, #1025]	@ zero_extendqisi2
	ldrb	r3, [r0, #1073]	@ zero_extendqisi2
	and	r1, r1, #65280
	ldrb	ip, [r0, #1057]	@ zero_extendqisi2
	orr	r1, r4, r1
	orr	r3, r1, r3, asl #24
	orr	r3, r3, ip, asl #16
	str	r3, [r2, #12]
	ldr	ip, [r0, #1048]
	ldrb	r4, [lr, #634]	@ zero_extendqisi2
	ldrb	r3, [r0, #1066]	@ zero_extendqisi2
	and	ip, ip, #16711680
	ldrb	r1, [r0, #1034]	@ zero_extendqisi2
	orr	ip, r4, ip
	orr	r3, ip, r3, asl #24
	orr	r3, r3, r1, asl #8
	str	r3, [r2, #16]
	ldr	ip, [r0, #1056]
	ldrb	r4, [r0, #1026]	@ zero_extendqisi2
	ldrb	r3, [r0, #1074]	@ zero_extendqisi2
	and	ip, ip, #16711680
	ldrb	r1, [r0, #1042]	@ zero_extendqisi2
	orr	ip, r4, ip
	orr	r3, ip, r3, asl #24
	orr	r3, r3, r1, asl #8
	str	r3, [r2, #20]
	ldr	r1, [r0, #1064]
	ldrb	lr, [lr, #635]	@ zero_extendqisi2
	ldrb	r3, [r0, #1051]	@ zero_extendqisi2
	and	r1, r1, #-16777216
	ldrb	ip, [r0, #1035]	@ zero_extendqisi2
	orr	r1, lr, r1
	orr	r3, r1, r3, asl #16
	orr	r3, r3, ip, asl #8
	str	r3, [r2, #24]
	ldr	r1, [r0, #1072]
	ldrb	lr, [r0, #1027]	@ zero_extendqisi2
	ldrb	r3, [r0, #1059]	@ zero_extendqisi2
	and	r1, r1, #-16777216
	ldrb	ip, [r0, #1043]	@ zero_extendqisi2
	orr	r1, lr, r1
	orr	r3, r1, r3, asl #16
	orr	r3, r3, ip, asl #8
	str	r3, [r2, #28]
	ldr	r1, [r0, #1036]
	ldr	r3, [r0, #1068]
	ldrb	ip, [r0, #1020]	@ zero_extendqisi2
	ldrb	lr, [r0, #1052]	@ zero_extendqisi2
	mov	r1, r1, asl #8
	orr	r3, ip, r3, asl #24
	uxth	r1, r1
	orr	r3, r3, lr, asl #16
	orr	r3, r3, r1
	str	r3, [r2, #32]
	ldr	r1, [r0, #1044]
	ldr	r3, [r0, #1076]
	ldrb	ip, [r0, #1028]	@ zero_extendqisi2
	ldrb	lr, [r0, #1060]	@ zero_extendqisi2
	mov	r1, r1, asl #8
	orr	r3, ip, r3, asl #24
	uxth	r1, r1
	orr	r3, r3, lr, asl #16
	orr	r3, r3, r1
	str	r3, [r2, #36]
	ldr	r1, [r0, #1036]
	ldrb	lr, [r0, #1021]	@ zero_extendqisi2
	ldrb	r3, [r0, #1069]	@ zero_extendqisi2
	and	r1, r1, #65280
	ldrb	ip, [r0, #1053]	@ zero_extendqisi2
	orr	r1, lr, r1
	orr	r3, r1, r3, asl #24
	orr	r3, r3, ip, asl #16
	str	r3, [r2, #40]
	ldr	r1, [r0, #1044]
	ldrb	lr, [r0, #1029]	@ zero_extendqisi2
	ldrb	r3, [r0, #1077]	@ zero_extendqisi2
	and	r1, r1, #65280
	ldrb	ip, [r0, #1061]	@ zero_extendqisi2
	orr	r1, lr, r1
	orr	r3, r1, r3, asl #24
	orr	r3, r3, ip, asl #16
	str	r3, [r2, #44]
	ldr	r1, [r0, #1052]
	ldrb	lr, [r0, #1022]	@ zero_extendqisi2
	ldrb	r3, [r0, #1070]	@ zero_extendqisi2
	and	r1, r1, #16711680
	ldrb	ip, [r0, #1038]	@ zero_extendqisi2
	orr	r1, lr, r1
	orr	r3, r1, r3, asl #24
	orr	r3, r3, ip, asl #8
	str	r3, [r2, #48]
	ldr	r1, [r0, #1060]
	ldrb	lr, [r0, #1030]	@ zero_extendqisi2
	ldrb	r3, [r0, #1078]	@ zero_extendqisi2
	and	r1, r1, #16711680
	ldrb	ip, [r0, #1046]	@ zero_extendqisi2
	orr	r1, lr, r1
	orr	r3, r1, r3, asl #24
	orr	r3, r3, ip, asl #8
	str	r3, [r2, #52]
	ldr	r1, [r0, #1068]
	ldrb	lr, [r0, #1023]	@ zero_extendqisi2
	ldrb	r3, [r0, #1055]	@ zero_extendqisi2
	and	r1, r1, #-16777216
	ldrb	ip, [r0, #1039]	@ zero_extendqisi2
	orr	r1, lr, r1
	orr	r3, r1, r3, asl #16
	orr	r3, r3, ip, asl #8
	str	r3, [r2, #56]
	ldr	r1, [r0, #1076]
	ldrb	ip, [r0, #1031]	@ zero_extendqisi2
	ldrb	r3, [r0, #1063]	@ zero_extendqisi2
	and	r1, r1, #-16777216
	ldrb	r0, [r0, #1047]	@ zero_extendqisi2
	orr	r1, ip, r1
	orr	r3, r1, r3, asl #16
	orr	r3, r3, r0, asl #8
	str	r3, [r2, #60]
	ldmfd	sp, {r4, fp, sp, pc}
	UNWIND(.fnend)
	.size	HEVC_WriteQmatrix_8x8, .-HEVC_WriteQmatrix_8x8
	.align	2
	.global	HEVC_WriteQmatrix_16x16
	.type	HEVC_WriteQmatrix_16x16, %function
HEVC_WriteQmatrix_16x16:
	UNWIND(.fnstart)
	@ args = 0, pretend = 0, frame = 0
	@ frame_needed = 1, uses_anonymous_args = 0
	UNWIND(.movsp ip)
	mov	ip, sp
	stmfd	sp!, {r4, fp, ip, lr, pc}
	UNWIND(.pad #4)
	UNWIND(.save {r4, fp, ip, lr})
	UNWIND(.setfp fp, ip, #-4)
	sub	fp, ip, #4
	add	lr, r0, #12
	add	r0, r1, r0, lsl #6
	add	lr, r1, lr, lsl #6
	ldr	r1, [r0, #1408]
	ldr	r3, [r0, #1424]
	ldrb	ip, [lr, #632]	@ zero_extendqisi2
	ldrb	r4, [r0, #1416]	@ zero_extendqisi2
	mov	r1, r1, asl #8
	orr	r3, ip, r3, asl #24
	uxth	r1, r1
	orr	r3, r3, r4, asl #16
	orr	r3, r3, r1
	str	r3, [r2]
	ldr	r1, [r0, #1440]
	ldr	r3, [r0, #1456]
	ldrb	ip, [r0, #1432]	@ zero_extendqisi2
	ldrb	r4, [r0, #1448]	@ zero_extendqisi2
	mov	r1, r1, asl #8
	orr	r3, ip, r3, asl #24
	uxth	r1, r1
	orr	r3, r3, r4, asl #16
	orr	r3, r3, r1
	str	r3, [r2, #4]
	ldr	r1, [r0, #1408]
	ldrb	r4, [lr, #633]	@ zero_extendqisi2
	ldrb	r3, [r0, #1425]	@ zero_extendqisi2
	and	r1, r1, #65280
	ldrb	ip, [r0, #1417]	@ zero_extendqisi2
	orr	r1, r4, r1
	orr	r3, r1, r3, asl #24
	orr	r3, r3, ip, asl #16
	str	r3, [r2, #8]
	ldr	r1, [r0, #1440]
	ldrb	r4, [r0, #1433]	@ zero_extendqisi2
	ldrb	r3, [r0, #1457]	@ zero_extendqisi2
	and	r1, r1, #65280
	ldrb	ip, [r0, #1449]	@ zero_extendqisi2
	orr	r1, r4, r1
	orr	r3, r1, r3, asl #24
	orr	r3, r3, ip, asl #16
	str	r3, [r2, #12]
	ldr	ip, [r0, #1416]
	ldrb	r4, [lr, #634]	@ zero_extendqisi2
	ldrb	r3, [r0, #1426]	@ zero_extendqisi2
	and	ip, ip, #16711680
	ldrb	r1, [r0, #1410]	@ zero_extendqisi2
	orr	ip, r4, ip
	orr	r3, ip, r3, asl #24
	orr	r3, r3, r1, asl #8
	str	r3, [r2, #16]
	ldr	ip, [r0, #1448]
	ldrb	r4, [r0, #1434]	@ zero_extendqisi2
	ldrb	r3, [r0, #1458]	@ zero_extendqisi2
	and	ip, ip, #16711680
	ldrb	r1, [r0, #1442]	@ zero_extendqisi2
	orr	ip, r4, ip
	orr	r3, ip, r3, asl #24
	orr	r3, r3, r1, asl #8
	str	r3, [r2, #20]
	ldr	r1, [r0, #1424]
	ldrb	lr, [lr, #635]	@ zero_extendqisi2
	ldrb	r3, [r0, #1419]	@ zero_extendqisi2
	and	r1, r1, #-16777216
	ldrb	ip, [r0, #1411]	@ zero_extendqisi2
	orr	r1, lr, r1
	orr	r3, r1, r3, asl #16
	orr	r3, r3, ip, asl #8
	str	r3, [r2, #24]
	ldr	r1, [r0, #1456]
	ldrb	lr, [r0, #1435]	@ zero_extendqisi2
	ldrb	r3, [r0, #1451]	@ zero_extendqisi2
	and	r1, r1, #-16777216
	ldrb	ip, [r0, #1443]	@ zero_extendqisi2
	orr	r1, lr, r1
	orr	r3, r1, r3, asl #16
	orr	r3, r3, ip, asl #8
	str	r3, [r2, #28]
	ldr	r1, [r0, #1412]
	ldr	r3, [r0, #1428]
	ldrb	ip, [r0, #1404]	@ zero_extendqisi2
	ldrb	lr, [r0, #1420]	@ zero_extendqisi2
	mov	r1, r1, asl #8
	orr	r3, ip, r3, asl #24
	uxth	r1, r1
	orr	r3, r3, lr, asl #16
	orr	r3, r3, r1
	str	r3, [r2, #32]
	ldr	r1, [r0, #1444]
	ldr	r3, [r0, #1460]
	ldrb	ip, [r0, #1436]	@ zero_extendqisi2
	ldrb	lr, [r0, #1452]	@ zero_extendqisi2
	mov	r1, r1, asl #8
	orr	r3, ip, r3, asl #24
	uxth	r1, r1
	orr	r3, r3, lr, asl #16
	orr	r3, r3, r1
	str	r3, [r2, #36]
	ldr	r1, [r0, #1412]
	ldrb	lr, [r0, #1405]	@ zero_extendqisi2
	ldrb	r3, [r0, #1429]	@ zero_extendqisi2
	and	r1, r1, #65280
	ldrb	ip, [r0, #1421]	@ zero_extendqisi2
	orr	r1, lr, r1
	orr	r3, r1, r3, asl #24
	orr	r3, r3, ip, asl #16
	str	r3, [r2, #40]
	ldr	r1, [r0, #1444]
	ldrb	lr, [r0, #1437]	@ zero_extendqisi2
	ldrb	r3, [r0, #1461]	@ zero_extendqisi2
	and	r1, r1, #65280
	ldrb	ip, [r0, #1453]	@ zero_extendqisi2
	orr	r1, lr, r1
	orr	r3, r1, r3, asl #24
	orr	r3, r3, ip, asl #16
	str	r3, [r2, #44]
	ldr	r1, [r0, #1420]
	ldrb	lr, [r0, #1406]	@ zero_extendqisi2
	ldrb	r3, [r0, #1430]	@ zero_extendqisi2
	and	r1, r1, #16711680
	ldrb	ip, [r0, #1414]	@ zero_extendqisi2
	orr	r1, lr, r1
	orr	r3, r1, r3, asl #24
	orr	r3, r3, ip, asl #8
	str	r3, [r2, #48]
	ldr	r1, [r0, #1452]
	ldrb	lr, [r0, #1438]	@ zero_extendqisi2
	ldrb	r3, [r0, #1462]	@ zero_extendqisi2
	and	r1, r1, #16711680
	ldrb	ip, [r0, #1446]	@ zero_extendqisi2
	orr	r1, lr, r1
	orr	r3, r1, r3, asl #24
	orr	r3, r3, ip, asl #8
	str	r3, [r2, #52]
	ldr	r1, [r0, #1428]
	ldrb	lr, [r0, #1407]	@ zero_extendqisi2
	ldrb	r3, [r0, #1423]	@ zero_extendqisi2
	and	r1, r1, #-16777216
	ldrb	ip, [r0, #1415]	@ zero_extendqisi2
	orr	r1, lr, r1
	orr	r3, r1, r3, asl #16
	orr	r3, r3, ip, asl #8
	str	r3, [r2, #56]
	ldr	r1, [r0, #1460]
	ldrb	ip, [r0, #1439]	@ zero_extendqisi2
	ldrb	r3, [r0, #1455]	@ zero_extendqisi2
	and	r1, r1, #-16777216
	ldrb	r0, [r0, #1447]	@ zero_extendqisi2
	orr	r1, ip, r1
	orr	r3, r1, r3, asl #16
	orr	r3, r3, r0, asl #8
	str	r3, [r2, #60]
	ldmfd	sp, {r4, fp, sp, pc}
	UNWIND(.fnend)
	.size	HEVC_WriteQmatrix_16x16, .-HEVC_WriteQmatrix_16x16
	.global	__aeabi_idivmod
	.align	2
	.global	HEVC_CtbRsAddrToTsAddr
	.type	HEVC_CtbRsAddrToTsAddr, %function
HEVC_CtbRsAddrToTsAddr:
	UNWIND(.fnstart)
	@ args = 0, pretend = 0, frame = 200
	@ frame_needed = 1, uses_anonymous_args = 0
	UNWIND(.movsp ip)
	mov	ip, sp
	stmfd	sp!, {r4, r5, r6, r7, r8, r9, r10, fp, ip, lr, pc}
	UNWIND(.pad #4)
	UNWIND(.save {r4, r5, r6, r7, r8, r9, r10, fp, ip, lr})
	UNWIND(.setfp fp, ip, #-4)
	sub	fp, ip, #4
	UNWIND(.pad #204)
	sub	sp, sp, #204
	ldr	ip, [r0, #2844]
	mov	r6, r1
	ldrb	r3, [ip, #13]	@ zero_extendqisi2
	cmp	r3, #0
	beq	.L618
	ldr	r3, [ip, #72]
	ldr	r7, [ip, #68]
	ldrb	r5, [ip, #15]	@ zero_extendqisi2
	mov	r2, r3
	str	r3, [fp, #-236]
	ldr	r3, [r0, #2840]
	cmp	r2, #0
	sub	r8, r2, #1
	sub	r2, r7, #1
	str	r2, [fp, #-240]
	ldr	r4, [r3, #64]
	ldr	r1, [r3, #128]
	ble	.L589
	ldr	r3, [fp, #-236]
	add	r2, ip, #210
	sub	r0, fp, #216
	add	lr, r3, #105
	add	lr, ip, lr, lsl #1
.L588:
	ldrsh	r3, [r2, #2]!
	cmp	r2, lr
	sub	r3, r3, #1
	str	r3, [r0, #4]!
	bne	.L588
.L589:
	cmp	r7, #0
	ble	.L587
	add	r3, r7, #85
	add	r2, ip, #170
	sub	r0, fp, #128
	add	ip, ip, r3, lsl #1
.L592:
	ldrsh	r3, [r2, #2]!
	cmp	r2, ip
	sub	r3, r3, #1
	str	r3, [r0, #4]!
	bne	.L592
.L587:
	mov	r10, #1
	mov	r0, r4
	mov	r10, r10, asl r1
	mov	r1, r10
	bl	__aeabi_idiv
	mov	r1, r10
	mov	r9, r0
	mov	r0, r4
	bl	__aeabi_idivmod
	mov	r0, r6
	cmp	r1, #0
	addne	r9, r9, #1
	mov	r1, r9
	bl	__aeabi_idivmod
	mov	r0, r6
	mov	r4, r1
	mov	r1, r9
	bl	__aeabi_idiv
	cmp	r5, #0
	beq	.L633
	cmp	r8, #0
	mov	r3, #0
	blt	.L609
	sub	r10, fp, #212
	mov	lr, r3
	mov	r6, r3
	mov	r8, r3
	str	r3, [fp, #-232]
	str	r3, [fp, #-244]
.L595:
	ldr	r2, [fp, #-240]
	cmp	r2, #0
	blt	.L612
	ldr	r8, [r10]
	mov	r2, #0
	ldr	r3, [fp, #-232]
	mov	ip, r2
	add	r8, r8, #1
	sub	r5, fp, #128
	mov	r6, lr
	add	r9, r3, r8
	b	.L598
.L610:
	mov	r6, lr
.L598:
	ldr	r3, [r5, #4]!
	add	ip, ip, #1
	add	r3, r3, #1
	add	r1, r2, r3
	cmp	r4, r1
	mla	lr, r8, r3, lr
	bge	.L596
	cmp	r0, r9
	blt	.L630
.L596:
	cmp	ip, r7
	mov	r2, r1
	bne	.L610
.L601:
	add	r2, r1, r3
	cmp	r4, r2
	bge	.L611
	cmp	r0, r9
	blt	.L628
.L611:
	ldr	r2, [fp, #-244]
	add	r10, r10, #4
	ldr	ip, [fp, #-236]
	add	r2, r2, #1
	str	r9, [fp, #-232]
	cmp	r2, ip
	str	r2, [fp, #-244]
	bne	.L595
.L629:
	rsb	r0, r9, r0
	mov	r2, r1
	mul	r3, r0, r3
.L593:
	rsb	r2, r2, r4
	add	r3, r2, r3
	add	r6, r3, r6
.L618:
	mov	r0, r6
	sub	sp, fp, #40
	ldmfd	sp, {r4, r5, r6, r7, r8, r9, r10, fp, sp, pc}
.L633:
	cmp	r8, #0
	mov	r3, r5
	blt	.L609
	ldr	r2, [fp, #-240]
	sub	r10, fp, #212
	str	r5, [fp, #-232]
	mov	lr, r5
	cmp	r2, #0
	str	r5, [fp, #-244]
	mov	r6, r5
	mov	r8, r5
	blt	.L615
.L634:
	ldr	r8, [r10]
	mov	r2, #0
	ldr	r3, [fp, #-232]
	mov	ip, r2
	add	r8, r8, #1
	sub	r5, fp, #128
	mov	r6, lr
	add	r9, r3, r8
	b	.L604
.L613:
	mov	r6, lr
.L604:
	ldr	r3, [r5, #4]!
	add	ip, ip, #1
	add	r3, r3, #1
	add	r1, r2, r3
	cmp	r4, r1
	mla	lr, r8, r3, lr
	bge	.L602
	cmp	r0, r9
	blt	.L603
.L602:
	cmp	ip, r7
	mov	r2, r1
	bne	.L613
.L607:
	add	r2, r1, r3
	cmp	r4, r2
	bge	.L627
	cmp	r0, r9
	blt	.L628
.L627:
	ldr	r2, [fp, #-244]
	add	r10, r10, #4
	ldr	ip, [fp, #-236]
	add	r2, r2, #1
	str	r9, [fp, #-232]
	cmp	r2, ip
	str	r2, [fp, #-244]
	beq	.L629
	ldr	r2, [fp, #-240]
	cmp	r2, #0
	bge	.L634
.L615:
	ldr	r2, [fp, #-232]
	mov	r1, #0
	add	r9, r2, r8
	b	.L607
.L630:
	ldr	r1, [fp, #-232]
	rsb	r0, r1, r0
	mul	r3, r0, r3
	b	.L593
.L603:
	cmp	r1, r4
	bgt	.L630
	mov	r1, r2
	b	.L627
.L612:
	ldr	r2, [fp, #-232]
	mov	r1, #0
	add	r9, r2, r8
	b	.L601
.L628:
	ldr	r2, [fp, #-232]
	rsb	r0, r2, r0
	mov	r2, r1
	mul	r3, r0, r3
	b	.L593
.L609:
	mov	r2, r3
	mov	r6, r3
	b	.L593
	UNWIND(.fnend)
	.size	HEVC_CtbRsAddrToTsAddr, .-HEVC_CtbRsAddrToTsAddr
	.align	2
	.global	HEVC_CtbTsAddrToRsAddr
	.type	HEVC_CtbTsAddrToRsAddr, %function
HEVC_CtbTsAddrToRsAddr:
	UNWIND(.fnstart)
	@ args = 0, pretend = 0, frame = 200
	@ frame_needed = 1, uses_anonymous_args = 0
	UNWIND(.movsp ip)
	mov	ip, sp
	stmfd	sp!, {r4, r5, r6, r7, r8, r9, r10, fp, ip, lr, pc}
	UNWIND(.pad #4)
	UNWIND(.save {r4, r5, r6, r7, r8, r9, r10, fp, ip, lr})
	UNWIND(.setfp fp, ip, #-4)
	sub	fp, ip, #4
	UNWIND(.pad #204)
	sub	sp, sp, #204
	ldr	lr, [r0, #2844]
	mov	r6, r1
	ldrb	r3, [lr, #13]	@ zero_extendqisi2
	cmp	r3, #0
	moveq	r0, r1
	beq	.L659
	ldr	r3, [lr, #72]
	ldr	r7, [lr, #68]
	mov	r2, r3
	str	r3, [fp, #-232]
	ldr	r3, [r0, #2840]
	cmp	r2, #0
	ldr	r4, [r3, #64]
	ldr	ip, [r3, #128]
	ble	.L641
	ldr	r3, [fp, #-232]
	add	r2, lr, #210
	sub	r1, fp, #216
	add	r0, r3, #105
	add	r0, lr, r0, lsl #1
.L640:
	ldrsh	r3, [r2, #2]!
	cmp	r2, r0
	sub	r3, r3, #1
	str	r3, [r1, #4]!
	bne	.L640
.L641:
	cmp	r7, #0
	ble	.L639
	add	r0, r7, #85
	add	r2, lr, #170
	sub	r1, fp, #128
	add	r0, lr, r0, lsl #1
.L644:
	ldrsh	r3, [r2, #2]!
	cmp	r2, r0
	sub	r3, r3, #1
	str	r3, [r1, #4]!
	bne	.L644
.L639:
	mov	r5, #1
	mov	r0, r4
	mov	r5, r5, asl ip
	mov	r1, r5
	bl	__aeabi_idiv
	mov	r1, r5
	mov	r8, r0
	mov	r0, r4
	bl	__aeabi_idivmod
	ldr	r3, [fp, #-232]
	cmp	r1, #0
	addne	r8, r8, #1
	cmp	r3, #0
	str	r8, [fp, #-240]
	ble	.L643
	mov	r8, #0
	ldr	r2, [fp, #-124]
	sub	r9, fp, #212
	mov	r10, r8
	mov	r3, r8
	mov	lr, r8
	mov	r0, r8
	mov	r4, r8
	add	r2, r2, #1
	str	r2, [fp, #-236]
.L645:
	cmp	r7, #0
	ble	.L655
	ldr	r0, [r9]
	ldr	r4, [fp, #-236]
	add	r0, r0, #1
	mla	r1, r0, r4, r3
	cmp	r6, r1
	blt	.L656
	mov	r5, #0
	mov	lr, r3
	mov	r2, r5
	mov	r3, r1
	sub	ip, fp, #124
	b	.L650
.L647:
	ldr	r4, [ip, #4]!
	mov	lr, r3
	add	r4, r4, #1
	mla	r1, r0, r4, r3
	cmp	r1, r6
	bgt	.L648
	mov	r3, r1
.L650:
	add	r2, r2, #1
	add	r5, r5, r4
	cmp	r2, r7
	bne	.L647
.L649:
	cmp	r3, r6
	bgt	.L654
	ldr	r2, [fp, #-232]
	add	r10, r10, #1
	add	r8, r8, r0
	add	r9, r9, #4
	cmp	r10, r2
	bne	.L645
.L654:
	mov	r3, lr
.L648:
	cmp	r4, #0
	beq	.L643
	rsb	r6, r3, r6
	mov	r1, r4
	mov	r0, r6
	bl	__aeabi_idiv
	ldr	r3, [fp, #-240]
	mov	r1, r4
	add	r4, r0, r8
	mov	r0, r6
	mul	r4, r4, r3
	bl	__aeabi_idivmod
	add	r1, r1, r5
	add	r0, r4, r1
.L659:
	sub	sp, fp, #40
	ldmfd	sp, {r4, r5, r6, r7, r8, r9, r10, fp, sp, pc}
.L655:
	mov	r5, #0
	b	.L649
.L656:
	ldr	r4, [fp, #-236]
	mov	r5, #0
	b	.L648
.L643:
	ldr	r1, .L661
	mov	r0, #1
	bl	dprint_vfmw
	mvn	r0, #0
	b	.L659
.L662:
	.align	2
.L661:
	.word	.LC71
	UNWIND(.fnend)
	.size	HEVC_CtbTsAddrToRsAddr, .-HEVC_CtbTsAddrToRsAddr
	.align	2
	.global	HEVC_CalcTileMap
	.type	HEVC_CalcTileMap, %function
HEVC_CalcTileMap:
	UNWIND(.fnstart)
	@ args = 0, pretend = 0, frame = 40
	@ frame_needed = 1, uses_anonymous_args = 0
	UNWIND(.movsp ip)
	mov	ip, sp
	stmfd	sp!, {r4, r5, r6, r7, r8, r9, r10, fp, ip, lr, pc}
	UNWIND(.pad #4)
	UNWIND(.save {r4, r5, r6, r7, r8, r9, r10, fp, ip, lr})
	UNWIND(.setfp fp, ip, #-4)
	sub	fp, ip, #4
	UNWIND(.pad #44)
	sub	sp, sp, #44
	ldr	r4, .L690
	mov	r10, r0
	ldr	r0, [r4]
	cmp	r0, #0
	beq	.L689
	ldr	r5, .L690+4
	add	r0, r0, #483328
	mov	r2, #147456
	mov	r1, #0
	add	r0, r0, #336
	ldr	r3, [r5, #48]
	blx	r3
	ldr	r0, [r4]
	ldr	r3, [r5, #48]
	mov	r2, #36864
	add	r0, r0, #630784
	mov	r1, #0
	add	r0, r0, #336
	blx	r3
	add	r0, r10, #9216
	ldr	r3, [r5, #48]
	mov	r2, #880
	mov	r1, #0
	add	r0, r0, #20
	blx	r3
	add	r3, r10, #8192
	str	r3, [fp, #-60]
	mov	r2, r3
	mov	r3, #0
	str	r3, [r2, #1040]
	ldr	r9, [r10, #2844]
	ldr	r1, [r10, #2840]
	ldr	r2, [r9, #72]
	ldr	r8, [r1, #188]
	cmp	r2, r3
	beq	.L666
	ldr	r2, [r4]
	str	r3, [fp, #-72]
	str	r3, [fp, #-76]
	str	r2, [fp, #-48]
.L667:
	ldr	r2, [r9, #68]
	cmp	r2, #0
	ldr	r2, [fp, #-72]
	add	r2, r2, #104
	streq	r2, [fp, #-80]
	beq	.L673
	mov	r1, r2
	str	r2, [fp, #-80]
	mov	r7, r1, asl #1
	ldr	r1, [fp, #-76]
	mov	r2, #0
	str	r2, [fp, #-52]
	str	r2, [fp, #-56]
	mul	r1, r8, r1
	ldr	r2, [fp, #-60]
	ldr	r2, [r2, #1040]
	str	r1, [fp, #-68]
.L672:
	add	r1, r2, #1152
	add	r0, r9, r7
	add	r1, r1, #2
	add	r1, r10, r1, lsl #3
	str	r3, [r1, #4]
	ldrsh	r1, [r0, #4]
	cmp	r1, #0
	ldreq	r1, [fp, #-52]
	addeq	r1, r1, #84
	streq	r1, [fp, #-64]
	beq	.L668
	ldr	r2, [fp, #-52]
	mov	r5, #0
	ldr	r1, [fp, #-56]
	add	r2, r2, #84
	ldr	r0, [fp, #-68]
	str	r2, [fp, #-64]
	add	r6, r1, r0
	mov	ip, r2, asl #1
.L669:
	add	r2, r9, ip
	ldrsh	r2, [r2, #4]
	cmp	r2, #0
	beq	.L671
	add	r2, r3, #120832
	ldr	r1, [fp, #-48]
	add	r2, r2, #83
	rsb	lr, r3, r6
	mov	r4, r3
	add	r2, r1, r2, lsl #2
.L670:
	add	r1, lr, r3
	str	r1, [r2, #4]!
	ldr	r9, [r10, #2844]
	add	r3, r3, #1
	rsb	r1, r4, r3
	add	r0, r9, ip
	ldrsh	r0, [r0, #4]
	cmp	r0, r1
	bhi	.L670
.L671:
	add	r2, r9, r7
	add	r5, r5, #1
	add	r6, r6, r8
	ldrsh	r2, [r2, #4]
	cmp	r2, r5
	bhi	.L669
	ldr	r2, [fp, #-60]
	ldr	r2, [r2, #1040]
.L668:
	add	r1, r10, r2, lsl #3
	ldr	r0, [fp, #-64]
	add	r1, r1, #9216
	sub	ip, r3, #1
	ldr	lr, [fp, #-52]
	add	r2, r2, #1
	str	ip, [r1, #24]
	add	r0, r9, r0, lsl #1
	ldr	r1, [fp, #-60]
	add	lr, lr, #1
	str	lr, [fp, #-52]
	str	r2, [r1, #1040]
	ldr	r1, [r9, #68]
	ldrsh	r0, [r0, #4]
	cmp	r1, lr
	ldr	r1, [fp, #-56]
	add	r1, r1, r0
	str	r1, [fp, #-56]
	bhi	.L672
.L673:
	ldr	r2, [fp, #-80]
	ldr	r0, [fp, #-72]
	ldr	r1, [r9, #72]
	add	r2, r9, r2, lsl #1
	add	r0, r0, #1
	cmp	r1, r0
	ldr	r1, [fp, #-76]
	ldrsh	r2, [r2, #4]
	str	r0, [fp, #-72]
	add	r2, r1, r2
	str	r2, [fp, #-76]
	bhi	.L667
.L666:
	mov	r0, #0
	sub	sp, fp, #40
	ldmfd	sp, {r4, r5, r6, r7, r8, r9, r10, fp, sp, pc}
.L689:
	ldr	r2, .L690+8
	ldr	r1, .L690+12
	bl	dprint_vfmw
	mvn	r0, #0
	sub	sp, fp, #40
	ldmfd	sp, {r4, r5, r6, r7, r8, r9, r10, fp, sp, pc}
.L691:
	.align	2
.L690:
	.word	.LANCHOR1
	.word	vfmw_Osal_Func_Ptr_S
	.word	.LANCHOR0+332
	.word	.LC72
	UNWIND(.fnend)
	.size	HEVC_CalcTileMap, .-HEVC_CalcTileMap
	.align	2
	.global	HEVC_WritePicMsg
	.type	HEVC_WritePicMsg, %function
HEVC_WritePicMsg:
	UNWIND(.fnstart)
	@ args = 0, pretend = 0, frame = 0
	@ frame_needed = 1, uses_anonymous_args = 0
	UNWIND(.movsp ip)
	mov	ip, sp
	stmfd	sp!, {r4, r5, r6, r7, r8, r9, fp, ip, lr, pc}
	UNWIND(.pad #4)
	UNWIND(.save {r4, r5, r6, r7, r8, r9, fp, ip, lr})
	UNWIND(.setfp fp, ip, #-4)
	sub	fp, ip, #4
	add	r4, r0, #4096
	mov	r5, r0
	ldr	r1, .L715
	mov	r0, #2
	ldr	r3, [r4, #44]
	add	r8, r5, #8192
	ldr	r2, [r4, #220]
	mov	r7, #280
	bl	dprint_vfmw
	ldr	r1, .L715+4
	mov	r0, #4
	bl	dprint_vfmw
	ldr	r2, [r4, #184]
	ldr	r1, [r4, #188]
	mov	ip, #0
	ldr	r0, [r4, #220]
	ldr	r3, [r4, #44]
	ldr	lr, [r4, #216]
	str	r2, [r4, #3736]
	str	r1, [r4, #3740]
	ldr	r2, [r4, #108]
	ldr	r1, [r4, #112]
	str	r0, [r4, #3728]
	str	r3, [r4, #3732]
	rsb	r1, r2, r1
	ldr	r3, [r4, #16]
	ldr	r6, [r4, #208]
	ldr	r0, [r4, #212]
	str	r1, [r4, #3744]
	str	lr, [r4, #3756]
	ldr	r1, [r4, #120]
	ldr	lr, [r4, #116]
	str	r6, [r4, #3748]
	str	r0, [r4, #3752]
	rsb	r2, r2, lr
	str	r3, [r4, #2472]
	add	r0, r5, #6656
	str	r2, [r4, #3760]
	rsb	r2, lr, r1
	str	r2, [r4, #3764]
	add	r0, r0, #8
	ldr	r2, [r5, #2860]
	str	ip, [r5, #204]
	mul	r7, r7, r3
	str	r2, [r8, #836]
	ldr	r3, [r5, #2840]
	mov	r2, #64
	ldr	r6, .L715+8
	add	r1, r5, r7
	ldrb	ip, [r3, #10]	@ zero_extendqisi2
	add	r1, r1, #13248
	add	r1, r1, #52
	strb	ip, [r4, #2446]
	ldrb	ip, [r3, #3]	@ zero_extendqisi2
	strb	ip, [r4, #2447]
	ldrb	ip, [r3, #7]	@ zero_extendqisi2
	strb	ip, [r4, #2448]
	ldrb	ip, [r3, #6]	@ zero_extendqisi2
	ldr	lr, [r4, #20]
	strb	ip, [r4, #2449]
	ldrb	ip, [r3, #5]	@ zero_extendqisi2
	strb	ip, [r4, #2450]
	ldr	ip, [r3, #60]
	str	ip, [r4, #2452]
	ldr	ip, [r3, #104]
	strb	ip, [r4, #2456]
	ldr	ip, [r3, #192]
	sub	ip, ip, #1
	str	ip, [r4, #2460]
	ldr	ip, [r3, #188]
	str	lr, [r4, #2468]
	sub	ip, ip, #1
	str	ip, [r4, #2464]
	ldr	ip, [r5, #2844]
	ldr	lr, [ip, #84]
	sub	lr, lr, #2
	str	lr, [r4, #2476]
	ldrb	lr, [ip, #11]	@ zero_extendqisi2
	strb	lr, [r4, #2480]
	ldrb	ip, [ip, #10]	@ zero_extendqisi2
	strb	ip, [r4, #2481]
	ldr	ip, [r3, #164]
	str	ip, [r4, #2484]
	ldr	ip, [r3, #168]
	str	ip, [r4, #2488]
	ldr	ip, [r3, #156]
	str	ip, [r4, #2492]
	ldr	ip, [r3, #160]
	str	ip, [r4, #2496]
	ldr	ip, [r3, #148]
	str	ip, [r4, #2500]
	ldr	ip, [r3, #152]
	str	ip, [r4, #2504]
	ldr	ip, [r3, #172]
	ldr	r6, [r6, #52]
	str	ip, [r4, #2508]
	ldr	ip, [r3, #124]
	str	ip, [r4, #2512]
	ldr	ip, [r3, #128]
	str	ip, [r4, #2516]
	ldr	ip, [r3, #100]
	str	ip, [r4, #2520]
	ldr	ip, [r3, #92]
	str	ip, [r4, #2524]
	ldr	ip, [r3, #112]
	str	ip, [r4, #2528]
	ldr	ip, [r3, #108]
	str	ip, [r4, #2532]
	ldr	ip, [r3, #96]
	str	ip, [r4, #2536]
	ldr	r3, [r3, #88]
	str	r3, [r4, #2540]
	blx	r6
	ldr	ip, [r5, #2840]
	add	r3, r5, #8832
	add	r2, r5, #8768
	add	r1, r5, #8256
	add	r3, r3, #36
	ldr	lr, [ip, #68]
	add	r2, r2, #20
	add	r1, r1, #20
	mov	r0, r5
	str	lr, [r4, #2632]
	ldr	ip, [ip, #64]
	str	ip, [r4, #2636]
	bl	HEVC_CalcTileInfo
	subs	r6, r0, #0
	bne	.L713
	ldr	r3, [r5, #2844]
	ldrb	r2, [r3, #16]	@ zero_extendqisi2
	strb	r2, [r4, #2660]
	ldrb	r2, [r3, #7]	@ zero_extendqisi2
	strb	r2, [r4, #2661]
	ldrb	r2, [r3, #3]	@ zero_extendqisi2
	strb	r2, [r4, #2662]
	ldrb	r2, [r3, #14]	@ zero_extendqisi2
	strb	r2, [r4, #2663]
	ldrb	r2, [r3, #15]	@ zero_extendqisi2
	strb	r2, [r4, #2664]
	ldrb	r2, [r3, #13]	@ zero_extendqisi2
	strb	r2, [r4, #2665]
	ldr	r2, [r5, #2840]
	ldr	r1, [r3, #56]
	ldr	r2, [r2, #128]
	rsb	r2, r1, r2
	str	r2, [r4, #2668]
	ldr	r2, [r3, #52]
	str	r2, [r4, #2672]
	ldrb	r2, [r3, #8]	@ zero_extendqisi2
	strb	r2, [r4, #2676]
	ldrb	r2, [r3, #12]	@ zero_extendqisi2
	strb	r2, [r4, #2677]
	ldrb	r2, [r3, #6]	@ zero_extendqisi2
	strb	r2, [r4, #2678]
	ldr	r2, [r3, #60]
	str	r2, [r4, #2680]
	ldr	r2, [r3, #64]
	str	r2, [r4, #2684]
	ldr	r2, [r3, #72]
	sub	r2, r2, #1
	str	r2, [r4, #2688]
	ldr	r2, [r3, #68]
	sub	r2, r2, #1
	str	r2, [r4, #2692]
	ldrb	r2, [r3, #10]	@ zero_extendqisi2
	strb	r2, [r4, #2481]
	ldrb	r3, [r3, #11]	@ zero_extendqisi2
	strb	r3, [r4, #2480]
	ldr	r3, [r5, #2368]
	str	r6, [r5, #2384]
	cmp	r3, #1
	beq	.L704
	ldr	r3, [r4, #68]
	ldr	r0, [r5, #276]
	ldr	r1, [r3, #28]
	bl	FSP_GetLogicFs
	subs	r9, r0, #0
	beq	.L714
	ldr	r2, [r9, #28]
	ldr	r3, [r9, #32]
	cmp	r2, #0
	beq	.L697
	cmp	r3, #0
	beq	.L697
	add	r3, r5, #8128
	add	r2, r5, #7872
	add	r1, r5, #8000
	add	r3, r3, #20
	add	r2, r2, #8
	add	r1, r1, #8
	ldr	r0, [r5, #276]
	bl	FSP_GetDecFsAddrTab
	ldr	r3, [r9, #28]
	add	r2, r5, #8000
	add	r1, r5, #8128
	add	r2, r2, #12
	add	r1, r1, #12
	ldr	r3, [r3, #4]
	str	r3, [r4, #3728]
	ldr	r0, [r5, #276]
	bl	FSP_GetPmvAddrTab
	ldr	r2, [r4, #44]
	add	r3, r5, r7
	add	r3, r3, #13120
	str	r2, [r4, #3732]
	ldr	r2, [r9, #12]
	str	r2, [r4, #4048]
	ldr	r2, [r9, #32]
	ldr	r2, [r2, #8]
	str	r2, [r8, #1032]
	ldr	r2, [r9, #32]
	ldr	r2, [r2, #60]
	str	r2, [r8, #1036]
	ldr	ip, [r3, #44]
	cmp	ip, #0
	str	ip, [r8, #828]
	beq	.L699
	add	r3, r7, #13184
	add	r2, r5, #8896
	add	r3, r3, #48
	add	r2, r2, #56
	add	r3, r5, r3
	mov	r0, r6
.L700:
	add	r0, r0, #1
	ldr	r1, [r3, #4]!
	cmp	r0, ip
	str	r1, [r2, #4]!
	bne	.L700
.L699:
	add	r7, r5, #6784
	mov	r6, #0
	add	r7, r7, #12
.L701:
	mov	r2, r7
	mov	r0, r6
	mov	r1, r5
	add	r6, r6, #1
	bl	HEVC_WriteQmatrix_8x8
	cmp	r6, #4
	add	r7, r7, #64
	bne	.L701
	add	r2, r5, #7040
	mov	r0, r6
	add	r2, r2, #12
	mov	r1, r5
	bl	HEVC_WriteQmatrix_8x8
	add	r2, r5, #7104
	add	r2, r2, #12
	mov	r1, r5
	mov	r0, #5
	add	r7, r5, #7296
	bl	HEVC_WriteQmatrix_8x8
	add	r2, r5, #7168
	add	r2, r2, #12
	mov	r1, r5
	mov	r0, #0
	add	r7, r7, #12
	bl	HEVC_WriteQmatrix_16x16
	add	r2, r5, #7232
	add	r2, r2, #12
	mov	r1, r5
	mov	r0, #1
	mov	r6, #2
	bl	HEVC_WriteQmatrix_16x16
.L702:
	mov	r2, r7
	mov	r0, r6
	mov	r1, r5
	add	r6, r6, #1
	bl	HEVC_WriteQmatrix_16x16
	cmp	r6, #6
	add	r7, r7, #64
	bne	.L702
	add	r2, r5, #7552
	mov	r1, r5
	add	r2, r2, #12
	mov	r0, #0
	bl	HEVC_WriteQmatrix_32x32
	add	r2, r5, #7616
	add	r2, r2, #12
	mov	r1, r5
	mov	r0, #1
	add	r7, r5, #7680
	bl	HEVC_WriteQmatrix_32x32
	add	r7, r7, #12
	mov	r6, #0
.L703:
	mov	r2, r7
	mov	r0, r6
	mov	r1, r5
	add	r6, r6, #1
	bl	HEVC_WriteQmatrix_4x4
	cmp	r6, #6
	add	r7, r7, #16
	bne	.L703
	ldr	r1, [r5, #2320]
	mov	r0, #0
	ldr	r3, [r5, #2324]
	ldr	r2, [r5, #2312]
	ldr	ip, [r5, #2316]
	mov	r1, r1, asl #16
	orr	r3, r1, r3, asl #24
	ldr	lr, [r4, #44]
	orr	r3, r3, r2
	orr	r3, r3, ip, asl #8
	str	r3, [r4, #3692]
	ldr	r1, [r5, #2336]
	ldr	r3, [r5, #2340]
	ldr	r2, [r5, #2328]
	ldr	ip, [r5, #2332]
	mov	r1, r1, asl #16
	orr	r3, r1, r3, asl #24
	str	lr, [r4, #3724]
	orr	r3, r3, r2
	orr	r3, r3, ip, asl #8
	str	r3, [r4, #3696]
	ldmfd	sp, {r4, r5, r6, r7, r8, r9, fp, sp, pc}
.L704:
	mov	r0, r6
	ldmfd	sp, {r4, r5, r6, r7, r8, r9, fp, sp, pc}
.L713:
	ldr	r2, .L715+12
	mov	r0, #1
	ldr	r1, .L715+16
	bl	dprint_vfmw
	mvn	r0, #0
	ldmfd	sp, {r4, r5, r6, r7, r8, r9, fp, sp, pc}
.L697:
	ldr	r1, .L715+20
	mov	r0, #1
	bl	dprint_vfmw
	mvn	r0, #0
	ldmfd	sp, {r4, r5, r6, r7, r8, r9, fp, sp, pc}
.L714:
	ldr	r3, [r4, #68]
	mov	r0, #1
	ldr	r1, .L715+24
	ldr	r2, [r3, #28]
	bl	dprint_vfmw
	mvn	r0, #0
	ldmfd	sp, {r4, r5, r6, r7, r8, r9, fp, sp, pc}
.L716:
	.align	2
.L715:
	.word	.LC73
	.word	.LC74
	.word	vfmw_Osal_Func_Ptr_S
	.word	.LANCHOR0+352
	.word	.LC75
	.word	.LC77
	.word	.LC76
	UNWIND(.fnend)
	.size	HEVC_WritePicMsg, .-HEVC_WritePicMsg
	.align	2
	.global	HEVC_CheckListX
	.type	HEVC_CheckListX, %function
HEVC_CheckListX:
	UNWIND(.fnstart)
	@ args = 0, pretend = 0, frame = 0
	@ frame_needed = 1, uses_anonymous_args = 0
	UNWIND(.movsp ip)
	mov	ip, sp
	stmfd	sp!, {fp, ip, lr, pc}
	UNWIND(.pad #4)
	UNWIND(.save {fp, ip, lr})
	UNWIND(.setfp fp, ip, #-4)
	sub	fp, ip, #4
	add	r3, r0, #4096
	ldrb	r3, [r3, #713]	@ zero_extendqisi2
	cmp	r3, #0
	addeq	r3, r0, #4800
	addeq	r3, r3, #8
	beq	.L719
	ldrsb	r3, [r0, #14]
	cmp	r3, #0
	addne	r3, r0, #11776
	addne	r3, r3, #12
	beq	.L752
.L719:
	ldr	ip, [r3, #68]
	ldr	lr, [r3, #72]
	cmp	ip, #16
	bhi	.L753
	cmp	lr, #16
	bhi	.L723
	cmp	ip, #0
	beq	.L724
	ldr	r3, [r0, #2868]
	cmp	r3, #0
	beq	.L737
	ldr	r3, [r3, #20]
	cmp	r3, #0
	addne	r1, r0, #2864
	movne	r2, #0
	addne	r1, r1, #4
	bne	.L729
	b	.L754
.L730:
	ldr	r3, [r1, #4]!
	cmp	r3, #0
	beq	.L725
	ldr	r3, [r3, #20]
	cmp	r3, #0
	beq	.L726
.L729:
	add	r2, r2, #1
	cmp	r2, ip
	bne	.L730
.L724:
	cmp	lr, #0
	beq	.L749
	ldr	r3, [r0, #2936]
	cmp	r3, #0
	beq	.L740
	ldr	r3, [r3, #20]
	cmp	r3, #0
	addne	r0, r0, #2928
	movne	r2, #0
	addne	r0, r0, #8
	bne	.L735
	b	.L755
.L736:
	ldr	r3, [r0, #4]!
	cmp	r3, #0
	beq	.L731
	ldr	r3, [r3, #20]
	cmp	r3, #0
	beq	.L732
.L735:
	add	r2, r2, #1
	cmp	r2, lr
	bne	.L736
.L749:
	mov	r0, #0
	ldmfd	sp, {fp, sp, pc}
.L737:
	mov	r2, r3
.L725:
	ldr	r1, .L756
	mov	r0, #0
	bl	dprint_vfmw
	mvn	r0, #0
	ldmfd	sp, {fp, sp, pc}
.L754:
	mov	r2, r3
.L726:
	ldr	r1, .L756+4
	mov	r0, #0
	bl	dprint_vfmw
	mvn	r0, #0
	ldmfd	sp, {fp, sp, pc}
.L740:
	mov	r2, r3
.L731:
	ldr	r1, .L756+8
	mov	r0, #0
	bl	dprint_vfmw
	mvn	r0, #0
	ldmfd	sp, {fp, sp, pc}
.L755:
	mov	r2, r3
.L732:
	ldr	r1, .L756+12
	mov	r0, #0
	bl	dprint_vfmw
	mvn	r0, #0
	ldmfd	sp, {fp, sp, pc}
.L752:
	mov	r0, r3
	ldr	r2, .L756+16
	ldr	r1, .L756+20
	bl	dprint_vfmw
	mvn	r0, #0
	ldmfd	sp, {fp, sp, pc}
.L723:
	mov	r2, lr
	mov	r3, #17
	ldr	r1, .L756+24
	mov	r0, #0
	bl	dprint_vfmw
	mvn	r0, #0
	ldmfd	sp, {fp, sp, pc}
.L753:
	mov	r2, ip
	mov	r3, #17
	ldr	r1, .L756+28
	mov	r0, #0
	bl	dprint_vfmw
	mvn	r0, #0
	ldmfd	sp, {fp, sp, pc}
.L757:
	.align	2
.L756:
	.word	.LC81
	.word	.LC82
	.word	.LC83
	.word	.LC84
	.word	.LANCHOR0+372
	.word	.LC78
	.word	.LC80
	.word	.LC79
	UNWIND(.fnend)
	.size	HEVC_CheckListX, .-HEVC_CheckListX
	.align	2
	.global	HEVC_WriteSliceMsg
	.type	HEVC_WriteSliceMsg, %function
HEVC_WriteSliceMsg:
	UNWIND(.fnstart)
	@ args = 0, pretend = 0, frame = 128
	@ frame_needed = 1, uses_anonymous_args = 0
	UNWIND(.movsp ip)
	mov	ip, sp
	stmfd	sp!, {r4, r5, r6, r7, r8, r9, r10, fp, ip, lr, pc}
	UNWIND(.pad #4)
	UNWIND(.save {r4, r5, r6, r7, r8, r9, r10, fp, ip, lr})
	UNWIND(.setfp fp, ip, #-4)
	sub	fp, ip, #4
	UNWIND(.pad #132)
	sub	sp, sp, #132
	add	r7, r0, #4096
	mov	r4, r0
	ldr	r9, [r7, #16]
	bl	HEVC_CheckListX
	subs	r3, r0, #0
	str	r3, [fp, #-112]
	bne	.L828
	ldr	r0, [r4, #204]
	ldr	r3, [r4, #152]
	cmp	r0, r3
	bcs	.L901
	ldr	r5, [r4, #2860]
	movw	r6, #1508
	ldr	r10, [fp, #-112]
	mov	r2, r6
	ldr	r3, .L909
	mla	r5, r6, r0, r5
	mov	r1, r10
	ldr	r3, [r3, #48]
	mov	r0, r5
	blx	r3
	ldr	r3, .L909
	mov	r2, #64
	mov	r1, r10
	sub	r0, fp, #108
	ldr	r3, [r3, #48]
	blx	r3
	ldr	r3, [r4, #204]
	ldr	r2, [r4, #152]
	add	r3, r3, #1
	str	r3, [r4, #204]
	cmp	r3, r2
	ldrcc	r2, [r4, #2860]
	ldrcs	r3, [fp, #-112]
	mlacc	r3, r6, r3, r2
	str	r3, [r5, #1504]
	ldr	r1, [r7, #748]
	ldr	r2, [r4, #2828]
	ldr	r0, [r4, #176]
	ldr	r3, [r4, #260]
	add	r0, r0, #1
	str	r1, [r4, #208]
	str	r0, [r4, #176]
	add	r3, r3, #1
	str	r3, [r4, #260]
	ldrb	r1, [r2]	@ zero_extendqisi2
	ldr	r3, [r2, #8]
	str	r0, [fp, #-120]
	cmp	r1, #1
	cmpls	r1, r3
	bcs	.L763
	add	r0, r5, r1, lsl #2
.L764:
	mov	r3, r1, asl #5
	sub	r3, r3, r1, asl #2
	add	r1, r1, #1
	add	r2, r2, r3
	ldr	r2, [r2, #56]
	str	r2, [r0, #8]
	ldr	r2, [r4, #2828]
	add	r2, r2, r3
	ldr	r2, [r2, #52]
	str	r2, [r0], #4
	ldr	r2, [r4, #2828]
	add	r3, r2, r3
	ldr	r3, [r3, #60]
	str	r3, [r0, #12]
	ldr	r2, [r4, #2828]
	ldr	r3, [r2, #8]
	cmp	r3, r1
	movhi	ip, #1
	movls	ip, #0
	cmp	r1, #1
	movhi	ip, #0
	cmp	ip, #0
	bne	.L764
.L763:
	cmp	r3, #1
	addls	r3, r5, r3, lsl #2
	addls	r1, r5, #8
	movls	r2, #0
	bhi	.L769
.L768:
	str	r2, [r3, #8]
	str	r2, [r3], #4
	cmp	r3, r1
	str	r2, [r3, #12]
	bne	.L768
.L769:
	ldrb	r3, [r7, #713]	@ zero_extendqisi2
	cmp	r3, #0
	beq	.L902
.L767:
	add	r6, r4, #8192
	ldr	r3, [r6, #3664]
	cmp	r3, #0
	beq	.L770
	add	ip, r4, #2864
	add	r1, r5, #112
	mov	r0, #0
	mov	lr, #1
	b	.L774
.L904:
	ldr	r3, [r10, #16]
	cmp	r3, #0
	beq	.L772
	ldr	r3, [r7, #744]
	cmp	r3, #0
	beq	.L772
	ldr	r2, [r10, #20]
	sub	r8, fp, #44
	add	r0, r0, #1
	ldr	r3, [r2, #20]
	ldr	r2, [r2, #36]
	add	r3, r3, #2000
	add	r3, r3, #2
	add	r2, r8, r2, lsl #2
	add	r3, r4, r3, lsl #2
	ldr	r3, [r3, #4]
	str	r3, [r2, #-64]
	ldr	r3, [r10, #20]
	ldr	r3, [r3, #36]
	str	r3, [r1, #256]
	ldrb	r3, [r4, #2]	@ zero_extendqisi2
	cmp	r3, #0
	strne	lr, [r1]
	ldr	r2, [r6, #3664]
	cmp	r2, r0
	bls	.L903
.L774:
	ldr	r3, [ip, #4]!
	ldr	r3, [r3, #4]
	str	r3, [r1, #4]!
	ldrb	r3, [r4, #1]	@ zero_extendqisi2
	ldr	r10, [ip]
	cmp	r3, #0
	bne	.L904
.L772:
	ldr	r2, [r10, #20]
	sub	r8, fp, #44
	add	r0, r0, #1
	ldr	r3, [r2, #20]
	ldr	r2, [r2, #24]
	add	r3, r3, #2000
	add	r3, r3, #2
	add	r2, r8, r2, lsl #2
	add	r3, r4, r3, lsl #2
	ldr	r3, [r3, #4]
	str	r3, [r2, #-64]
	ldr	r3, [r10, #20]
	ldr	r3, [r3, #24]
	str	r3, [r1, #256]
	ldr	r2, [r6, #3664]
	cmp	r2, r0
	bhi	.L774
.L903:
	ldr	r0, [r6, #3668]
	cmp	r0, #0
	beq	.L775
.L827:
	add	r1, r4, #2928
	add	ip, r5, #176
	add	r1, r1, #4
	mov	lr, #0
	mov	r10, #1
	b	.L779
.L906:
	ldr	r3, [r0, #16]
	cmp	r3, #0
	beq	.L777
	ldr	r3, [r7, #744]
	cmp	r3, #0
	beq	.L777
	ldr	r2, [r0, #20]
	sub	r8, fp, #44
	add	lr, lr, #1
	ldr	r3, [r2, #20]
	ldr	r2, [r2, #36]
	add	r3, r3, #2000
	add	r3, r3, #2
	add	r2, r8, r2, lsl #2
	add	r3, r4, r3, lsl #2
	ldr	r3, [r3, #4]
	str	r3, [r2, #-64]
	ldr	r3, [r0, #20]
	ldr	r3, [r3, #36]
	str	r3, [ip, #256]
	ldrb	r3, [r4, #2]	@ zero_extendqisi2
	cmp	r3, #0
	strne	r10, [ip]
	ldr	r0, [r6, #3668]
	cmp	r0, lr
	bls	.L905
.L779:
	ldr	r3, [r1, #4]!
	ldr	r3, [r3, #4]
	str	r3, [ip, #4]!
	ldrb	r3, [r4, #1]	@ zero_extendqisi2
	ldr	r0, [r1]
	cmp	r3, #0
	bne	.L906
.L777:
	ldr	r2, [r0, #20]
	sub	r8, fp, #44
	add	lr, lr, #1
	ldr	r3, [r2, #20]
	ldr	r2, [r2, #24]
	add	r3, r3, #2000
	add	r3, r3, #2
	add	r2, r8, r2, lsl #2
	add	r3, r4, r3, lsl #2
	ldr	r3, [r3, #4]
	str	r3, [r2, #-64]
	ldr	r3, [r0, #20]
	ldr	r3, [r3, #24]
	str	r3, [ip, #256]
	ldr	r0, [r6, #3668]
	cmp	r0, lr
	bhi	.L779
.L905:
	ldr	r2, [r6, #3664]
.L775:
	cmp	r2, #0
	beq	.L780
	mov	lr, #70
	ldr	r3, [r5, #372]
	mul	lr, lr, r9
	ldr	r10, [r7, #20]
	add	r3, lr, r3
	add	r3, r3, #3312
	add	r3, r3, #12
	add	r3, r4, r3, lsl #2
	ldr	r3, [r3, #4]
	cmp	r10, r3
	blt	.L834
	add	ip, r5, #372
	mov	r1, #0
	b	.L782
.L783:
	ldr	r3, [ip, #4]!
	add	r3, lr, r3
	add	r3, r3, #3312
	add	r3, r3, #12
	add	r3, r4, r3, lsl #2
	ldr	r3, [r3, #4]
	cmp	r3, r10
	bgt	.L834
.L782:
	add	r1, r1, #1
	cmp	r1, r2
	bne	.L783
.L780:
	ldr	r2, [r6, #3616]
	cmp	r2, #0
	bne	.L899
	cmp	r0, #0
	beq	.L899
	mov	r1, #70
	ldr	r3, [r5, #436]
	mul	r9, r1, r9
	ldr	ip, [r7, #20]
	add	r3, r9, r3
	add	r3, r3, #3312
	add	r3, r3, #12
	add	r3, r4, r3, lsl #2
	ldr	r3, [r3, #4]
	cmp	ip, r3
	blt	.L781
	add	r1, r5, #436
	b	.L784
.L785:
	ldr	r3, [r1, #4]!
	add	r3, r9, r3
	add	r3, r3, #3312
	add	r3, r3, #12
	add	r3, r4, r3, lsl #2
	ldr	r3, [r3, #4]
	cmp	r3, ip
	bgt	.L834
.L784:
	add	r2, r2, #1
	cmp	r2, r0
	bne	.L785
.L899:
	mov	r2, #1
.L781:
	strb	r2, [r5, #24]
	ldrb	r3, [r7, #713]	@ zero_extendqisi2
	strb	r3, [r5, #25]
	ldr	r2, [r6, #3612]
	str	r2, [r5, #28]
	ldrb	r3, [r6, #3603]	@ zero_extendqisi2
	strb	r3, [r5, #32]
	ldr	r3, [r6, #3636]
	str	r3, [r5, #36]
	ldr	r3, [r4, #2368]
	cmp	r3, #0
	bne	.L786
	ldr	r9, [r7, #68]
	ldr	r1, [r4, #204]
	ldr	r0, [r9, #316]
	sub	r3, r1, #1
	mla	r0, r0, r3, r2
	bl	__aeabi_uidiv
	str	r0, [r9, #68]
.L786:
	ldr	r3, [r6, #3616]
	cmp	r3, #0
	bne	.L787
	ldrb	r3, [r6, #3604]	@ zero_extendqisi2
	cmp	r3, #0
	bne	.L788
	ldr	r3, [r6, #3640]
	add	r3, r5, r3, lsl #2
	ldr	r9, [r3, #436]
.L789:
	str	r9, [r5, #40]
	ldr	r3, [r6, #3640]
	str	r3, [r5, #48]
	ldrb	r3, [r6, #3604]	@ zero_extendqisi2
	strb	r3, [r5, #52]
	ldr	r3, [r6, #3644]
	str	r3, [r5, #44]
	ldr	r3, [r6, #3672]
	cmp	r3, #0
	subne	r3, r3, #1
	str	r3, [r5, #60]
	ldr	r3, [r6, #3676]
	cmp	r3, #0
	subne	r3, r3, #1
	str	r3, [r5, #56]
	ldrb	r3, [r6, #3600]	@ zero_extendqisi2
	strb	r3, [r5, #64]
	ldrb	r3, [r6, #3602]	@ zero_extendqisi2
	strb	r3, [r5, #65]
	ldr	r3, [r6, #3664]
	str	r3, [r5, #68]
	ldr	r3, [r6, #3668]
	str	r3, [r5, #72]
	ldr	r3, [r6, #3616]
	str	r3, [r5, #76]
	ldr	r3, [r7, #752]
	str	r3, [r5, #80]
	ldr	r3, [r4, #2840]
	ldr	r0, [r7, #752]
	ldr	r1, [r3, #188]
	bl	__aeabi_uidivmod
	str	r1, [r5, #84]
	ldr	r3, [r4, #2840]
	ldr	r0, [r7, #752]
	ldr	r1, [r3, #188]
	bl	__aeabi_uidiv
	str	r0, [r5, #88]
	mov	r0, r4
	ldr	r1, [r7, #752]
	bl	HEVC_CtbRsAddrToTsAddr
	str	r0, [r5, #92]
	ldr	r3, [r6, #3648]
	str	r3, [r5, #96]
	ldr	r3, [r6, #3652]
	str	r3, [r5, #100]
	ldr	r3, [r6, #3660]
	str	r3, [r5, #104]
	ldr	r3, [r6, #3656]
	str	r3, [r5, #108]
	ldrb	r3, [r6, #3599]	@ zero_extendqisi2
	strb	r3, [r5, #112]
	ldrb	r3, [r6, #3598]	@ zero_extendqisi2
	strb	r3, [r5, #113]
	ldrb	r3, [r6, #3605]	@ zero_extendqisi2
	strb	r3, [r5, #114]
	ldrb	r3, [r6, #3606]	@ zero_extendqisi2
	strb	r3, [r5, #115]
	ldr	r3, [r4, #2844]
	ldrb	r2, [r3, #10]	@ zero_extendqisi2
	cmp	r2, #0
	beq	.L794
	ldr	r2, [r6, #3616]
	cmp	r2, #1
	beq	.L795
.L794:
	ldrb	r3, [r3, #11]	@ zero_extendqisi2
	cmp	r3, #1
	beq	.L907
.L797:
	ldrb	r3, [r6, #3600]	@ zero_extendqisi2
	cmp	r3, #0
	subne	r3, fp, #44
	addne	r9, r3, r9, lsl #2
	ldreq	r3, [r7, #3916]
	ldrne	r3, [r9, #-64]
	str	r3, [r5, #564]
	ldrb	r3, [r4, #2]	@ zero_extendqisi2
	cmp	r3, #0
	beq	.L801
	ldr	r3, [r7, #744]
	cmp	r3, #0
	beq	.L801
	ldr	r3, [r4, #2860]
	ldr	lr, [r5, #68]
	cmp	r5, r3
	str	r3, [fp, #-116]
	moveq	r3, #0
	streq	r3, [r5, #1360]
	streqb	r3, [r5, #1356]
	cmp	lr, #0
	beq	.L805
	ldr	r9, [fp, #-116]
	mov	r1, #0
	add	r0, r4, #2864
	mov	r3, r1
.L807:
	ldr	r2, [r0, #4]!
	add	r3, r3, #1
	ldr	r2, [r2, #20]
	ldr	ip, [r2, #32]
	cmp	ip, #0
	addeq	r1, r2, #80
	cmp	r3, lr
	bne	.L807
	cmp	r1, #0
	str	r9, [fp, #-116]
	beq	.L805
.L808:
	ldr	r3, [r5, #40]
	ldr	r2, [r7, #28]
	add	r3, r4, r3
	add	r3, r3, #13696
	add	r3, r3, #8
	str	r2, [fp, #-140]
	ldr	r2, [r7, #32]
	ldrsb	r3, [r3, #4]
	cmp	r3, #0
	str	r2, [fp, #-144]
	moveq	r3, #1
	movne	r3, #0
	cmp	r1, #0
	strb	r3, [r5, #1357]
	beq	.L813
	ldr	r3, [r1, #168]
	ldr	ip, [fp, #-116]
	ldr	r0, [r1, #68]
	ldr	r2, [r1, #72]
	str	r3, [ip, #1468]
	ldr	r3, [r1, #172]
	mov	r8, r2
	str	r2, [fp, #-136]
	ldr	r9, [fp, #-140]
	str	r3, [ip, #1472]
	ldr	r3, [r1, #112]
	str	r0, [fp, #-124]
	str	r3, [ip, #1476]
	ldr	r2, [r1, #20]
	ldr	r3, [r1, #24]
	rsb	r3, r2, r3
	str	r3, [ip, #1480]
	ldr	r3, [r1, #140]
	str	r3, [ip, #1484]
	ldr	r3, [r1, #144]
	str	r3, [ip, #1488]
	ldr	r2, [r1, #20]
	ldr	r3, [r1, #44]
	rsb	r3, r2, r3
	str	r3, [ip, #1492]
	ldr	r2, [r1, #44]
	ldr	r3, [r1, #48]
	rsb	r3, r2, r3
	str	r3, [ip, #1496]
	ldr	r10, [r4, #2844]
	ldr	r3, [r10, #2984]
	ldr	r2, [r10, #3496]
	ldr	r1, [r10, #1960]
	sub	r3, r0, r3, asl #1
	ldr	r0, [r10, #2472]
	sub	lr, r3, r2, asl #1
	ldr	ip, [r10, #3240]
	sub	r1, r9, r1, asl #1
	str	lr, [fp, #-148]
	mov	r3, lr, asr #31
	sub	r1, r1, r0, asl #1
	str	r1, [fp, #-160]
	mov	r3, r3, asl #16
	ldr	lr, [r10, #3752]
	mov	r0, r1
	mov	r2, r3
	ldr	r3, [fp, #-148]
	orr	r2, r2, r3, lsr #16
	mov	r3, r3, asl #16
	str	r3, [fp, #-132]
	sub	r3, r8, ip, asl #1
	sub	ip, r3, lr, asl #1
	ldr	lr, [r10, #2216]
	ldr	r3, [fp, #-144]
	str	r2, [fp, #-128]
	mov	r2, r1
	sub	r3, r3, lr, asl #1
	ldr	lr, [r10, #2728]
	ldrd	r8, [fp, #-132]
	mov	r1, r1, asr #31
	movs	r1, r1, lsr #1
	mov	r0, r0, rrx
	str	ip, [fp, #-152]
	adds	r8, r8, r0
	sub	lr, r3, lr, asl #1
	ldr	r3, .L909
	adc	r9, r9, r1
	mov	r0, r8
	str	lr, [fp, #-132]
	mov	r1, r9
	mov	r8, ip
	ldr	r3, [r3, #244]
	blx	r3
	mov	r1, r8, asr #31
	ldr	lr, [fp, #-132]
	mov	ip, r8, asl #16
	mov	r1, r1, asl #16
	ldr	r3, .L909
	mov	r9, r1
	mov	r1, lr, asr #31
	ldr	r3, [r3, #244]
	mov	r2, lr
	str	r0, [fp, #-156]
	mov	r0, lr
	strd	r0, [fp, #-172]
	orr	r1, r9, r8, lsr #16
	mov	r9, r1
	ldrd	r0, [fp, #-172]
	movs	r1, r1, lsr #1
	mov	r0, r0, rrx
	adds	r8, ip, r0
	adc	r9, r9, r1
	mov	r0, r8
	mov	r1, r9
	blx	r3
	ldr	r9, [fp, #-140]
	mov	r8, r0
	ldr	r0, [fp, #-124]
	cmp	r9, r0
	bgt	.L814
	ldr	r3, [fp, #-156]
	cmp	r3, #65536
	movgt	r3, #0
	movle	r3, #1
	mov	r9, r3
.L815:
	ldr	r3, [fp, #-144]
	ldr	r2, [fp, #-136]
	cmp	r3, r2
	bgt	.L816
	cmp	r8, #65536
	movgt	r2, #0
	movle	r2, #1
.L817:
	ldr	r1, [fp, #-116]
	cmp	r9, #0
	ldr	r3, [fp, #-124]
	str	r3, [r1, #1364]
	ldr	r3, [fp, #-136]
	str	r3, [r1, #1368]
	mov	r3, #1
	strb	r3, [r1, #1356]
	movne	r3, r9
	orrne	r3, r2, r3
	movne	r2, r1
	strne	r3, [r2, #1360]
	ldr	r2, [fp, #-116]
	ldr	r3, [fp, #-156]
	str	r8, [r2, #1384]
	str	r3, [r2, #1380]
	str	r3, [r2, #1388]
	str	r8, [r2, #1392]
	ldrb	r3, [r10, #1890]	@ zero_extendqisi2
	cmp	r3, #0
	beq	.L819
	ldr	r2, [fp, #-152]
	add	r0, r10, #4096
	ldr	r3, [r10, #4008]
	ldr	lr, [fp, #-116]
	mov	r2, r2, asr #1
	ldr	ip, [fp, #-156]
	str	r3, [lr, #1428]
	mov	r9, r2
	ldr	r2, [r0, #168]
	mul	r1, r3, ip
	str	r2, [lr, #1432]
	ldr	r3, [r0, #424]
	mul	r2, r2, r8
	sub	r3, r3, #8
	str	r3, [lr, #1436]
	add	r1, r1, #8
	mul	r3, r3, ip
	add	r2, r2, #8
	mov	r1, r1, asr #4
	ldr	r0, [r0, #680]
	mov	r2, r2, asr #4
	rsb	r1, r1, #0
	add	r3, r3, #8
	rsb	r2, r2, #0
	sub	r0, r0, #8
	str	r0, [lr, #1440]
	mov	r3, r3, asr #4
	rsb	r3, r3, #0
.L820:
	mul	ip, r0, r8
	ldr	r8, [fp, #-116]
	ldr	lr, [fp, #-148]
	str	r1, [r8, #1444]
	add	ip, ip, #8
	ldr	r1, [fp, #-160]
	mov	r0, lr, asr #1
	mov	ip, ip, asr #4
	str	r3, [r8, #1452]
	rsb	ip, ip, #0
	str	r2, [r8, #1448]
	add	r0, r0, r1, lsl #8
	mov	r1, lr
	mov	lr, r8
	movw	r2, #4095
	str	ip, [lr, #1456]
	mov	r8, #61440
	str	r2, [fp, #-140]
	bl	__aeabi_idiv
	ldr	r2, [fp, #-140]
	movt	r8, 65535
	ldr	r1, [fp, #-152]
	cmp	r0, r2
	movge	ip, r2
	ldr	r2, [fp, #-132]
	movlt	ip, r0
	cmp	ip, r8
	add	r0, r9, r2, lsl #8
	ldr	r9, [fp, #-116]
	movlt	ip, r8
	str	ip, [r9, #1460]
	bl	__aeabi_idiv
	ldr	r2, [fp, #-140]
	mov	r1, #1
	cmp	r0, r2
	movge	r0, r2
	cmp	r0, r8
	movlt	r0, r8
	str	r0, [r9, #1464]
	ldr	r2, [r10, #1960]
	ldr	r0, [fp, #-136]
	mov	r2, r2, asl r1
	str	r2, [r9, #1396]
	ldr	r3, [r10, #2216]
	mov	r2, r2, asr r1
	str	r2, [r9, #1404]
	mov	r3, r3, asl r1
	str	r3, [r9, #1400]
	mov	r3, r3, asr r1
	str	r3, [r9, #1408]
	ldr	r2, [r10, #2984]
	mov	r2, r2, asl r1
	str	r2, [r9, #1412]
	ldr	r3, [r10, #3240]
	mov	r2, r2, asr r1
	str	r2, [r9, #1420]
	mov	r3, r3, asl r1
	str	r3, [r9, #1416]
	mov	r3, r3, asr r1
	str	r3, [r9, #1424]
	ldr	r3, [r4, #2840]
	ldr	r2, [r3, #128]
	ldr	r3, [fp, #-124]
	mov	r2, r1, asl r2
	sub	r1, r2, #1
	rsb	r2, r2, #0
	add	r3, r3, r1
	add	r1, r0, r1
	and	r3, r3, r2
	and	r2, r2, r1
	mov	r1, r9
	str	r3, [r9, #1372]
	str	r2, [r9, #1376]
.L813:
	add	ip, r4, #12288
	mov	r2, #0
	str	r2, [r5, #1500]
	ldr	r3, [ip, #1156]
	cmp	r3, r2
	beq	.L803
	add	r1, r4, #13696
	mov	r3, r2
	add	r1, r1, #11
.L822:
	ldrsb	r0, [r1, #1]!
	orr	r2, r2, r0, asl r3
	str	r2, [r5, #1500]
	ldr	r0, [ip, #1156]
	add	r3, r3, #1
	cmp	r3, r0
	bcc	.L822
	b	.L803
.L834:
	mov	r2, #0
	b	.L781
.L787:
	cmp	r3, #1
	movne	r9, #0
	bne	.L789
.L788:
	ldr	r3, [r6, #3640]
	add	r3, r5, r3, lsl #2
	ldr	r9, [r3, #372]
	b	.L789
.L801:
	mov	r3, #0
	str	r3, [r5, #1360]
	strb	r3, [r5, #1356]
	mov	r3, #1
	strb	r3, [r5, #1357]
.L803:
	ldr	r3, [r4, #2368]
	cmp	r3, #0
	ldreq	r1, [r4, #2828]
	ldreq	r2, [r4, #2848]
	ldreq	r0, [fp, #-120]
	streq	r1, [r2, r0, asl #2]
	streq	r3, [r4, #2828]
	ldrb	r3, [r7, #2665]	@ zero_extendqisi2
	cmp	r3, #0
	beq	.L859
	ldr	r3, [r4, #260]
	cmp	r3, #1
	beq	.L908
	add	r2, r4, r3, lsl #3
	sub	r3, r3, #1
	ldr	r0, [r5, #92]
	add	r2, r2, #10048
	add	r1, r3, #1264
	sub	r0, r0, #1
	str	r0, [r2, #56]
	add	r2, r4, r1, lsl #3
	ldr	r1, [r5, #92]
	str	r1, [r2, #4]
.L826:
	ldr	r1, [r7, #2464]
	add	r3, r4, r3, lsl #3
	ldr	r2, [r7, #2460]
	add	r3, r3, #10112
	mla	r2, r1, r2, r2
	add	r2, r2, r1
	str	r2, [r3, #8]
	ldr	r1, [r5, #92]
	sub	r1, r1, #1
	cmp	r1, #36864
	bcs	.L859
	mov	r0, r4
	bl	HEVC_CtbTsAddrToRsAddr
	str	r0, [r5, #568]
.L859:
	ldr	r0, [fp, #-112]
	sub	sp, fp, #40
	ldmfd	sp, {r4, r5, r6, r7, r8, r9, r10, fp, sp, pc}
.L902:
	ldr	r3, .L909
	add	r1, r4, #4800
	add	r0, r4, #11776
	add	r1, r1, #8
	add	r0, r0, #12
	mov	r2, #1376
	ldr	r3, [r3, #52]
	blx	r3
	mov	r3, #1
	strb	r3, [r4, #14]
	b	.L767
.L907:
	ldr	r3, [r6, #3616]
	cmp	r3, #0
	bne	.L797
.L795:
	ldr	ip, [r6, #3752]
	add	r1, r4, #12032
	ldr	r3, .L909
	add	r1, r1, #48
	ldr	r10, .L909
	mov	r2, #64
	str	ip, [r5, #580]
	add	r0, r5, #588
	ldr	ip, [r6, #3884]
	ldr	r3, [r3, #52]
	str	ip, [r5, #584]
	blx	r3
	add	r1, r4, #11904
	add	r1, r1, #44
	ldr	r3, [r10, #52]
	mov	r2, #64
	add	r0, r5, #716
	blx	r3
	add	r1, r4, #12096
	add	r1, r1, #48
	ldr	r3, [r10, #52]
	mov	r2, #128
	add	r0, r5, #844
	blx	r3
	add	r1, r4, #12224
	add	r0, r5, #1088
	ldr	r3, [r10, #52]
	add	r1, r1, #48
	add	r0, r0, #12
	mov	r2, #128
	blx	r3
	ldr	r3, [r6, #3616]
	cmp	r3, #0
	bne	.L797
	add	r1, r4, #12352
	ldr	r3, [r10, #52]
	add	r1, r1, #48
	mov	r2, #64
	add	r0, r5, #652
	blx	r3
	add	r1, r4, #11968
	ldr	r3, [r10, #52]
	add	r1, r1, #44
	mov	r2, #64
	add	r0, r5, #780
	blx	r3
	add	r1, r4, #12416
	ldr	r3, [r10, #52]
	add	r1, r1, #48
	mov	r2, #128
	add	r0, r5, #972
	blx	r3
	add	r1, r4, #12544
	add	r0, r5, #1216
	ldr	r3, [r10, #52]
	add	r1, r1, #48
	mov	r2, #128
	add	r0, r0, #12
	blx	r3
	b	.L797
.L814:
	ldr	r3, [fp, #-124]
	ldr	r0, [fp, #-140]
	mov	r2, r3, asl #1
	add	r3, r2, r3
	add	r1, r3, r3, lsr #31
	cmp	r0, r1, asr #1
	movle	r3, #1
	movle	r9, r3
	ble	.L815
	cmp	r0, r2
	movle	r3, #2
	movle	r9, r3
	ble	.L815
	cmp	r0, r3
	mov	r2, r0
	movle	r3, #3
	movle	r9, r3
	ble	.L815
	ldr	r3, [fp, #-124]
	mov	r0, #1
	ldr	r1, .L909+4
	bl	dprint_vfmw
	mov	r3, #3
	mov	r9, r3
	b	.L815
.L908:
	ldr	r2, [r5, #92]
	mov	r3, #0
	str	r2, [r6, #1924]
	b	.L826
.L819:
	ldr	r1, [fp, #-152]
	ldr	ip, [fp, #-116]
	ldr	r0, [fp, #-132]
	mov	r2, r1, asr #1
	str	r3, [fp, #-140]
	str	r3, [ip, #1428]
	str	r3, [ip, #1432]
	add	r0, r2, r0, lsl #2
	str	r3, [ip, #1436]
	mov	r9, r2
	bl	__aeabi_idiv
	ldr	r3, [fp, #-140]
	ldr	ip, [fp, #-116]
	mov	r2, r3
	mov	r1, r3
	sub	r0, r0, #4
	str	r0, [ip, #1440]
	b	.L820
.L816:
	ldr	r3, [fp, #-136]
	ldr	r0, [fp, #-144]
	mov	r2, r3, asl #1
	add	r3, r2, r3
	add	r1, r3, r3, lsr #31
	cmp	r0, r1, asr #1
	movle	r2, #1
	ble	.L817
	cmp	r0, r2
	movle	r2, #2
	ble	.L817
	cmp	r0, r3
	mov	r2, r0
	movle	r2, #3
	ble	.L817
	ldr	r3, [fp, #-136]
	mov	r0, #1
	ldr	r1, .L909+8
	bl	dprint_vfmw
	mov	r2, #3
	b	.L817
.L770:
	ldr	r3, [r6, #3668]
	cmp	r3, #0
	bne	.L827
	b	.L899
.L805:
	ldr	lr, [r5, #72]
	cmp	lr, #0
	beq	.L836
	add	r0, r4, #2928
	ldr	r9, [fp, #-116]
	mov	r1, #0
	add	r0, r0, #4
	mov	r3, r1
.L810:
	ldr	r2, [r0, #4]!
	add	r3, r3, #1
	ldr	r2, [r2, #20]
	ldr	ip, [r2, #32]
	cmp	ip, #0
	addeq	r1, r2, #80
	cmp	r3, lr
	bne	.L810
	str	r9, [fp, #-116]
	b	.L808
.L836:
	mov	r1, lr
	b	.L808
.L828:
	mvn	r3, #0
	str	r3, [fp, #-112]
	b	.L859
.L901:
	mov	r2, r0
	ldr	r1, .L909+12
	mov	r0, #1
	bl	dprint_vfmw
	mvn	r3, #0
	str	r3, [fp, #-112]
	b	.L859
.L910:
	.align	2
.L909:
	.word	vfmw_Osal_Func_Ptr_S
	.word	.LC86
	.word	.LC87
	.word	.LC85
	UNWIND(.fnend)
	.size	HEVC_WriteSliceMsg, .-HEVC_WriteSliceMsg
	.align	2
	.global	HEVC_GetVirAddr
	.type	HEVC_GetVirAddr, %function
HEVC_GetVirAddr:
	UNWIND(.fnstart)
	@ args = 0, pretend = 0, frame = 0
	@ frame_needed = 1, uses_anonymous_args = 0
	UNWIND(.movsp ip)
	mov	ip, sp
	stmfd	sp!, {fp, ip, lr, pc}
	UNWIND(.pad #4)
	UNWIND(.save {fp, ip, lr})
	UNWIND(.setfp fp, ip, #-4)
	sub	fp, ip, #4
	add	r0, r1, r0, lsl #2
	ldmfd	sp, {fp, sp, pc}
	UNWIND(.fnend)
	.size	HEVC_GetVirAddr, .-HEVC_GetVirAddr
	.align	2
	.global	HEVC_GetPhyAddr
	.type	HEVC_GetPhyAddr, %function
HEVC_GetPhyAddr:
	UNWIND(.fnstart)
	@ args = 0, pretend = 0, frame = 0
	@ frame_needed = 1, uses_anonymous_args = 0
	UNWIND(.movsp ip)
	mov	ip, sp
	stmfd	sp!, {fp, ip, lr, pc}
	UNWIND(.pad #4)
	UNWIND(.save {fp, ip, lr})
	UNWIND(.setfp fp, ip, #-4)
	sub	fp, ip, #4
	add	r0, r1, r0, lsl #2
	ldmfd	sp, {fp, sp, pc}
	UNWIND(.fnend)
	.size	HEVC_GetPhyAddr, .-HEVC_GetPhyAddr
	.align	2
	.global	HEVC_CfgVDMReg
	.type	HEVC_CfgVDMReg, %function
HEVC_CfgVDMReg:
	UNWIND(.fnstart)
	@ args = 0, pretend = 0, frame = 0
	@ frame_needed = 1, uses_anonymous_args = 0
	UNWIND(.movsp ip)
	mov	ip, sp
	stmfd	sp!, {fp, ip, lr, pc}
	UNWIND(.pad #4)
	UNWIND(.save {fp, ip, lr})
	UNWIND(.setfp fp, ip, #-4)
	sub	fp, ip, #4
	add	r2, r0, #4096
	mov	r1, r0
	add	ip, r0, #8192
	mov	r0, #0
	ldr	r3, [r2, #36]
	ldr	lr, [r2, #40]
	clz	r3, r3
	str	lr, [r2, #3772]
	mov	r3, r3, lsr #5
	str	r3, [r2, #3780]
	ldr	r3, [r1, #204]
	str	r3, [ip, #832]
	ldmfd	sp, {fp, sp, pc}
	UNWIND(.fnend)
	.size	HEVC_CfgVDMReg, .-HEVC_CfgVDMReg
	.align	2
	.global	HEVC_IsRefForCurrPic
	.type	HEVC_IsRefForCurrPic, %function
HEVC_IsRefForCurrPic:
	UNWIND(.fnstart)
	@ args = 0, pretend = 0, frame = 8
	@ frame_needed = 1, uses_anonymous_args = 0
	UNWIND(.movsp ip)
	mov	ip, sp
	stmfd	sp!, {r4, r5, r6, r7, r8, r9, r10, fp, ip, lr, pc}
	UNWIND(.pad #4)
	UNWIND(.save {r4, r5, r6, r7, r8, r9, r10, fp, ip, lr})
	UNWIND(.setfp fp, ip, #-4)
	sub	fp, ip, #4
	UNWIND(.pad #28)
	sub	sp, sp, #28
	ldrb	r3, [r0, #1]	@ zero_extendqisi2
	mov	r4, r0
	cmp	r3, #1
	beq	.L943
.L915:
	add	r5, r4, #4096
	ldr	r2, [r4, #164]
	ldr	r3, [r5, #748]
	cmp	r3, #0
	blt	.L932
	cmp	r3, r2
	bge	.L932
	ldr	r2, [r4, #2820]
	movw	r1, #5036
	mla	r3, r1, r3, r2
	ldr	r2, [r4, #160]
	ldr	r3, [r3, #32]
	cmp	r3, #0
	blt	.L919
	cmp	r3, r2
	bge	.L919
	ldr	r2, [r4, #2816]
	movw	r0, #12668
	ldr	ip, [r5, #1644]
	mov	r1, #1
	ldr	r10, [r5, #1648]
	mla	r2, r0, r3, r2
	ldr	r6, [r5, #1652]
	add	lr, r10, ip
	cmp	lr, r6
	mov	r3, lr
	ldr	r8, [r2, #116]
	mov	r8, r1, asl r8
	bcs	.L933
	cmp	lr, #15
	bgt	.L922
	add	r2, lr, #1456
	ldr	r7, [r5, #20]
	add	r2, r2, #3
	sub	r8, r8, #1
	and	r9, r8, r7
	str	ip, [fp, #-48]
	add	r2, r4, r2, lsl #2
	b	.L924
.L945:
	cmp	r3, r6
	bcs	.L944
	cmp	r3, #16
	beq	.L922
.L924:
	ldr	r1, [r2, #4]!
	mov	r0, r7
	add	r3, r3, #1
	ldr	ip, [r2, #-944]
	cmp	ip, #0
	andeq	r1, r1, r8
	moveq	r0, r9
	cmp	r0, r1
	bne	.L945
	ldr	ip, [fp, #-48]
	mov	r6, #1
.L921:
	cmp	lr, #0
	beq	.L936
	ldr	r0, [r5, #724]
	ldr	r3, [r5, #1676]
	ldr	r2, [r5, #20]
	add	r3, r0, r3
	cmp	r2, r3
	beq	.L927
	add	r4, r4, #5760
	mov	r1, #0
	add	r4, r4, #12
	b	.L928
.L929:
	ldr	r3, [r4, #4]!
	add	r3, r0, r3
	cmp	r3, r2
	beq	.L927
.L928:
	add	r1, r1, #1
	cmp	r1, lr
	beq	.L936
	cmp	r1, #17
	bne	.L929
	mov	r3, r1
	str	r1, [sp]
	str	r10, [sp, #8]
	movw	r2, #9007
	str	ip, [sp, #4]
	mov	r0, #0
	ldr	r1, .L946
	bl	dprint_vfmw
	mov	r0, r6
	b	.L941
.L932:
	str	r2, [sp]
	mov	r0, #0
	movw	r2, #8946
	ldr	r1, .L946+4
	bl	dprint_vfmw
	mov	r0, #0
.L941:
	sub	sp, fp, #40
	ldmfd	sp, {r4, r5, r6, r7, r8, r9, r10, fp, sp, pc}
.L943:
	ldr	r3, [r0, #2856]
	ldr	r3, [r3, #24]
	bics	r3, r3, #4
	beq	.L915
.L927:
	mov	r0, #1
	sub	sp, fp, #40
	ldmfd	sp, {r4, r5, r6, r7, r8, r9, r10, fp, sp, pc}
.L919:
	str	r2, [sp]
	mov	r0, #0
	movw	r2, #8958
	ldr	r1, .L946+8
	bl	dprint_vfmw
	mov	r0, #0
	sub	sp, fp, #40
	ldmfd	sp, {r4, r5, r6, r7, r8, r9, r10, fp, sp, pc}
.L922:
	str	r6, [sp, #4]
	mov	r1, #16
	mov	r0, #0
	str	r1, [sp]
	movw	r2, #8978
	ldr	r1, .L946+12
	mov	r6, r0
	bl	dprint_vfmw
	ldr	ip, [r5, #1644]
	ldr	r10, [r5, #1648]
	add	lr, r10, ip
	b	.L921
.L944:
	ldr	ip, [fp, #-48]
	mov	r6, #0
	b	.L921
.L936:
	mov	r0, r6
	b	.L941
.L933:
	mov	r6, #0
	b	.L921
.L947:
	.align	2
.L946:
	.word	.LC91
	.word	.LC88
	.word	.LC89
	.word	.LC90
	UNWIND(.fnend)
	.size	HEVC_IsRefForCurrPic, .-HEVC_IsRefForCurrPic
	.align	2
	.global	HEVC_IsPicVPSRefresh
	.type	HEVC_IsPicVPSRefresh, %function
HEVC_IsPicVPSRefresh:
	UNWIND(.fnstart)
	@ args = 0, pretend = 0, frame = 0
	@ frame_needed = 1, uses_anonymous_args = 0
	UNWIND(.movsp ip)
	mov	ip, sp
	stmfd	sp!, {fp, ip, lr, pc}
	UNWIND(.pad #4)
	UNWIND(.save {fp, ip, lr})
	UNWIND(.setfp fp, ip, #-4)
	sub	fp, ip, #4
	ldr	r2, [r0, #2836]
	ldr	r3, [r1, #4]
	ldr	r2, [r2, #4]
	cmp	r2, r3
	beq	.L951
	mov	r0, #1
	ldmfd	sp, {fp, sp, pc}
.L951:
	ldrb	r0, [r1, #2]	@ zero_extendqisi2
	adds	r0, r0, #0
	movne	r0, #1
	ldmfd	sp, {fp, sp, pc}
	UNWIND(.fnend)
	.size	HEVC_IsPicVPSRefresh, .-HEVC_IsPicVPSRefresh
	.align	2
	.global	HEVC_UpdatePicVPS
	.type	HEVC_UpdatePicVPS, %function
HEVC_UpdatePicVPS:
	UNWIND(.fnstart)
	@ args = 0, pretend = 0, frame = 0
	@ frame_needed = 1, uses_anonymous_args = 0
	UNWIND(.movsp ip)
	mov	ip, sp
	stmfd	sp!, {r4, r5, r6, r7, fp, ip, lr, pc}
	UNWIND(.pad #4)
	UNWIND(.save {r4, r5, r6, r7, fp, ip, lr})
	UNWIND(.setfp fp, ip, #-4)
	sub	fp, ip, #4
	mov	r2, #0
	strb	r2, [r1, #2]
	ldr	r3, [r0, #156]
	movw	r4, #24912
	ldr	ip, .L953
	mov	r5, r0
	ldr	r0, [r0, #2812]
	mov	r2, r4
	mul	r3, r4, r3
	ldr	r6, [ip, #52]
	sub	r3, r3, #24832
	sub	r3, r3, #80
	add	r0, r0, r3
	blx	r6
	ldr	r2, [r5, #156]
	ldr	r3, [r5, #2812]
	mul	r4, r4, r2
	sub	r4, r4, #24832
	sub	r4, r4, #80
	add	r4, r3, r4
	str	r4, [r5, #2836]
	ldmfd	sp, {r4, r5, r6, r7, fp, sp, pc}
.L954:
	.align	2
.L953:
	.word	vfmw_Osal_Func_Ptr_S
	UNWIND(.fnend)
	.size	HEVC_UpdatePicVPS, .-HEVC_UpdatePicVPS
	.align	2
	.global	HEVC_IsPicSPSRefresh
	.type	HEVC_IsPicSPSRefresh, %function
HEVC_IsPicSPSRefresh:
	UNWIND(.fnstart)
	@ args = 0, pretend = 0, frame = 0
	@ frame_needed = 1, uses_anonymous_args = 0
	UNWIND(.movsp ip)
	mov	ip, sp
	stmfd	sp!, {fp, ip, lr, pc}
	UNWIND(.pad #4)
	UNWIND(.save {fp, ip, lr})
	UNWIND(.setfp fp, ip, #-4)
	sub	fp, ip, #4
	ldr	r2, [r0, #2840]
	ldr	r3, [r1, #56]
	ldr	r2, [r2, #56]
	cmp	r2, r3
	beq	.L958
	mov	r0, #1
	ldmfd	sp, {fp, sp, pc}
.L958:
	ldrb	r0, [r1]	@ zero_extendqisi2
	adds	r0, r0, #0
	movne	r0, #1
	ldmfd	sp, {fp, sp, pc}
	UNWIND(.fnend)
	.size	HEVC_IsPicSPSRefresh, .-HEVC_IsPicSPSRefresh
	.align	2
	.global	HEVC_UpdatePicSPS
	.type	HEVC_UpdatePicSPS, %function
HEVC_UpdatePicSPS:
	UNWIND(.fnstart)
	@ args = 0, pretend = 0, frame = 0
	@ frame_needed = 1, uses_anonymous_args = 0
	UNWIND(.movsp ip)
	mov	ip, sp
	stmfd	sp!, {r4, r5, r6, r7, fp, ip, lr, pc}
	UNWIND(.pad #4)
	UNWIND(.save {r4, r5, r6, r7, fp, ip, lr})
	UNWIND(.setfp fp, ip, #-4)
	sub	fp, ip, #4
	mov	r2, #0
	strb	r2, [r1]
	ldr	r3, [r0, #160]
	movw	r5, #12668
	ldr	ip, .L960
	mov	r4, r0
	ldr	r0, [r0, #2816]
	mov	r2, r5
	mul	r3, r5, r3
	ldr	r6, [ip, #52]
	sub	r3, r3, #12608
	sub	r3, r3, #60
	add	r0, r0, r3
	blx	r6
	ldr	r3, [r4, #160]
	ldr	r1, [r4, #2816]
	mul	r3, r5, r3
	sub	r3, r3, #12608
	sub	r3, r3, #60
	add	r3, r1, r3
	str	r3, [r4, #2840]
	ldr	r2, [r3, #56]
	str	r2, [r4, #288]
	ldr	r2, [r3, #64]
	str	r2, [r4, #292]
	ldr	r2, [r3, #68]
	str	r2, [r4, #296]
	ldr	r2, [r3, #128]
	str	r2, [r4, #300]
	ldr	r2, [r3, #88]
	str	r2, [r4, #304]
	ldr	r3, [r3, #96]
	str	r3, [r4, #308]
	ldmfd	sp, {r4, r5, r6, r7, fp, sp, pc}
.L961:
	.align	2
.L960:
	.word	vfmw_Osal_Func_Ptr_S
	UNWIND(.fnend)
	.size	HEVC_UpdatePicSPS, .-HEVC_UpdatePicSPS
	.align	2
	.global	HEVC_IsPicPPSRefresh
	.type	HEVC_IsPicPPSRefresh, %function
HEVC_IsPicPPSRefresh:
	UNWIND(.fnstart)
	@ args = 0, pretend = 0, frame = 0
	@ frame_needed = 1, uses_anonymous_args = 0
	UNWIND(.movsp ip)
	mov	ip, sp
	stmfd	sp!, {fp, ip, lr, pc}
	UNWIND(.pad #4)
	UNWIND(.save {fp, ip, lr})
	UNWIND(.setfp fp, ip, #-4)
	sub	fp, ip, #4
	ldr	r2, [r0, #2844]
	ldr	r3, [r1, #28]
	ldr	r2, [r2, #28]
	cmp	r2, r3
	beq	.L965
	mov	r0, #1
	ldmfd	sp, {fp, sp, pc}
.L965:
	ldrb	r0, [r1, #1]	@ zero_extendqisi2
	adds	r0, r0, #0
	movne	r0, #1
	ldmfd	sp, {fp, sp, pc}
	UNWIND(.fnend)
	.size	HEVC_IsPicPPSRefresh, .-HEVC_IsPicPPSRefresh
	.align	2
	.global	HEVC_UpdatePicPPS
	.type	HEVC_UpdatePicPPS, %function
HEVC_UpdatePicPPS:
	UNWIND(.fnstart)
	@ args = 0, pretend = 0, frame = 8
	@ frame_needed = 1, uses_anonymous_args = 0
	UNWIND(.movsp ip)
	mov	ip, sp
	stmfd	sp!, {r4, r5, r6, r7, r8, r9, r10, fp, ip, lr, pc}
	UNWIND(.pad #4)
	UNWIND(.save {r4, r5, r6, r7, r8, r9, r10, fp, ip, lr})
	UNWIND(.setfp fp, ip, #-4)
	sub	fp, ip, #4
	UNWIND(.pad #12)
	sub	sp, sp, #12
	ldrb	r3, [r2, #13]	@ zero_extendqisi2
	mov	r4, #0
	mov	r5, r2
	cmp	r3, r4
	mov	r6, r0
	mov	r7, r1
	strb	r4, [r2, #1]
	beq	.L967
	ldrb	r3, [r2, #15]	@ zero_extendqisi2
	cmp	r3, r4
	bne	.L985
	ldr	lr, [r2, #68]
	ldr	r3, [r1, #188]
	cmp	lr, #1
	add	r0, r2, lr, lsl #1
	strh	r3, [r0, #170]	@ movhi
	ble	.L979
	add	lr, lr, #42
	add	r2, r2, #86
	add	ip, r5, #170
	add	lr, r5, lr, lsl #1
.L978:
	ldrh	r1, [r2, #2]!
	cmp	r2, lr
	strh	r1, [ip, #2]!	@ movhi
	ldrh	r3, [r0, #170]
	rsb	r3, r1, r3
	strh	r3, [r0, #170]	@ movhi
	bne	.L978
.L979:
	ldr	lr, [r5, #72]
	ldr	r3, [r7, #192]
	cmp	lr, #1
	add	r0, r5, lr, lsl #1
	strh	r3, [r0, #210]	@ movhi
	ble	.L974
	add	lr, lr, #62
	add	r2, r5, #126
	add	ip, r5, #210
	add	lr, r5, lr, lsl #1
.L980:
	ldrh	r1, [r2, #2]!
	cmp	r2, lr
	strh	r1, [ip, #2]!	@ movhi
	ldrh	r3, [r0, #210]
	rsb	r3, r1, r3
	strh	r3, [r0, #210]	@ movhi
	bne	.L980
	b	.L974
.L967:
	ldr	r3, [r1, #188]
	strh	r3, [r2, #172]	@ movhi
	ldr	r3, [r1, #192]
	strh	r3, [r2, #212]	@ movhi
.L974:
	ldr	r3, [r6, #164]
	movw	r4, #5036
	ldr	ip, .L986
	mov	r1, r5
	ldr	r0, [r6, #2820]
	mov	r2, r4
	mul	r3, r4, r3
	ldr	r5, [ip, #52]
	sub	r3, r3, #4992
	sub	r3, r3, #44
	add	r0, r0, r3
	blx	r5
	ldr	r2, [r6, #164]
	ldr	r3, [r6, #2820]
	mul	r4, r4, r2
	sub	r4, r4, #4992
	sub	r4, r4, #44
	add	r4, r3, r4
	str	r4, [r6, #2844]
	sub	sp, fp, #40
	ldmfd	sp, {r4, r5, r6, r7, r8, r9, r10, fp, sp, pc}
.L985:
	ldr	r9, [r2, #68]
	cmp	r9, r4
	addgt	r3, r2, #170
	ble	.L973
.L972:
	ldr	r10, [r7, #188]
	add	r4, r4, #1
	mov	r1, r9
	str	r3, [fp, #-48]
	mul	r0, r10, r4
	bl	__aeabi_uidiv
	mov	r1, r9
	mov	r8, r0
	sub	r0, r4, #1
	mul	r0, r0, r10
	bl	__aeabi_uidiv
	ldr	r3, [fp, #-48]
	cmp	r4, r9
	rsb	r0, r0, r8
	strh	r0, [r3, #2]!	@ movhi
	bne	.L972
.L973:
	ldr	r9, [r5, #72]
	cmp	r9, #0
	addgt	r3, r5, #210
	movgt	r4, #0
	ble	.L974
.L975:
	ldr	r10, [r7, #192]
	add	r4, r4, #1
	mov	r1, r9
	str	r3, [fp, #-48]
	mul	r0, r10, r4
	bl	__aeabi_uidiv
	mov	r1, r9
	mov	r8, r0
	sub	r0, r4, #1
	mul	r0, r0, r10
	bl	__aeabi_uidiv
	ldr	r3, [fp, #-48]
	cmp	r4, r9
	rsb	r0, r0, r8
	strh	r0, [r3, #2]!	@ movhi
	bne	.L975
	b	.L974
.L987:
	.align	2
.L986:
	.word	vfmw_Osal_Func_Ptr_S
	UNWIND(.fnend)
	.size	HEVC_UpdatePicPPS, .-HEVC_UpdatePicPPS
	.align	2
	.global	HEVC_InitPicInfo
	.type	HEVC_InitPicInfo, %function
HEVC_InitPicInfo:
	UNWIND(.fnstart)
	@ args = 0, pretend = 0, frame = 0
	@ frame_needed = 1, uses_anonymous_args = 0
	UNWIND(.movsp ip)
	mov	ip, sp
	stmfd	sp!, {r4, r5, r6, r7, fp, ip, lr, pc}
	UNWIND(.pad #4)
	UNWIND(.save {r4, r5, r6, r7, fp, ip, lr})
	UNWIND(.setfp fp, ip, #-4)
	sub	fp, ip, #4
	add	r4, r0, #4096
	mov	r5, r0
	mvn	r3, #0
	mov	r0, #1
	ldr	r2, [r4, #740]
	mov	r1, #0
	ldr	lr, [r4, #724]
	str	r3, [r4, #40]
	strb	r0, [r4, #9]
	str	r2, [r4, #12]
	str	lr, [r4, #20]
	ldr	ip, [r5, #2840]
	ldr	r3, .L1002
	ldr	r2, [ip, #64]
	str	r2, [r4, #28]
	ldr	r2, [ip, #68]
	str	r1, [r4, #36]
	str	r2, [r4, #32]
	ldr	r2, [r5, #276]
	ldr	r3, [r3, r2, asl #2]
	ldrsb	r2, [r3, #44]
	cmp	r2, r0
	beq	.L1001
.L989:
	ldr	r3, [r5, #2368]
	cmp	r3, #0
	bne	.L992
	ldr	ip, [r5, #2856]
	movw	r7, #4752
	add	lr, r5, #4736
	movw	r6, #4768
	mvn	r0, #0
	mvn	r1, #0
	ldrd	r2, [ip, #64]
	strd	r2, [r5, r7]
	ldrd	r2, [ip, #80]
	strd	r2, [lr, #24]
	ldrd	r2, [ip, #96]
	strd	r2, [r5, r6]
	ldr	r3, [ip, #112]
	str	r3, [r4, #72]
	ldr	r3, [ip, #116]
	str	r3, [r4, #76]
	ldr	r3, [ip, #120]
	str	r3, [r4, #80]
	ldr	r3, [ip, #136]
	str	r3, [r4, #84]
	ldrb	r3, [ip, #56]	@ zero_extendqisi2
	strb	r3, [r4, #704]
	strd	r0, [ip, #64]
	ldr	ip, [r5, #2840]
.L992:
	ldr	r1, [ip, #64]
	mov	r6, #0
	ldr	r2, [r4, #744]
	add	r0, r5, #4160
	ldrb	r3, [r4, #136]	@ zero_extendqisi2
	add	r0, r0, #8
	str	r1, [r4, #140]
	ldr	r1, [ip, #68]
	str	r2, [r4, #256]
	str	r2, [r4, #16]
	str	r1, [r4, #144]
	str	r6, [r4, #124]
	ldr	r2, [ip, #60]
	ldr	r1, [ip, #2084]
	subs	r2, r2, #1
	bfi	r3, r1, #5, #3
	movne	r2, #1
	bfi	r3, r2, #2, #3
	strb	r3, [r4, #136]
	ldr	r1, [ip, #2068]
	and	r1, r1, #7
	bl	SetAspectRatio
	ldr	r3, [r5, #2368]
	cmp	r3, #1
	ldmeqfd	sp, {r4, r5, r6, r7, fp, sp, pc}
	ldr	r3, [r4, #68]
	ldr	r2, [r4, #724]
	str	r2, [r3, #8]
	ldr	r3, [r4, #68]
	ldr	r2, [r4, #136]
	str	r2, [r3, #144]
	ldr	r3, [r4, #68]
	ldr	r2, [r4, #124]
	str	r2, [r3, #132]
	ldr	r3, [r4, #68]
	ldr	r2, [r4, #176]
	str	r2, [r3, #184]
	ldr	r3, [r4, #68]
	ldr	r2, [r4, #172]
	str	r2, [r3, #180]
	ldr	r3, [r4, #68]
	ldr	r2, [r4, #140]
	str	r2, [r3, #148]
	ldr	r3, [r4, #68]
	ldr	r2, [r4, #144]
	str	r2, [r3, #152]
	ldr	r3, [r4, #68]
	ldr	r0, [r5, #276]
	ldr	r1, [r3, #28]
	bl	FSP_GetDispPhyFs
	cmp	r0, #0
	beq	.L994
	ldr	r3, [r4, #124]
	mov	r1, r6
	ldr	r2, [r0, #4]
	subs	r3, r3, r6
	ldr	r0, [r5, #276]
	movne	r3, #1
	bl	FSP_SetStoreType
.L994:
	ldr	r3, [r5, #2840]
	mov	r6, #0
	ldr	ip, [r4, #68]
	ldr	r2, [r3, #72]
	str	r2, [r4, #292]
	ldr	r5, [r3, #76]
	str	r5, [r4, #296]
	ldr	r1, [r3, #80]
	str	r1, [r4, #300]
	ldr	lr, [r3, #84]
	str	lr, [r4, #304]
	ldr	r0, [r3, #64]
	rsb	r2, r2, r0
	rsb	r2, r5, r2
	str	r2, [r4, #148]
	ldr	r0, [r3, #68]
	rsb	r1, r1, r0
	rsb	r1, lr, r1
	str	r1, [r4, #152]
	ldr	r1, [r3, #60]
	str	r1, [r4, #236]
	ldr	r1, [r3, #88]
	str	r1, [r4, #240]
	ldr	r3, [r3, #96]
	str	r3, [r4, #244]
	ldr	r3, [ip, #164]
	str	r3, [r4, #156]
	ldr	r3, [ip, #168]
	str	r3, [r4, #160]
	str	r2, [ip, #156]
	ldr	r2, [r4, #152]
	ldr	r3, [r4, #68]
	str	r2, [r3, #160]
	ldr	r3, [r4, #68]
	ldr	r2, [r4, #156]
	str	r2, [r3, #164]
	ldr	r3, [r4, #68]
	ldr	r2, [r4, #160]
	str	r2, [r3, #168]
	ldr	r3, [r4, #68]
	ldr	r2, [r4, #240]
	str	r2, [r3, #248]
	ldr	r3, [r4, #68]
	ldr	r2, [r4, #244]
	str	r2, [r3, #252]
	str	r6, [r4, #24]
	ldmfd	sp, {r4, r5, r6, r7, fp, sp, pc}
.L1001:
	ldr	r2, [r3, #160]
	cmp	r2, r0
	bne	.L989
	ldr	r3, [r3, #164]
	cmp	r3, #2
	bne	.L989
	add	r3, r5, #8192
	ldrb	r3, [r3, #3536]	@ zero_extendqisi2
	cmp	r3, r0
	bne	.L989
	add	r3, r5, #11776
	movw	r2, #11760
	ldrd	r0, [r5, r2]
	ldrd	r2, [r3]
	cmp	r1, r3
	cmpeq	r0, r2
	bls	.L990
	subs	r6, r0, r2
	sbc	r7, r1, r3
	cmp	r7, #0
	cmpeq	r6, #16
	bls	.L990
.L991:
	ldr	r0, [r5, #284]
	movw	r1, #11760
	rsb	lr, r0, lr
	adds	r2, r2, lr
	adc	r3, r3, lr, asr #31
	strd	r2, [r5, r1]
	b	.L989
.L990:
	cmp	r1, r3
	cmpeq	r0, r2
	bcs	.L989
	subs	r0, r2, r0
	sbc	r1, r3, r1
	cmp	r1, #0
	cmpeq	r0, #16
	bls	.L989
	b	.L991
.L1003:
	.align	2
.L1002:
	.word	s_pstVfmwChan
	UNWIND(.fnend)
	.size	HEVC_InitPicInfo, .-HEVC_InitPicInfo
	.align	2
	.global	HEVC_RepairList
	.type	HEVC_RepairList, %function
HEVC_RepairList:
	UNWIND(.fnstart)
	@ args = 0, pretend = 0, frame = 16
	@ frame_needed = 1, uses_anonymous_args = 0
	UNWIND(.movsp ip)
	mov	ip, sp
	stmfd	sp!, {r4, r5, r6, r7, r8, r9, r10, fp, ip, lr, pc}
	UNWIND(.pad #4)
	UNWIND(.save {r4, r5, r6, r7, r8, r9, r10, fp, ip, lr})
	UNWIND(.setfp fp, ip, #-4)
	sub	fp, ip, #4
	UNWIND(.pad #28)
	sub	sp, sp, #28
	add	r3, r0, #4096
	str	r3, [fp, #-56]
	mov	r2, r0
	ldr	r3, [r3, #732]
	cmp	r3, #1
	beq	.L1021
	cmp	r3, #2
	beq	.L1022
	cmp	r3, #0
	moveq	r3, #2
	streq	r3, [fp, #-48]
	beq	.L1006
	ldr	r2, .L1031
	mov	r0, #1
	ldr	r1, .L1031+4
	bl	dprint_vfmw
	mvn	r0, #0
	sub	sp, fp, #40
	ldmfd	sp, {r4, r5, r6, r7, r8, r9, r10, fp, sp, pc}
.L1021:
	str	r3, [fp, #-48]
.L1006:
	add	r10, r2, #4864
	add	r8, r2, #2864
	add	r10, r10, #8
	add	r8, r8, #4
	mov	r9, #0
	mov	r7, r2
.L1019:
	ldr	r2, [r10, #4]!
	cmp	r2, #0
	beq	.L1009
	ldr	r1, [r8]
	cmp	r1, #0
	bne	.L1023
	mov	r0, r8
	mov	r3, r1
	b	.L1011
.L1013:
	ldr	r5, [r0, #4]!
	cmp	r5, #0
	bne	.L1029
.L1011:
	add	r3, r3, #1
	cmp	r3, r2
	bne	.L1013
	mov	r3, #255
	str	r3, [fp, #-52]
.L1012:
	ldr	r3, [r7, #2856]
	ldr	r3, [r3, #24]
	cmp	r3, #2
	bne	.L1014
	ldr	r3, [fp, #-56]
	ldr	r5, [r3, #68]
	add	r5, r5, #56
.L1010:
	mov	r3, r1
	mov	r6, r8
	mov	r4, #0
	b	.L1020
.L1016:
	ldr	r3, [r6, #4]!
.L1020:
	cmp	r3, #0
	beq	.L1030
.L1015:
	add	r4, r4, #1
	cmp	r2, r4
	bhi	.L1016
.L1017:
	ldr	r3, [fp, #-48]
	add	r9, r9, #1
	add	r8, r8, #68
	cmp	r9, r3
	bcc	.L1019
.L1022:
	mov	r0, #0
	sub	sp, fp, #40
	ldmfd	sp, {r4, r5, r6, r7, r8, r9, r10, fp, sp, pc}
.L1009:
	ldr	r3, [r7, #2856]
	ldr	r3, [r3, #24]
	cmp	r3, #2
	bne	.L1017
	mov	r3, #1
	str	r3, [r10]
	ldr	r3, [fp, #-56]
	ldr	r3, [r3, #68]
	add	r3, r3, #56
	str	r3, [r8]
	b	.L1017
.L1030:
	ldrsb	r2, [fp, #-52]
	mov	r3, r9
	str	r4, [sp]
	mov	r0, #1
	ldr	r1, .L1031+8
	str	r2, [sp, #4]
	ldr	r2, .L1031
	bl	dprint_vfmw
	str	r5, [r6]
	ldr	r2, [r10]
	b	.L1015
.L1029:
	uxtb	r3, r3
	str	r3, [fp, #-52]
	cmp	r3, #255
	bne	.L1010
	b	.L1012
.L1023:
	mov	r3, #0
	mov	r5, r1
	str	r3, [fp, #-52]
	b	.L1010
.L1014:
	mov	r3, r9
	ldr	r2, .L1031
	ldr	r1, .L1031+12
	mov	r0, #1
	bl	dprint_vfmw
	mvn	r0, #0
	sub	sp, fp, #40
	ldmfd	sp, {r4, r5, r6, r7, r8, r9, r10, fp, sp, pc}
.L1032:
	.align	2
.L1031:
	.word	.LANCHOR0+388
	.word	.LC92
	.word	.LC94
	.word	.LC93
	UNWIND(.fnend)
	.size	HEVC_RepairList, .-HEVC_RepairList
	.align	2
	.global	HEVC_InitListX
	.type	HEVC_InitListX, %function
HEVC_InitListX:
	UNWIND(.fnstart)
	@ args = 0, pretend = 0, frame = 144
	@ frame_needed = 1, uses_anonymous_args = 0
	UNWIND(.movsp ip)
	mov	ip, sp
	stmfd	sp!, {r4, r5, r6, r7, r8, r9, r10, fp, ip, lr, pc}
	UNWIND(.pad #4)
	UNWIND(.save {r4, r5, r6, r7, r8, r9, r10, fp, ip, lr})
	UNWIND(.setfp fp, ip, #-4)
	sub	fp, ip, #4
	UNWIND(.pad #148)
	sub	sp, sp, #148
	subs	r4, r0, #0
	beq	.L1096
	ldr	r3, .L1146
	mov	r2, #136
	mov	r1, #0
	sub	r0, fp, #180
	ldr	r3, [r3, #48]
	blx	r3
	ldr	lr, [r4, #3052]
	cmp	lr, #0
	beq	.L1097
	add	r0, r4, #3264
	mov	r1, #0
	add	r0, r0, #8
	mov	r3, r1
	b	.L1037
.L1036:
	cmp	r3, lr
	beq	.L1035
.L1037:
	ldr	r2, [r0, #4]!
	add	r3, r3, #1
	ldrb	ip, [r2, #1]	@ zero_extendqisi2
	cmp	ip, #1
	bne	.L1036
	ldr	ip, [r2, #60]
	cmp	ip, #0
	bne	.L1036
	ldr	ip, [r2, #64]
	cmp	ip, #1
	subeq	ip, fp, #44
	addeq	r2, r2, #56
	addeq	ip, ip, r1, lsl #2
	addeq	r1, r1, #1
	streq	r2, [ip, #-136]
	cmp	r3, lr
	bne	.L1037
.L1035:
	ldrb	lr, [r4, #1]	@ zero_extendqisi2
	cmp	lr, #0
	bne	.L1139
	ldr	r3, [r4, #3056]
	mov	r5, r1
	cmp	r3, #0
	moveq	r3, lr
	moveq	ip, lr
	beq	.L1095
	mov	ip, lr
.L1094:
	add	r6, r4, #3328
	mov	r2, #0
	add	r6, r6, #12
	b	.L1044
.L1043:
	cmp	r2, r3
	bcs	.L1140
.L1044:
	ldr	r0, [r6, #4]!
	add	r2, r2, #1
	ldrb	r7, [r0, #1]	@ zero_extendqisi2
	cmp	r7, #1
	bne	.L1043
	ldr	r7, [r0, #60]
	cmp	r7, #0
	bne	.L1043
	ldr	r7, [r0, #64]
	cmp	r7, #1
	subeq	r7, fp, #44
	addeq	r0, r0, #56
	addeq	r7, r7, r5, lsl #2
	addeq	r5, r5, #1
	streq	r0, [r7, #-136]
	cmp	r2, r3
	bcc	.L1044
.L1140:
	cmp	lr, #0
	rsbne	r2, r1, r5
	rsbne	r3, ip, r2
	bne	.L1042
	rsb	r3, r1, r5
.L1095:
	ldr	r7, [r4, #3048]
	cmp	r7, #0
	beq	.L1048
.L1046:
	add	r6, r4, #3408
	mov	r2, #0
	b	.L1050
.L1049:
	cmp	r7, r2
	bls	.L1141
.L1050:
	ldr	r0, [r6, #4]!
	add	r2, r2, #1
	ldrb	r8, [r0, #1]	@ zero_extendqisi2
	cmp	r8, #1
	bne	.L1049
	ldr	r8, [r0, #60]
	cmp	r8, #1
	bne	.L1049
	ldr	r8, [r0, #64]
	sub	r9, fp, #44
	add	r9, r9, r5, lsl #2
	add	r0, r0, #56
	cmp	r8, #0
	addeq	r5, r5, #1
	streq	r0, [r9, #-136]
	cmp	r7, r2
	bhi	.L1050
.L1141:
	cmp	lr, #0
	rsbeq	r7, r1, r5
	rsbeq	r7, r3, r7
	beq	.L1048
	rsb	r2, r1, r5
.L1047:
	ldr	r0, [r4, #3068]
	rsb	r7, r3, r2
	rsb	r7, ip, r7
	cmp	r0, #0
	beq	.L1055
	add	r8, r4, #3136
	mov	r2, #0
.L1054:
	ldr	r6, [r8, #4]!
	add	r2, r2, #1
	ldrb	r9, [r6, #1]	@ zero_extendqisi2
	cmp	r9, #1
	subeq	r9, fp, #44
	addeq	r6, r6, #56
	addeq	r9, r9, r5, lsl #2
	addeq	r5, r5, #1
	streq	r6, [r9, #-136]
	cmp	r2, r0
	bne	.L1054
	rsb	r0, r1, r5
	rsb	r0, r3, r0
	rsb	r0, ip, r0
	rsb	r0, r7, r0
.L1055:
	cmp	r5, #0
	beq	.L1142
.L1056:
	add	r2, r4, #4096
	str	r2, [fp, #-184]
	ldr	r2, [r2, #732]
	cmp	r2, #0
	str	r2, [fp, #-188]
	bne	.L1143
	cmp	lr, #0
	beq	.L1144
	cmp	r3, #0
	beq	.L1102
	add	r8, ip, r1
	sub	r6, fp, #180
	ldr	r2, [fp, #-188]
	sub	r9, fp, #116
	add	r8, r6, r8, lsl #2
.L1065:
	add	r2, r2, #1
	ldr	r6, [r8], #4
	cmp	r2, r3
	str	r6, [r9, #4]!
	bne	.L1065
.L1102:
	cmp	r0, #0
	mov	r2, r3
	beq	.L1063
	add	r8, r7, r3
	add	r9, r3, #16
	add	r8, r8, r1
	sub	r6, fp, #180
	add	r8, r8, ip
	add	r9, r6, r9, lsl #2
	mov	r2, #0
	add	r8, r6, r8, lsl #2
.L1066:
	add	r2, r2, #1
	ldr	r6, [r8], #4
	cmp	r2, r0
	str	r6, [r9, #4]!
	bne	.L1066
	add	r2, r3, r2
	b	.L1063
.L1139:
	ldr	ip, [r4, #3064]
	cmp	ip, #0
	beq	.L1098
	add	r0, r4, #3056
	mov	r5, r1
	add	r0, r0, #12
	mov	r3, #0
	b	.L1041
.L1040:
	cmp	r3, ip
	beq	.L1145
.L1041:
	ldr	r2, [r0, #4]!
	add	r3, r3, #1
	ldrb	r6, [r2, #1]	@ zero_extendqisi2
	cmp	r6, #1
	bne	.L1040
	ldr	r6, [r2, #72]
	cmp	r6, #1
	subeq	r6, fp, #44
	addeq	r2, r2, #56
	addeq	r6, r6, r5, lsl #2
	addeq	r5, r5, #1
	streq	r2, [r6, #-136]
	cmp	r3, ip
	bne	.L1041
.L1145:
	rsb	ip, r1, r5
.L1039:
	ldr	r3, [r4, #3056]
	cmp	r3, #0
	bne	.L1094
	mov	r2, ip
.L1042:
	ldr	r7, [r4, #3048]
	cmp	r7, #0
	bne	.L1046
	b	.L1047
.L1143:
	ldr	r3, [fp, #-184]
	ldr	r7, [r3, #788]
	ldr	r8, [r3, #792]
	cmp	r7, #0
	str	r7, [r3, #780]
	str	r8, [r3, #784]
	beq	.L1088
.L1059:
	ldr	r3, [fp, #-184]
	add	r10, r4, #2864
	mov	r9, #0
	ldrb	r6, [r3, #1808]	@ zero_extendqisi2
.L1082:
	cmp	r6, #0
	mov	r1, r5
	mov	r0, r9
	ldrne	r1, [r10, #3044]
	bne	.L1081
	bl	__aeabi_uidivmod
.L1081:
	sub	r3, fp, #44
	add	r9, r9, #1
	add	r1, r3, r1, lsl #2
	cmp	r9, r7
	ldr	r3, [r1, #-136]
	str	r3, [r10, #4]!
	bne	.L1082
	ldr	r3, [fp, #-188]
	cmp	r3, #0
	bne	.L1079
.L1078:
	cmp	r8, #0
	beq	.L1084
	ldr	r3, [fp, #-184]
	add	r9, r4, #2928
	add	r9, r9, #4
	mov	r6, #0
	ldrb	r10, [r3, #1809]	@ zero_extendqisi2
.L1087:
	cmp	r10, #0
	mov	r1, r5
	mov	r0, r6
	ldrne	r1, [r9, #3104]
	bne	.L1086
	bl	__aeabi_uidivmod
.L1086:
	sub	r3, fp, #44
	add	r6, r6, #1
	add	r1, r3, r1, lsl #2
	cmp	r6, r8
	ldr	r3, [r1, #-68]
	str	r3, [r9, #4]!
	bne	.L1087
.L1079:
	cmp	r7, #16
	bhi	.L1092
.L1088:
	add	r7, r7, #716
	add	r2, r4, #2928
	add	r2, r2, #4
	add	r7, r4, r7, lsl #2
.L1091:
	ldr	r3, [r4, #2868]
	str	r3, [r7, #4]!
	cmp	r7, r2
	bne	.L1091
.L1092:
	cmp	r8, #16
	bhi	.L1090
	add	r8, r8, #732
	add	r2, r4, #2992
	add	r8, r8, #1
	add	r2, r2, #8
	add	r8, r4, r8, lsl #2
.L1093:
	ldr	r3, [r4, #2936]
	str	r3, [r8, #4]!
	cmp	r8, r2
	bne	.L1093
.L1090:
	mov	r0, #0
.L1132:
	sub	sp, fp, #40
	ldmfd	sp, {r4, r5, r6, r7, r8, r9, r10, fp, sp, pc}
.L1048:
	cmp	r5, #0
	mov	r0, #0
	bne	.L1056
.L1142:
	ldr	r3, .L1146
	add	r6, r4, #4096
	add	r0, r4, #2864
	mov	r2, #136
	add	r0, r0, #4
	str	r5, [r6, #780]
	ldr	r3, [r3, #48]
	mov	r1, r5
	str	r5, [r6, #784]
	blx	r3
	ldr	r3, [r4, #2856]
	ldr	r3, [r3, #24]
	cmp	r3, #2
	bne	.L1090
	ldr	r3, [r6, #68]
	mov	r2, #1
	mov	r0, r5
	str	r2, [r6, #780]
	add	r3, r3, #56
	str	r3, [r4, #2868]
	b	.L1132
.L1144:
	cmp	r3, #0
	beq	.L1134
	sub	r2, fp, #180
	sub	r0, fp, #116
	add	r8, r2, r1, lsl #2
	mov	r2, lr
.L1069:
	add	r2, r2, #1
	ldr	r6, [r8], #4
	cmp	r2, r3
	str	r6, [r0, #4]!
	bne	.L1069
.L1134:
	mov	r2, r3
.L1063:
	cmp	r1, #0
	beq	.L1068
	add	r8, r2, #16
	sub	r9, fp, #180
	mov	r0, #0
	add	r8, r9, r8, lsl #2
.L1070:
	add	r0, r0, #1
	ldr	r6, [r9], #4
	cmp	r0, r1
	str	r6, [r8, #4]!
	bne	.L1070
	add	r2, r2, r1
.L1068:
	cmp	lr, #0
	bne	.L1071
	cmp	r7, #0
	beq	.L1073
	add	r1, r3, r1
	add	r2, r2, #16
	sub	r3, fp, #180
	add	r1, r3, r1, lsl #2
	add	r3, r3, r2, lsl #2
.L1077:
	add	lr, lr, #1
	ldr	r2, [r1], #4
	cmp	lr, r7
	str	r2, [r3, #4]!
	bne	.L1077
.L1073:
	ldr	r3, [fp, #-184]
	ldr	r7, [r3, #788]
	ldr	r8, [r3, #792]
	cmp	r7, #0
	str	r7, [r3, #780]
	str	r8, [r3, #784]
	bne	.L1059
	b	.L1078
.L1071:
	cmp	r7, #0
	beq	.L1074
	add	r0, r3, ip
	add	lr, r2, #16
	add	r0, r0, r1
	sub	r6, fp, #180
	add	lr, r6, lr, lsl #2
	mov	r3, #0
	add	r0, r6, r0, lsl #2
.L1075:
	add	r3, r3, #1
	ldr	r6, [r0], #4
	cmp	r3, r7
	str	r6, [lr, #4]!
	bne	.L1075
	add	r2, r2, r3
.L1074:
	cmp	ip, #0
	beq	.L1073
	add	r2, r2, #16
	sub	r0, fp, #180
	sub	r3, fp, #180
	add	r2, r0, r2, lsl #2
	add	r1, r3, r1, lsl #2
	mov	r3, #0
.L1076:
	add	r3, r3, #1
	ldr	r0, [r1], #4
	cmp	r3, ip
	str	r0, [r2, #4]!
	bne	.L1076
	b	.L1073
.L1097:
	mov	r1, lr
	b	.L1035
.L1098:
	mov	r5, r1
	b	.L1039
.L1084:
	ldr	r3, .L1146
	add	r1, r4, #2864
	add	r0, r4, #2928
	add	r1, r1, #4
	add	r0, r0, #8
	mov	r2, #68
	ldr	r3, [r3, #52]
	blx	r3
	ldr	r3, [fp, #-184]
	ldr	r7, [r3, #780]
	str	r7, [r3, #784]
	mov	r8, r7
	b	.L1079
.L1096:
	mvn	r0, #0
	b	.L1132
.L1147:
	.align	2
.L1146:
	.word	vfmw_Osal_Func_Ptr_S
	UNWIND(.fnend)
	.size	HEVC_InitListX, .-HEVC_InitListX
	.align	2
	.global	HEVC_DecList
	.type	HEVC_DecList, %function
HEVC_DecList:
	UNWIND(.fnstart)
	@ args = 0, pretend = 0, frame = 0
	@ frame_needed = 1, uses_anonymous_args = 0
	UNWIND(.movsp ip)
	mov	ip, sp
	stmfd	sp!, {r4, r5, fp, ip, lr, pc}
	UNWIND(.pad #4)
	UNWIND(.save {r4, r5, fp, ip, lr})
	UNWIND(.setfp fp, ip, #-4)
	sub	fp, ip, #4
	add	r3, r0, #4096
	mov	r4, r0
	ldr	r2, [r3, #732]
	cmp	r2, #2
	beq	.L1153
	bl	HEVC_InitListX
	cmp	r0, #0
	bne	.L1154
	mov	r0, r4
	bl	HEVC_RepairList
	cmp	r0, #0
	ldmeqfd	sp, {r4, r5, fp, sp, pc}
	ldr	r1, .L1155
	mov	r0, #1
	bl	dprint_vfmw
	mvn	r0, #0
	ldmfd	sp, {r4, r5, fp, sp, pc}
.L1153:
	mov	r0, #0
	str	r0, [r3, #780]
	str	r0, [r3, #784]
	ldmfd	sp, {r4, r5, fp, sp, pc}
.L1154:
	ldr	r1, .L1155+4
	mov	r0, #1
	bl	dprint_vfmw
	mvn	r0, #0
	ldmfd	sp, {r4, r5, fp, sp, pc}
.L1156:
	.align	2
.L1155:
	.word	.LC96
	.word	.LC95
	UNWIND(.fnend)
	.size	HEVC_DecList, .-HEVC_DecList
	.align	2
	.global	HEVC_ArrangeMem
	.type	HEVC_ArrangeMem, %function
HEVC_ArrangeMem:
	UNWIND(.fnstart)
	@ args = 0, pretend = 0, frame = 24
	@ frame_needed = 1, uses_anonymous_args = 0
	UNWIND(.movsp ip)
	mov	ip, sp
	stmfd	sp!, {r4, r5, r6, fp, ip, lr, pc}
	UNWIND(.pad #4)
	UNWIND(.save {r4, r5, r6, fp, ip, lr})
	UNWIND(.setfp fp, ip, #-4)
	sub	fp, ip, #4
	UNWIND(.pad #36)
	sub	sp, sp, #36
	ldr	r2, [r0, #2840]
	movw	r1, #8160
	mov	r4, r0
	ldr	r6, [r2, #188]
	ldr	r5, [r2, #192]
	ldr	r2, [r2, #128]
	mov	r6, r6, asl r2
	mov	r5, r5, asl r2
	sub	r2, r5, #32
	sub	r3, r6, #32
	cmp	r3, r1
	cmpls	r2, r1
	movhi	r1, #1
	movls	r1, #0
	bhi	.L1164
	ldr	r3, .L1166
	mov	r2, #20
	sub	r0, fp, #48
	ldr	r3, [r3, #48]
	blx	r3
	ldr	r3, [r4, #2856]
	str	r6, [fp, #-44]
	str	r5, [fp, #-40]
	ldr	r3, [r3, #28]
	str	r6, [fp, #-36]
	cmp	r3, #24
	str	r5, [fp, #-32]
	beq	.L1160
	ldrb	r3, [r4, #3036]	@ zero_extendqisi2
	strb	r3, [fp, #-47]
.L1162:
	sub	r1, fp, #48
	ldr	r0, [r4, #276]
	strb	r3, [fp, #-45]
	bl	FSP_ConfigInstance
	cmp	r0, #0
	bne	.L1165
	ldr	r1, [r4, #2856]
	sub	r3, fp, #52
	ldr	r0, [r4, #276]
	ldr	r2, [r1, #20]
	ldr	r1, [r1, #16]
	bl	FSP_ConfigFrameBuf
.L1163:
	sub	sp, fp, #24
	ldmfd	sp, {r4, r5, r6, fp, sp, pc}
.L1160:
	mov	r3, #1
	strb	r3, [fp, #-47]
	b	.L1162
.L1164:
	str	r5, [sp]
	mov	r3, r6
	ldr	r2, .L1166+4
	mov	r0, #0
	ldr	r1, .L1166+8
	bl	dprint_vfmw
	mvn	r0, #19
	sub	sp, fp, #24
	ldmfd	sp, {r4, r5, r6, fp, sp, pc}
.L1165:
	ldr	r2, .L1166+4
	mov	r0, #1
	ldr	r1, .L1166+12
	bl	dprint_vfmw
	mvn	r0, #0
	b	.L1163
.L1167:
	.align	2
.L1166:
	.word	vfmw_Osal_Func_Ptr_S
	.word	.LANCHOR0+404
	.word	.LC97
	.word	.LC98
	UNWIND(.fnend)
	.size	HEVC_ArrangeMem, .-HEVC_ArrangeMem
	.align	2
	.global	HEVC_RemoveApcStore
	.type	HEVC_RemoveApcStore, %function
HEVC_RemoveApcStore:
	UNWIND(.fnstart)
	@ args = 0, pretend = 0, frame = 0
	@ frame_needed = 1, uses_anonymous_args = 0
	UNWIND(.movsp ip)
	mov	ip, sp
	stmfd	sp!, {r4, fp, ip, lr, pc}
	UNWIND(.pad #4)
	UNWIND(.save {r4, fp, ip, lr})
	UNWIND(.setfp fp, ip, #-4)
	sub	fp, ip, #4
	UNWIND(.pad #12)
	sub	sp, sp, #12
	add	r3, r0, r1, lsl #2
	ldr	ip, [r3, #3208]
	ldr	r2, [ip, #32]
	cmp	r2, #1
	bhi	.L1171
	ldr	r3, [ip, #24]
	cmp	r3, #15
	bhi	.L1168
	mov	r1, #70
	mov	r4, #280
	mla	r1, r1, r2, r3
	mov	lr, #0
	mla	r2, r4, r2, r0
	mov	r4, #16
	add	r3, r2, r3
	add	r1, r0, r1, lsl #2
	add	r1, r1, #12288
	add	r3, r3, #13376
	add	r2, r2, #13120
	str	lr, [r1, #884]
	str	lr, [r1, #948]
	str	lr, [r1, #1012]
	str	lr, [r1, #1076]
	strb	lr, [r3, #52]
	ldr	r3, [ip, #20]
	add	r3, r3, #540
	add	r3, r3, #2
	str	lr, [r0, r3, asl #2]
	str	r4, [ip, #24]
	ldr	r3, [r2, #48]
	sub	r3, r3, #1
	str	r3, [r2, #48]
.L1168:
	sub	sp, fp, #16
	ldmfd	sp, {r4, fp, sp, pc}
.L1171:
	str	r2, [sp]
	mov	r3, r1
	ldr	r2, .L1172
	mov	r0, #1
	ldr	r1, .L1172+4
	bl	dprint_vfmw
	sub	sp, fp, #16
	ldmfd	sp, {r4, fp, sp, pc}
.L1173:
	.align	2
.L1172:
	.word	.LANCHOR0+420
	.word	.LC99
	UNWIND(.fnend)
	.size	HEVC_RemoveApcStore, .-HEVC_RemoveApcStore
	.align	2
	.global	HEVC_RemoveUnusedApcStore
	.type	HEVC_RemoveUnusedApcStore, %function
HEVC_RemoveUnusedApcStore:
	UNWIND(.fnstart)
	@ args = 0, pretend = 0, frame = 0
	@ frame_needed = 1, uses_anonymous_args = 0
	UNWIND(.movsp ip)
	mov	ip, sp
	stmfd	sp!, {r4, r5, r6, r7, fp, ip, lr, pc}
	UNWIND(.pad #4)
	UNWIND(.save {r4, r5, r6, r7, fp, ip, lr})
	UNWIND(.setfp fp, ip, #-4)
	sub	fp, ip, #4
	ldr	r2, [r0, #3040]
	mov	r6, r0
	cmp	r2, #0
	ldmeqfd	sp, {r4, r5, r6, r7, fp, sp, pc}
	add	r5, r0, #3200
	mov	r4, #0
	add	r5, r5, #4
	b	.L1177
.L1176:
	add	r4, r4, #1
	cmp	r4, r2
	bcs	.L1180
.L1177:
	ldr	r3, [r5, #4]!
	ldrb	r3, [r3, #1]	@ zero_extendqisi2
	cmp	r3, #0
	bne	.L1176
	mov	r1, r4
	mov	r0, r6
	bl	HEVC_RemoveApcStore
	ldr	r2, [r6, #3040]
	add	r4, r4, #1
	cmp	r4, r2
	bcc	.L1177
.L1180:
	ldmfd	sp, {r4, r5, r6, r7, fp, sp, pc}
	UNWIND(.fnend)
	.size	HEVC_RemoveUnusedApcStore, .-HEVC_RemoveUnusedApcStore
	.align	2
	.global	HEVC_ApplyReferencePictureSet
	.type	HEVC_ApplyReferencePictureSet, %function
HEVC_ApplyReferencePictureSet:
	UNWIND(.fnstart)
	@ args = 0, pretend = 0, frame = 8
	@ frame_needed = 1, uses_anonymous_args = 0
	UNWIND(.movsp ip)
	mov	ip, sp
	stmfd	sp!, {r4, r5, r6, r7, r8, r9, r10, fp, ip, lr, pc}
	UNWIND(.pad #4)
	UNWIND(.save {r4, r5, r6, r7, r8, r9, r10, fp, ip, lr})
	UNWIND(.setfp fp, ip, #-4)
	sub	fp, ip, #4
	UNWIND(.pad #12)
	sub	sp, sp, #12
	add	r4, r0, #4096
	ldr	r2, [r0, #2820]
	movw	lr, #5036
	ldr	r1, [r4, #748]
	movw	ip, #12668
	ldr	r3, [r0, #2816]
	mov	r9, r0
	mov	r0, #1
	mla	r2, lr, r1, r2
	ldr	r1, [r9, #3040]
	cmp	r1, #0
	ldr	r2, [r2, #32]
	mla	r3, ip, r2, r3
	ldr	r3, [r3, #116]
	mov	r3, r0, asl r3
	str	r3, [fp, #-48]
	beq	.L1181
	add	r7, r9, #3200
	add	r3, r9, #5760
	add	r3, r3, #12
	add	r7, r7, #4
	str	r3, [fp, #-52]
	mov	r8, #0
	b	.L1198
.L1184:
	add	r8, r8, #1
	cmp	r8, r1
	bcs	.L1181
.L1198:
	ldr	r0, [r7, #4]!
	ldr	r3, [r4, #744]
	ldr	r2, [r0, #32]
	cmp	r2, r3
	bne	.L1184
	ldr	r1, [r4, #1644]
	ldr	r3, [r4, #1648]
	ldr	r2, [r4, #1652]
	add	r3, r3, r1
	cmp	r3, r2
	mov	r6, r3
	ldrcs	ip, [r0, #8]
	movcs	r1, #0
	bcs	.L1186
	add	r5, r3, #1456
	ldr	r3, [r0, #8]
	add	r5, r5, #4
	mov	r1, #0
	mov	r10, #1
	mov	r2, r3
	mov	r3, r9
	add	r5, r9, r5, lsl #2
	mov	r9, r8
	mov	r8, r3
.L1192:
	ldr	ip, [r5, #-944]
	cmp	ip, #0
	ldr	ip, [r0, #60]
	beq	.L1187
	cmp	ip, #0
	beq	.L1188
	ldr	ip, [r5]
	cmp	ip, r2
	beq	.L1221
.L1188:
	cmp	r1, #0
	bne	.L1203
	ldr	r1, [r5]
	mov	lr, r2
.L1200:
	ldrb	ip, [r0, #1]	@ zero_extendqisi2
	rsb	r1, r1, lr
	clz	r1, r1
	cmp	ip, #0
	mov	r1, r1, lsr #5
	moveq	r1, #0
	cmp	r1, #0
	bne	.L1222
.L1203:
	mov	ip, r2
.L1191:
	ldr	lr, [r4, #1652]
	add	r6, r6, #1
	add	r5, r5, #4
	mov	r2, ip
	cmp	r6, lr
	bcc	.L1192
	mov	r3, r8
	ldr	r2, [r4, #1644]
	mov	r8, r9
	mov	r9, r3
	ldr	r3, [r4, #1648]
	add	r3, r3, r2
.L1186:
	cmp	r3, #0
	ldr	lr, [r4, #724]
	ldrne	r6, [fp, #-52]
	movne	r5, #0
	movne	r10, #1
	beq	.L1194
.L1196:
	ldr	r3, [r0, #60]
	add	r5, r5, #1
	cmp	r3, #0
	bne	.L1195
	ldr	r2, [r6]
	add	r2, lr, r2
	cmp	r2, ip
	beq	.L1223
.L1195:
	ldr	r3, [r4, #1648]
	add	r6, r6, #4
	ldr	r2, [r4, #1644]
	add	r3, r3, r2
	cmp	r5, r3
	bcc	.L1196
.L1194:
	eor	r1, r1, #1
	cmp	ip, lr
	moveq	ip, #0
	andne	ip, r1, #1
	cmp	ip, #0
	beq	.L1219
	mov	r3, #0
	strb	r3, [r0, #1]
	ldr	r3, [r7]
	mov	r2, #0
	str	r2, [r3, #60]
	ldr	r3, [r7]
	str	r2, [r3, #72]
	ldr	r3, [r7]
	ldr	r2, [r3, #52]
	cmp	r2, #1
	beq	.L1219
	ldr	r1, [r3, #28]
	mov	r2, #0
	ldr	r0, [r9, #276]
	bl	FSP_SetRef
.L1219:
	ldr	r1, [r9, #3040]
	add	r8, r8, #1
	cmp	r8, r1
	bcc	.L1198
.L1181:
	sub	sp, fp, #40
	ldmfd	sp, {r4, r5, r6, r7, r8, r9, r10, fp, sp, pc}
.L1187:
	cmp	ip, #0
	beq	.L1190
	ldr	lr, [r5]
	ldr	r3, [fp, #-48]
	eor	lr, lr, r2
	sub	ip, r3, #1
	ands	ip, lr, ip
	beq	.L1224
.L1190:
	cmp	r1, #0
	bne	.L1203
	ldr	r3, [fp, #-48]
	ldr	ip, [r5]
	sub	r1, r3, #1
	and	lr, r2, r1
	and	r1, r1, ip
	b	.L1200
.L1222:
	strb	r10, [r0, #1]
	mov	r3, #0
	ldr	r1, [r7]
	mov	r2, #1
	str	r10, [r1, #60]
	ldr	r1, [r7]
	str	r3, [r1, #72]
	ldr	r1, [r7]
	str	r10, [r1, #48]
	ldr	r1, [r7]
	ldr	r0, [r8, #276]
	ldr	r1, [r1, #28]
	bl	FSP_SetRef
	ldr	r0, [r7]
	mov	r1, #1
	ldr	ip, [r0, #8]
	b	.L1191
.L1224:
	strb	r10, [r0, #1]
	mov	r2, #1
	ldr	r1, [r7]
	str	ip, [r1, #72]
.L1220:
	ldr	r1, [r7]
	str	r10, [r1, #48]
	ldr	r1, [r7]
	ldr	r0, [r8, #276]
	ldr	r1, [r1, #28]
	bl	FSP_SetRef
	ldr	r0, [r7]
	mov	r1, #1
	ldr	ip, [r0, #8]
	b	.L1191
.L1223:
	strb	r10, [r0, #1]
	mov	r2, #1
	ldr	r1, [r7]
	str	r3, [r1, #72]
	ldr	r3, [r7]
	str	r10, [r3, #48]
	ldr	r3, [r7]
	ldr	r0, [r9, #276]
	ldr	r1, [r3, #28]
	bl	FSP_SetRef
	ldr	r0, [r7]
	ldr	lr, [r4, #724]
	mov	r1, #1
	ldr	ip, [r0, #8]
	b	.L1195
.L1221:
	strb	r10, [r0, #1]
	mov	r3, #0
	ldr	r1, [r7]
	mov	r2, #1
	str	r3, [r1, #72]
	b	.L1220
	UNWIND(.fnend)
	.size	HEVC_ApplyReferencePictureSet, .-HEVC_ApplyReferencePictureSet
	.align	2
	.global	HEVC_CheckThatAllRefPicsAreAvailable
	.type	HEVC_CheckThatAllRefPicsAreAvailable, %function
HEVC_CheckThatAllRefPicsAreAvailable:
	UNWIND(.fnstart)
	@ args = 0, pretend = 0, frame = 0
	@ frame_needed = 1, uses_anonymous_args = 0
	UNWIND(.movsp ip)
	mov	ip, sp
	stmfd	sp!, {fp, ip, lr, pc}
	UNWIND(.pad #4)
	UNWIND(.save {fp, ip, lr})
	UNWIND(.setfp fp, ip, #-4)
	sub	fp, ip, #4
	add	r3, r0, #4096
	ldr	r3, [r3, #740]
	sub	r3, r3, #19
	cmp	r3, #2
	bls	.L1226
	sub	sp, fp, #12
	ldmia	sp, {fp, sp, lr}
	b	HEVC_CheckThatAllRefPicsAreAvailable.part.14
.L1226:
	mov	r0, #1
	ldmfd	sp, {fp, sp, pc}
	UNWIND(.fnend)
	.size	HEVC_CheckThatAllRefPicsAreAvailable, .-HEVC_CheckThatAllRefPicsAreAvailable
	.align	2
	.global	HEVC_SetFrmRepeatCount
	.type	HEVC_SetFrmRepeatCount, %function
HEVC_SetFrmRepeatCount:
	UNWIND(.fnstart)
	@ args = 0, pretend = 0, frame = 0
	@ frame_needed = 1, uses_anonymous_args = 0
	UNWIND(.movsp ip)
	mov	ip, sp
	stmfd	sp!, {fp, ip, lr, pc}
	UNWIND(.pad #4)
	UNWIND(.save {fp, ip, lr})
	UNWIND(.setfp fp, ip, #-4)
	sub	fp, ip, #4
	ldr	r3, [r0, #2856]
	ldr	r3, [r3, #620]
	add	r3, r3, #2032
	add	r3, r3, #15
	cmp	r3, #4096
	movcc	r3, #0
	strcc	r3, [r1, #16]
	ldmccfd	sp, {fp, sp, pc}
	sub	sp, fp, #12
	ldmia	sp, {fp, sp, lr}
	b	HEVC_SetFrmRepeatCount.part.15
	UNWIND(.fnend)
	.size	HEVC_SetFrmRepeatCount, .-HEVC_SetFrmRepeatCount
	.align	2
	.global	HEVC_GetFreeFrameStoreNum
	.type	HEVC_GetFreeFrameStoreNum, %function
HEVC_GetFreeFrameStoreNum:
	UNWIND(.fnstart)
	@ args = 0, pretend = 0, frame = 0
	@ frame_needed = 1, uses_anonymous_args = 0
	UNWIND(.movsp ip)
	mov	ip, sp
	stmfd	sp!, {r4, r5, fp, ip, lr, pc}
	UNWIND(.pad #4)
	UNWIND(.save {r4, r5, fp, ip, lr})
	UNWIND(.setfp fp, ip, #-4)
	sub	fp, ip, #4
	add	r1, r0, #13696
	add	r4, r0, #27904
	add	r1, r1, #32
	add	r4, r4, #224
	mov	r5, #0
.L1234:
	ldr	r3, [r1, #48]
	cmp	r3, #0
	bne	.L1230
	cmp	r1, #0
	beq	.L1231
	ldr	lr, [r0, #3040]
	cmp	lr, #0
	beq	.L1231
	ldr	r2, [r0, #3208]
	cmp	r2, r1
	beq	.L1230
	add	r2, r0, #3200
	add	r2, r2, #8
	b	.L1232
.L1233:
	ldr	ip, [r2, #4]!
	cmp	ip, r1
	beq	.L1230
.L1232:
	add	r3, r3, #1
	cmp	r3, lr
	bne	.L1233
.L1231:
	add	r5, r5, #1
.L1230:
	add	r1, r1, #720
	cmp	r1, r4
	bne	.L1234
	mov	r0, r5
	ldmfd	sp, {r4, r5, fp, sp, pc}
	UNWIND(.fnend)
	.size	HEVC_GetFreeFrameStoreNum, .-HEVC_GetFreeFrameStoreNum
	.align	2
	.global	HEVC_UpdateReflist
	.type	HEVC_UpdateReflist, %function
HEVC_UpdateReflist:
	UNWIND(.fnstart)
	@ args = 0, pretend = 0, frame = 8
	@ frame_needed = 1, uses_anonymous_args = 0
	UNWIND(.movsp ip)
	mov	ip, sp
	stmfd	sp!, {r4, r5, r6, r7, r8, r9, r10, fp, ip, lr, pc}
	UNWIND(.pad #4)
	UNWIND(.save {r4, r5, r6, r7, r8, r9, r10, fp, ip, lr})
	UNWIND(.setfp fp, ip, #-4)
	sub	fp, ip, #4
	UNWIND(.pad #12)
	sub	sp, sp, #12
	add	r5, r0, #4096
	mov	r7, r0
	ldr	r1, [r5, #1644]
	cmp	r1, #0
	beq	.L1264
	add	r10, r0, #5696
	add	r9, r0, #5760
	mov	r8, #0
	add	r10, r10, #55
	add	r9, r9, #12
	mov	r6, r8
.L1250:
	ldrb	r3, [r10, #1]!	@ zero_extendqisi2
	cmp	r3, #0
	beq	.L1246
	ldr	lr, [r7, #3040]
	ldr	ip, [r5, #724]
	ldr	r3, [r9]
	cmp	lr, #0
	add	ip, ip, r3
	beq	.L1246
	add	r1, r7, #3200
	mov	r3, #0
	add	r1, r1, #4
	b	.L1249
.L1247:
	add	r3, r3, #1
	cmp	r3, lr
	beq	.L1246
.L1249:
	ldr	r2, [r1, #4]!
	ldr	r0, [r2, #8]
	cmp	r0, ip
	bne	.L1247
	ldr	r4, [r5, #744]
	ldr	r0, [r2, #32]
	cmp	r4, r0
	bne	.L1247
	add	r4, r7, r3, lsl #2
	mov	r3, #1
	strb	r3, [r2, #1]
	ldr	r3, [r4, #3208]
	ldrb	r2, [r3, #1]	@ zero_extendqisi2
	cmp	r2, #0
	bne	.L1290
.L1248:
	mov	r2, #1
	str	r2, [r3, #64]
	ldr	r2, [r4, #3208]
	mov	r1, #0
	add	r3, r7, r8, lsl #2
	add	r8, r8, #1
	str	r1, [r2, #60]
	ldr	r2, [r4, #3208]
	str	r2, [r3, #3276]
.L1246:
	ldr	r1, [r5, #1644]
	add	r6, r6, #1
	add	r9, r9, #4
	cmp	r1, r6
	bhi	.L1250
.L1245:
	ldr	r2, [r7, #3036]
	str	r8, [r7, #3052]
	cmp	r2, r8
	bls	.L1255
	add	r3, r8, #816
	mov	r0, #0
	add	r3, r3, #2
	add	r3, r7, r3, lsl #2
.L1254:
	add	r8, r8, #1
	str	r0, [r3, #4]!
	cmp	r8, r2
	bne	.L1254
.L1255:
	ldr	r3, [r5, #1648]
	add	r4, r1, r3
	cmp	r4, r6
	movls	r8, #0
	bls	.L1253
	add	r9, r6, #1440
	add	r10, r6, #5696
	add	r9, r9, #3
	add	r10, r10, #55
	add	r10, r7, r10
	mov	r8, #0
	add	r9, r7, r9, lsl #2
	str	r8, [fp, #-48]
.L1260:
	ldrb	r3, [r10, #1]!	@ zero_extendqisi2
	cmp	r3, #0
	beq	.L1256
	ldr	ip, [r7, #3040]
	ldr	r0, [r5, #724]
	ldr	r3, [r9]
	cmp	ip, #0
	add	r0, r0, r3
	beq	.L1256
	add	r1, r7, #3200
	mov	r3, #0
	add	r1, r1, #4
	b	.L1259
.L1257:
	add	r3, r3, #1
	cmp	r3, ip
	beq	.L1256
.L1259:
	ldr	r2, [r1, #4]!
	ldr	lr, [r2, #8]
	cmp	lr, r0
	bne	.L1257
	ldr	r8, [r5, #744]
	ldr	lr, [r2, #32]
	cmp	r8, lr
	bne	.L1257
	add	r8, r7, r3, lsl #2
	mov	r3, #1
	strb	r3, [r2, #1]
	ldr	r3, [r8, #3208]
	ldrb	r2, [r3, #1]	@ zero_extendqisi2
	cmp	r2, #0
	bne	.L1291
.L1258:
	ldr	r1, [fp, #-48]
	mov	r2, #1
	str	r2, [r3, #64]
	ldr	r2, [r8, #3208]
	add	r3, r7, r1, lsl #2
	add	r1, r1, #1
	str	r1, [fp, #-48]
	mov	r1, #0
	str	r1, [r2, #60]
	ldr	r2, [r8, #3208]
	str	r2, [r3, #3344]
.L1256:
	add	r6, r6, #1
	add	r9, r9, #4
	cmp	r4, r6
	bhi	.L1260
	ldr	r8, [fp, #-48]
	ldr	r2, [r7, #3036]
.L1253:
	cmp	r2, r8
	str	r8, [r7, #3056]
	bls	.L1244
	add	r1, r8, #832
	mov	r3, #0
	add	r1, r1, #3
	add	r7, r7, r1, lsl #2
.L1262:
	add	r8, r8, #1
	str	r3, [r7, #4]!
	cmp	r8, r2
	bne	.L1262
.L1244:
	sub	sp, fp, #40
	ldmfd	sp, {r4, r5, r6, r7, r8, r9, r10, fp, sp, pc}
.L1290:
	ldr	r1, [r3, #28]
	mov	r2, #1
	ldr	r0, [r7, #276]
	bl	FSP_SetRef
	ldr	r3, [r4, #3208]
	b	.L1248
.L1291:
	ldr	r1, [r3, #28]
	mov	r2, #1
	ldr	r0, [r7, #276]
	bl	FSP_SetRef
	ldr	r3, [r8, #3208]
	b	.L1258
.L1264:
	mov	r8, r1
	mov	r6, r1
	b	.L1245
	UNWIND(.fnend)
	.size	HEVC_UpdateReflist, .-HEVC_UpdateReflist
	.align	2
	.global	HEVC_UpdateLTReflist
	.type	HEVC_UpdateLTReflist, %function
HEVC_UpdateLTReflist:
	UNWIND(.fnstart)
	@ args = 0, pretend = 0, frame = 16
	@ frame_needed = 1, uses_anonymous_args = 0
	UNWIND(.movsp ip)
	mov	ip, sp
	stmfd	sp!, {r4, r5, r6, r7, r8, r9, r10, fp, ip, lr, pc}
	UNWIND(.pad #4)
	UNWIND(.save {r4, r5, r6, r7, r8, r9, r10, fp, ip, lr})
	UNWIND(.setfp fp, ip, #-4)
	sub	fp, ip, #4
	UNWIND(.pad #20)
	sub	sp, sp, #20
	add	r5, r0, #4096
	ldr	r2, [r0, #2820]
	mov	r7, r0
	ldr	r3, [r5, #748]
	movw	r0, #5036
	ldr	ip, [r7, #2816]
	movw	lr, #12668
	mov	r1, #1
	mla	r0, r0, r3, r2
	ldr	r3, [r5, #1644]
	ldr	r2, [r5, #1648]
	add	r2, r3, r2
	ldr	r3, [r5, #1652]
	sub	r2, r2, #1
	ldr	r0, [r0, #32]
	sub	r10, r3, #1
	cmp	r10, r2
	mla	r2, lr, r0, ip
	ldr	r2, [r2, #116]
	mov	r2, r1, asl r2
	ble	.L1303
	add	r9, r3, #1456
	add	r3, r3, #5696
	add	r9, r9, #3
	add	r3, r3, #56
	add	r3, r7, r3
	sub	r4, r2, #1
	add	r9, r7, r9, lsl #2
	mov	r8, #0
	str	r8, [fp, #-52]
	mov	r8, r3
	str	r1, [fp, #-56]
.L1299:
	ldrb	r3, [r8, #-1]!	@ zero_extendqisi2
	cmp	r3, #0
	beq	.L1294
	ldrb	r0, [r9, #-944]	@ zero_extendqisi2
	ldr	ip, [r9]
	ldr	lr, [r7, #3040]
	cmp	r0, #0
	andeq	ip, ip, r4
	cmp	lr, #0
	ble	.L1294
	add	r1, r7, #3200
	mov	r3, #0
	add	r1, r1, #4
	str	r7, [fp, #-48]
	b	.L1298
.L1297:
	add	r3, r3, #1
	cmp	r3, lr
	beq	.L1310
.L1298:
	ldr	r2, [r1, #4]!
	cmp	r0, #0
	ldr	r6, [r2, #8]
	andeq	r6, r6, r4
	cmp	ip, r6
	bne	.L1297
	ldr	r6, [r5, #744]
	ldr	r7, [r2, #32]
	cmp	r7, r6
	bne	.L1297
	ldr	r7, [fp, #-48]
	mov	ip, #0
	ldr	r1, [fp, #-52]
	ldr	r0, [fp, #-56]
	add	r3, r7, r3, lsl #2
	strb	r0, [r2, #1]
	add	r2, r7, r1, lsl #2
	add	r1, r1, #1
	str	r1, [fp, #-52]
	ldr	r1, [r3, #3208]
	str	ip, [r1, #64]
	ldr	r1, [r3, #3208]
	str	r0, [r1, #60]
	ldr	r3, [r3, #3208]
	str	r3, [r2, #3412]
.L1294:
	ldr	r3, [r5, #1644]
	sub	r10, r10, #1
	ldr	r2, [r5, #1648]
	sub	r9, r9, #4
	add	r3, r3, r2
	sub	r3, r3, #1
	cmp	r3, r10
	blt	.L1299
	ldr	r8, [fp, #-52]
	mov	r3, r8
.L1293:
	ldr	r2, [r7, #3036]
	str	r3, [r7, #3048]
	cmp	r2, r8
	ble	.L1292
	add	r3, r8, #852
	mov	r1, #0
	add	r3, r7, r3, lsl #2
.L1301:
	add	r8, r8, #1
	str	r1, [r3, #4]!
	cmp	r8, r2
	bne	.L1301
.L1292:
	sub	sp, fp, #40
	ldmfd	sp, {r4, r5, r6, r7, r8, r9, r10, fp, sp, pc}
.L1310:
	ldr	r7, [fp, #-48]
	b	.L1294
.L1303:
	mov	r3, #0
	mov	r8, r3
	b	.L1293
	UNWIND(.fnend)
	.size	HEVC_UpdateLTReflist, .-HEVC_UpdateLTReflist
	.align	2
	.global	HEVC_GetAPC
	.type	HEVC_GetAPC, %function
HEVC_GetAPC:
	UNWIND(.fnstart)
	@ args = 0, pretend = 0, frame = 0
	@ frame_needed = 1, uses_anonymous_args = 0
	UNWIND(.movsp ip)
	mov	ip, sp
	stmfd	sp!, {r4, r5, r6, r7, fp, ip, lr, pc}
	UNWIND(.pad #4)
	UNWIND(.save {r4, r5, r6, r7, fp, ip, lr})
	UNWIND(.setfp fp, ip, #-4)
	sub	fp, ip, #4
	UNWIND(.pad #16)
	sub	sp, sp, #16
	subs	r5, r1, #0
	mov	r6, r0
	beq	.L1329
	add	r2, r0, #4096
	mov	r3, #280
	ldr	r7, [r2, #16]
	mul	r3, r3, r7
	add	r2, r0, r3
	add	r1, r2, #13120
	add	r1, r1, #40
	ldr	r1, [r1, #4]
	cmp	r1, #0
	beq	.L1314
	add	r2, r2, #13120
	ldr	r4, [r2, #52]
	cmp	r4, #0
	addne	r3, r3, #13120
	addne	r3, r3, #52
	movne	r4, #0
	addne	r3, r0, r3
	bne	.L1317
	b	.L1315
.L1320:
	ldr	r2, [r3, #4]!
	cmp	r2, #0
	beq	.L1315
.L1317:
	add	r4, r4, #1
	cmp	r4, r1
	bne	.L1320
.L1314:
	ldr	r1, .L1330
	mov	r0, #0
	bl	dprint_vfmw
	mvn	r0, #0
.L1327:
	sub	sp, fp, #28
	ldmfd	sp, {r4, r5, r6, r7, fp, sp, pc}
.L1315:
	ldr	r1, [r5, #28]
	ldr	r0, [r6, #276]
	bl	FSP_GetLogicFs
	subs	ip, r0, #0
	beq	.L1318
	ldr	r3, [ip, #28]
	cmp	r3, #0
	beq	.L1318
	mov	r2, #70
	mov	r3, #280
	mla	r2, r2, r7, r4
	mov	lr, #1
	mla	r7, r3, r7, r6
	ldr	r1, .L1330+4
	mov	r3, r4
	mov	r0, #13
	add	r6, r6, r2, lsl #2
	add	r2, r7, #13120
	add	r6, r6, #12288
	add	r7, r7, r4
	str	lr, [r6, #884]
	ldr	ip, [ip, #28]
	ldr	ip, [ip, #4]
	str	ip, [r6, #948]
	ldr	ip, [r5, #8]
	str	ip, [r6, #1012]
	ldr	ip, [r2, #48]
	add	ip, ip, lr
	str	ip, [r2, #48]
	ldr	r2, [r5, #228]
	bl	dprint_vfmw
	ldr	r1, [r5, #32]
	add	r3, r7, #13376
	mov	r2, #0
	str	r4, [r5, #24]
	mov	r0, r2
	str	r1, [r6, #1076]
	strb	r2, [r3, #52]
	sub	sp, fp, #28
	ldmfd	sp, {r4, r5, r6, r7, fp, sp, pc}
.L1318:
	ldrb	r1, [r5, #1]	@ zero_extendqisi2
	mov	r0, #0
	ldr	r2, [r5, #28]
	ldr	r3, [r5, #8]
	stmia	sp, {r1, ip}
	str	r0, [sp, #8]
	ldr	r1, .L1330+8
	bl	dprint_vfmw
	mvn	r0, #0
	b	.L1327
.L1329:
	mov	r0, r5
	movw	r3, #11586
	ldr	r2, .L1330+12
	ldr	r1, .L1330+16
	bl	dprint_vfmw
	mvn	r0, #0
	b	.L1327
.L1331:
	.align	2
.L1330:
	.word	.LC101
	.word	.LC100
	.word	.LC4
	.word	.LC2
	.word	.LC3
	UNWIND(.fnend)
	.size	HEVC_GetAPC, .-HEVC_GetAPC
	.align	2
	.global	HEVC_CheckFrameStore
	.type	HEVC_CheckFrameStore, %function
HEVC_CheckFrameStore:
	UNWIND(.fnstart)
	@ args = 0, pretend = 0, frame = 0
	@ frame_needed = 1, uses_anonymous_args = 0
	UNWIND(.movsp ip)
	mov	ip, sp
	stmfd	sp!, {r4, fp, ip, lr, pc}
	UNWIND(.pad #4)
	UNWIND(.save {r4, fp, ip, lr})
	UNWIND(.setfp fp, ip, #-4)
	sub	fp, ip, #4
	UNWIND(.pad #12)
	sub	sp, sp, #12
	subs	r4, r1, #0
	beq	.L1342
	ldr	r0, [r0, #276]
	ldr	r1, [r4, #28]
	bl	FSP_GetLogicFs
	cmp	r0, #0
	beq	.L1334
	ldrsb	r2, [r0, #1]
	cmp	r2, #3
	cmpne	r2, #0
	moveq	r0, #1
	movne	r0, #0
	beq	.L1353
	ldr	r3, [r4, #52]
	cmp	r3, #1
	beq	.L1339
	ldr	r2, [r4, #48]
	ldrb	r3, [r4]	@ zero_extendqisi2
	cmp	r2, #0
	beq	.L1338
	cmp	r3, #1
	beq	.L1338
.L1350:
	sub	sp, fp, #16
	ldmfd	sp, {r4, fp, sp, pc}
.L1353:
	ldr	r3, [r4, #28]
	mov	r0, #13
	str	r2, [sp]
	ldr	r1, .L1354
	ldr	r2, .L1354+4
	bl	dprint_vfmw
.L1336:
	ldr	r3, [r4, #52]
	cmp	r3, #1
	beq	.L1339
	ldr	r3, [r4, #8]
	mov	r0, #1
	ldr	r2, .L1354+4
	ldr	r1, .L1354+8
	bl	dprint_vfmw
	mvn	r0, #2
	b	.L1350
.L1334:
	ldr	ip, [r4, #28]
	mov	r2, r4
	ldr	r3, [r4, #8]
	mov	r0, #1
	ldr	r1, .L1354+12
	str	ip, [sp, #4]
	ldr	ip, [r4, #52]
	str	ip, [sp]
	bl	dprint_vfmw
	b	.L1336
.L1338:
	str	r3, [sp, #4]
	mov	r0, #1
	str	r2, [sp]
	mov	r3, r4
	ldr	r2, .L1354+4
	ldr	r1, .L1354+16
	bl	dprint_vfmw
	mvn	r0, #0
	b	.L1350
.L1342:
	mvn	r0, #0
	b	.L1350
.L1339:
	mov	r2, #1
	mov	r3, #2
	strb	r2, [r4, #2]
	mvn	r0, #2
	str	r3, [r4, #52]
	b	.L1350
.L1355:
	.align	2
.L1354:
	.word	.LC102
	.word	.LANCHOR0+440
	.word	.LC104
	.word	.LC103
	.word	.LC105
	UNWIND(.fnend)
	.size	HEVC_CheckFrameStore, .-HEVC_CheckFrameStore
	.align	2
	.global	HEVC_GetImagePara
	.type	HEVC_GetImagePara, %function
HEVC_GetImagePara:
	UNWIND(.fnstart)
	@ args = 0, pretend = 0, frame = 8
	@ frame_needed = 1, uses_anonymous_args = 0
	UNWIND(.movsp ip)
	mov	ip, sp
	stmfd	sp!, {r4, r5, r6, r7, r8, r9, r10, fp, ip, lr, pc}
	UNWIND(.pad #4)
	UNWIND(.save {r4, r5, r6, r7, r8, r9, r10, fp, ip, lr})
	UNWIND(.setfp fp, ip, #-4)
	sub	fp, ip, #4
	UNWIND(.pad #20)
	sub	sp, sp, #20
	add	r8, r1, #672
	mov	r4, r1
	mvn	r7, #0
	ldrd	r2, [r8, #-8]
	mvn	r6, #0
	ldr	r1, [r1, #12]
	mov	r5, r0
	cmp	r3, r7
	cmpeq	r2, r6
	str	r1, [fp, #-52]
	beq	.L1358
	ldr	ip, [r0, #3040]
	cmp	ip, #0
	beq	.L1358
	add	r10, r0, #3200
	mvn	r3, #0
	mvn	r6, #1
	mvn	r7, #0
	add	r10, r10, #4
	str	r3, [fp, #-48]
	mov	r9, #0
	b	.L1361
.L1395:
	ldr	r1, [r10]
	ldr	ip, [r5, #3040]
	add	r1, r1, #672
	ldrd	r0, [r1, #-8]
	cmp	r1, r7
	cmpeq	r0, r6
	strcc	r9, [fp, #-48]
	movcc	r6, r0
	movcc	r7, r1
.L1360:
	add	r9, r9, #1
	cmp	r9, ip
	bcs	.L1398
.L1361:
	ldr	r1, [r10, #4]!
	cmp	r1, #0
	beq	.L1360
	ldr	r1, [r1, #28]
	ldr	r0, [r5, #276]
	bl	FSP_GetLogicFs
	cmp	r0, #0
	beq	.L1397
	ldrsb	r1, [r0, #1]
	cmp	r1, #3
	cmpne	r1, #0
	bne	.L1395
.L1397:
	ldr	ip, [r5, #3040]
	add	r9, r9, #1
	cmp	r9, ip
	bcc	.L1361
.L1398:
	ldr	r3, [fp, #-48]
	cmn	r3, #1
	beq	.L1358
	ldrd	r2, [r8, #-8]
	cmp	r3, r7
	cmpeq	r2, r6
	bhi	.L1399
.L1358:
	ldrb	r3, [r4, #145]	@ zero_extendqisi2
	ldrb	r2, [r4, #144]	@ zero_extendqisi2
	and	r3, r3, #195
	bfc	r3, #0, #2
	bfc	r2, #0, #2
	strb	r3, [r4, #145]
	strb	r2, [r4, #144]
	ldr	r3, [r5, #144]
	str	r3, [r4, #188]
	ldr	r3, [r5, #2836]
	ldrh	r3, [r3, #124]
	cmp	r3, #1
	moveq	r2, #0
	beq	.L1362
	movw	r2, #257
	cmp	r3, r2
	movne	r2, #1
	bne	.L1362
	ldr	r2, [r5, #3492]
	subs	r2, r2, #1
	movne	r2, #1
.L1362:
	ldr	r3, [r5, #2840]
	ldrb	r3, [r3, #2066]	@ zero_extendqisi2
	cmp	r3, #0
	moveq	r1, #3
	beq	.L1363
	ldr	r3, [r4, #40]
	cmp	r3, #1
	cmpne	r3, #11
	moveq	r1, #1
	bne	.L1400
.L1364:
	ldr	r2, [r4, #44]
	clz	r2, r2
	mov	r2, r2, lsr #5
.L1363:
	ldrb	r3, [r4, #145]	@ zero_extendqisi2
	mov	ip, #2
	ldr	r0, [r4, #48]
	bfi	r3, ip, #4, #2
	ldr	lr, [fp, #-52]
	cmp	r0, #0
	bfi	r3, r1, #2, #2
	ldrb	r0, [r4, #144]	@ zero_extendqisi2
	bfi	r3, r2, #0, #2
	ldrb	ip, [r4, #4]	@ zero_extendqisi2
	strb	r3, [r4, #145]
	bfi	r0, lr, #0, #2
	ldrne	r3, [r4, #16]
	ldrb	r1, [r4, #146]	@ zero_extendqisi2
	ldrb	lr, [r4, #3]	@ zero_extendqisi2
	strne	r3, [r4, #232]
	strb	r0, [r4, #144]
	bfi	r1, lr, #1, #1
	str	ip, [r4, #200]
	strb	r1, [r4, #146]
	ldr	r3, [r5, #2856]
	ldr	r1, [r4, #28]
	ldr	r3, [r3, #604]
	str	r3, [r4, #204]
	ldr	r3, [r5, #2856]
	ldr	r3, [r3, #608]
	str	r3, [r4, #208]
	ldr	r3, [r5, #2856]
	ldr	r3, [r3, #612]
	str	r3, [r4, #212]
	ldr	r0, [r5, #276]
	bl	FSP_GetFsImagePtr
	subs	r5, r0, #0
	beq	.L1356
	ldr	r3, .L1401
	mov	r2, #640
	add	r1, r4, #80
	ldr	r3, [r3, #52]
	blx	r3
	mov	r3, #16
	str	r3, [r5, #296]
	mov	r3, #1
	ldr	r2, [r4, #56]
	strb	r3, [r5, #291]
	cmp	r2, #0
	strb	r3, [r5, #289]
	moveq	r3, #0
	movne	r3, #4
	strb	r3, [r5, #284]
	ldr	r3, [r4, #68]
	str	r3, [r5, #236]
.L1356:
	sub	sp, fp, #40
	ldmfd	sp, {r4, r5, r6, r7, r8, r9, r10, fp, sp, pc}
.L1399:
	ldr	r0, [r5, #276]
	strd	r6, [sp]
	bl	IsPtsRewind
	cmp	r0, #0
	bne	.L1358
	ldrd	r2, [r8, #-8]
	mov	r0, #29
	ldr	r1, .L1401+4
	strd	r6, [sp]
	bl	dprint_vfmw
	ldr	r3, [fp, #-48]
	add	r10, r5, r3, lsl #2
	ldrd	r2, [r8, #-8]
	ldr	r1, [r10, #3208]
	add	r1, r1, #672
	strd	r2, [r1, #-8]
	strd	r6, [r8, #-8]
	b	.L1358
.L1400:
	bic	r3, r3, #8
	cmp	r3, #2
	moveq	r1, #2
	movne	r1, #3
	b	.L1364
.L1402:
	.align	2
.L1401:
	.word	vfmw_Osal_Func_Ptr_S
	.word	.LC106
	UNWIND(.fnend)
	.size	HEVC_GetImagePara, .-HEVC_GetImagePara
	.align	2
	.global	HEVC_CheckOutputImage
	.type	HEVC_CheckOutputImage, %function
HEVC_CheckOutputImage:
	UNWIND(.fnstart)
	@ args = 0, pretend = 0, frame = 0
	@ frame_needed = 1, uses_anonymous_args = 0
	UNWIND(.movsp ip)
	mov	ip, sp
	stmfd	sp!, {fp, ip, lr, pc}
	UNWIND(.pad #4)
	UNWIND(.save {fp, ip, lr})
	UNWIND(.setfp fp, ip, #-4)
	sub	fp, ip, #4
	cmp	r1, #19
	bhi	.L1405
	mov	r3, #720
	mla	r1, r3, r1, r0
	add	r1, r1, #13696
	ldrb	r0, [r1, #33]	@ zero_extendqisi2
	adds	r0, r0, #0
	movne	r0, #1
	ldmfd	sp, {fp, sp, pc}
.L1405:
	mvn	r0, #0
	ldmfd	sp, {fp, sp, pc}
	UNWIND(.fnend)
	.size	HEVC_CheckOutputImage, .-HEVC_CheckOutputImage
	.align	2
	.global	HEVC_DECRecycleImage
	.type	HEVC_DECRecycleImage, %function
HEVC_DECRecycleImage:
	UNWIND(.fnstart)
	@ args = 0, pretend = 0, frame = 0
	@ frame_needed = 1, uses_anonymous_args = 0
	UNWIND(.movsp ip)
	mov	ip, sp
	stmfd	sp!, {r4, r5, r6, r7, r8, r9, fp, ip, lr, pc}
	UNWIND(.pad #4)
	UNWIND(.save {r4, r5, r6, r7, r8, r9, fp, ip, lr})
	UNWIND(.setfp fp, ip, #-4)
	sub	fp, ip, #4
	mov	r8, r0
	ldr	r0, [r0, #276]
	mov	r9, r1
	bl	FSP_GetLogicFs
	cmp	r0, #0
	beq	.L1411
	ldrsb	r3, [r0, #1]
	cmp	r3, #0
	addne	r4, r0, #576
	addne	r5, r0, #608
	movne	r6, #0
	movne	r7, #0
	beq	.L1416
.L1410:
	ldr	r1, [r4, #8]!
	cmp	r1, #0
	beq	.L1409
	ldr	r0, [r8, #276]
	bl	FreeUsdByDec
	strd	r6, [r4]
.L1409:
	cmp	r4, r5
	bne	.L1410
	ldr	r0, [r8, #276]
	mov	r1, r9
	mov	r2, #0
	bl	FSP_SetDisplay
	mov	r0, #0
	ldmfd	sp, {r4, r5, r6, r7, r8, r9, fp, sp, pc}
.L1416:
	ldr	r1, .L1417
	mov	r0, #1
	bl	dprint_vfmw
	mvn	r0, #0
	ldmfd	sp, {r4, r5, r6, r7, r8, r9, fp, sp, pc}
.L1411:
	mvn	r0, #0
	ldmfd	sp, {r4, r5, r6, r7, r8, r9, fp, sp, pc}
.L1418:
	.align	2
.L1417:
	.word	.LC107
	UNWIND(.fnend)
	.size	HEVC_DECRecycleImage, .-HEVC_DECRecycleImage
	.align	2
	.global	HEVC_GetSLHDR1MasteringDisplayInfo
	.type	HEVC_GetSLHDR1MasteringDisplayInfo, %function
HEVC_GetSLHDR1MasteringDisplayInfo:
	UNWIND(.fnstart)
	@ args = 0, pretend = 0, frame = 0
	@ frame_needed = 1, uses_anonymous_args = 0
	UNWIND(.movsp ip)
	mov	ip, sp
	stmfd	sp!, {r4, fp, ip, lr, pc}
	UNWIND(.pad #4)
	UNWIND(.save {r4, fp, ip, lr})
	UNWIND(.setfp fp, ip, #-4)
	sub	fp, ip, #4
	ldr	r3, [r1, #572]
	movw	r2, #14999
	cmp	r3, r2
	bhi	.L1423
	sub	r2, r3, #8448
	movw	ip, #4749
	sub	r2, r2, #52
	cmp	r2, ip
	movls	r3, #1
	strlsb	r3, [r0, #3]
	bls	.L1421
	sub	r3, r3, #13248
	movw	r2, #1749
	sub	r3, r3, #2
	cmp	r3, r2
	bhi	.L1423
	mov	r3, #2
	strb	r3, [r0, #3]
.L1421:
	ldr	r3, [r1, #604]
	movw	r2, #56963
	movt	r2, 17179
	mov	ip, #50
	add	r3, r3, #249856
	movw	lr, #10000
	add	r3, r3, #144
	movw	r4, #2063
	movt	r4, 1526
	umull	r2, r3, r3, r2
	mov	r3, r3, lsr #17
	mul	r3, ip, r3
	cmp	r3, lr
	movcs	r3, lr
	strh	r3, [r0, #4]	@ movhi
	ldr	r3, [r1, #608]
	cmp	r3, r4
	movwls	r2, #5977
	movtls	r2, 53687
	umullls	r2, r3, r3, r2
	ubfxls	lr, r3, #13, #16
	strh	lr, [r0, #6]	@ movhi
	ldmfd	sp, {r4, fp, sp, pc}
.L1423:
	mov	r3, #0
	strb	r3, [r0, #3]
	b	.L1421
	UNWIND(.fnend)
	.size	HEVC_GetSLHDR1MasteringDisplayInfo, .-HEVC_GetSLHDR1MasteringDisplayInfo
	.align	2
	.global	HEVC_PrintSLHDR1Info
	.type	HEVC_PrintSLHDR1Info, %function
HEVC_PrintSLHDR1Info:
	UNWIND(.fnstart)
	@ args = 0, pretend = 0, frame = 0
	@ frame_needed = 1, uses_anonymous_args = 0
	UNWIND(.movsp ip)
	mov	ip, sp
	stmfd	sp!, {r4, r5, r6, r7, fp, ip, lr, pc}
	UNWIND(.pad #4)
	UNWIND(.save {r4, r5, r6, r7, fp, ip, lr})
	UNWIND(.setfp fp, ip, #-4)
	sub	fp, ip, #4
	ldr	r1, .L1445
	mov	r4, r0
	ldrb	r2, [r0]	@ zero_extendqisi2
	mov	r0, #32
	bl	dprint_vfmw
	ldrb	r2, [r4, #1]	@ zero_extendqisi2
	ldr	r1, .L1445+4
	mov	r0, #32
	bl	dprint_vfmw
	ldrb	r2, [r4, #2]	@ zero_extendqisi2
	ldr	r1, .L1445+8
	mov	r0, #32
	bl	dprint_vfmw
	ldrb	r2, [r4, #3]	@ zero_extendqisi2
	ldr	r1, .L1445+12
	mov	r0, #32
	bl	dprint_vfmw
	ldrh	r2, [r4, #4]
	ldr	r1, .L1445+16
	mov	r0, #32
	bl	dprint_vfmw
	ldrh	r2, [r4, #6]
	ldr	r1, .L1445+20
	mov	r0, #32
	bl	dprint_vfmw
	ldrb	r2, [r4, #8]	@ zero_extendqisi2
	ldr	r1, .L1445+24
	mov	r0, #32
	bl	dprint_vfmw
	ldrb	r2, [r4, #9]	@ zero_extendqisi2
	ldr	r1, .L1445+28
	mov	r0, #32
	bl	dprint_vfmw
	ldrb	r5, [r4, #1]	@ zero_extendqisi2
	ldrb	r2, [r4, #10]	@ zero_extendqisi2
	mov	r0, #32
	cmp	r5, #0
	bne	.L1427
	ldr	r1, .L1445+32
	bl	dprint_vfmw
	ldrb	r2, [r4, #11]	@ zero_extendqisi2
	ldr	r1, .L1445+36
	mov	r0, #32
	bl	dprint_vfmw
	ldrb	r2, [r4, #12]	@ zero_extendqisi2
	ldr	r1, .L1445+40
	mov	r0, #32
	bl	dprint_vfmw
	ldrb	r2, [r4, #13]	@ zero_extendqisi2
	ldr	r1, .L1445+44
	mov	r0, #32
	bl	dprint_vfmw
	ldrb	r2, [r4, #14]	@ zero_extendqisi2
	ldr	r1, .L1445+48
	mov	r0, #32
	bl	dprint_vfmw
	ldrb	r2, [r4, #15]	@ zero_extendqisi2
	ldr	r1, .L1445+52
	mov	r0, #32
	bl	dprint_vfmw
	ldrb	r3, [r4, #15]	@ zero_extendqisi2
	cmp	r3, #0
	addne	r7, r4, #15
	addne	r6, r4, #26
	beq	.L1432
.L1431:
	mov	r3, r5
	ldrb	r2, [r7, #1]!	@ zero_extendqisi2
	ldr	r1, .L1445+56
	mov	r0, #32
	bl	dprint_vfmw
	mov	r3, r5
	ldrb	r2, [r6, #1]!	@ zero_extendqisi2
	mov	r0, #32
	ldr	r1, .L1445+60
	add	r5, r5, #1
	bl	dprint_vfmw
	ldrb	r3, [r4, #15]	@ zero_extendqisi2
	cmp	r3, r5
	bhi	.L1431
.L1432:
	ldrb	r2, [r4, #38]	@ zero_extendqisi2
	mov	r0, #32
	ldr	r1, .L1445+64
	bl	dprint_vfmw
	ldrb	r3, [r4, #38]	@ zero_extendqisi2
	cmp	r3, #0
	addne	r7, r4, #38
	addne	r6, r4, #45
	movne	r5, #0
	beq	.L1433
.L1434:
	mov	r3, r5
	ldrb	r2, [r7, #1]!	@ zero_extendqisi2
	ldr	r1, .L1445+68
	mov	r0, #32
	bl	dprint_vfmw
	mov	r3, r5
	ldrb	r2, [r6, #1]!	@ zero_extendqisi2
	mov	r0, #32
	ldr	r1, .L1445+72
	add	r5, r5, #1
	bl	dprint_vfmw
	ldrb	r3, [r4, #38]	@ zero_extendqisi2
	cmp	r3, r5
	bhi	.L1434
.L1433:
	movw	r2, #290
	ldr	r1, .L1445+76
	mov	r0, #32
	sub	sp, fp, #28
	ldmfd	sp, {r4, r5, r6, r7, fp, sp, lr}
	b	dprint_vfmw
.L1427:
	ldr	r1, .L1445+80
	bl	dprint_vfmw
	ldrb	r3, [r4, #10]	@ zero_extendqisi2
	cmp	r3, #0
	addne	r7, r4, #10
	addne	r6, r4, #78
	movne	r5, #0
	beq	.L1439
.L1438:
	mov	r2, r5
	ldrh	r3, [r7, #2]!
	ldr	r1, .L1445+84
	mov	r0, #32
	bl	dprint_vfmw
	ldrh	r3, [r6, #2]!
	mov	r2, r5
	ldr	r1, .L1445+88
	mov	r0, #32
	add	r5, r5, #1
	bl	dprint_vfmw
	ldrb	r3, [r4, #10]	@ zero_extendqisi2
	cmp	r3, r5
	bhi	.L1438
.L1439:
	ldrb	r2, [r4, #148]	@ zero_extendqisi2
	mov	r0, #32
	ldr	r1, .L1445+92
	bl	dprint_vfmw
	ldrb	r3, [r4, #148]	@ zero_extendqisi2
	cmp	r3, #0
	addne	r7, r4, #148
	addne	r6, r4, #216
	movne	r5, #0
	beq	.L1437
.L1440:
	mov	r3, r5
	ldrh	r2, [r7, #2]!
	ldr	r1, .L1445+96
	mov	r0, #32
	bl	dprint_vfmw
	mov	r3, r5
	ldrh	r2, [r6, #2]!
	mov	r0, #32
	ldr	r1, .L1445+100
	add	r5, r5, #1
	bl	dprint_vfmw
	ldrb	r3, [r4, #148]	@ zero_extendqisi2
	cmp	r3, r5
	bhi	.L1440
.L1437:
	movw	r3, #286
	ldr	r1, .L1445+104
	ldrh	r2, [r4, r3]
	add	r4, r4, #288
	mov	r0, #32
	bl	dprint_vfmw
	ldr	r1, .L1445+108
	ldrh	r2, [r4]
	mov	r0, #32
	bl	dprint_vfmw
	b	.L1433
.L1446:
	.align	2
.L1445:
	.word	.LC108
	.word	.LC109
	.word	.LC110
	.word	.LC111
	.word	.LC112
	.word	.LC113
	.word	.LC114
	.word	.LC115
	.word	.LC116
	.word	.LC117
	.word	.LC118
	.word	.LC119
	.word	.LC120
	.word	.LC121
	.word	.LC123
	.word	.LC124
	.word	.LC122
	.word	.LC125
	.word	.LC126
	.word	.LC135
	.word	.LC127
	.word	.LC129
	.word	.LC130
	.word	.LC128
	.word	.LC133
	.word	.LC134
	.word	.LC131
	.word	.LC132
	UNWIND(.fnend)
	.size	HEVC_PrintSLHDR1Info, .-HEVC_PrintSLHDR1Info
	.align	2
	.global	HEVC_GetSLHDR1Info
	.type	HEVC_GetSLHDR1Info, %function
HEVC_GetSLHDR1Info:
	UNWIND(.fnstart)
	@ args = 0, pretend = 0, frame = 296
	@ frame_needed = 1, uses_anonymous_args = 0
	UNWIND(.movsp ip)
	mov	ip, sp
	stmfd	sp!, {r4, r5, r6, r7, fp, ip, lr, pc}
	UNWIND(.pad #4)
	UNWIND(.save {r4, r5, r6, r7, fp, ip, lr})
	UNWIND(.setfp fp, ip, #-4)
	sub	fp, ip, #4
	UNWIND(.pad #312)
	sub	sp, sp, #312
	mov	r4, r2
	mov	r6, r1
	movw	r2, #290
	mov	r1, #0
	mov	r5, r0
	sub	r0, fp, #320
	bl	memset
	ldrb	r3, [r6, #1]	@ zero_extendqisi2
	ldrb	r2, [r4, #56]	@ zero_extendqisi2
	cmp	r3, #0
	ldrb	r1, [r4, #568]	@ zero_extendqisi2
	beq	.L1487
	cmp	r2, #0
	bne	.L1489
.L1487:
	ldrb	ip, [r4, #59]	@ zero_extendqisi2
	ldrb	r0, [r4, #128]	@ zero_extendqisi2
.L1449:
	str	r0, [sp, #12]
	mov	r0, #22
	str	r1, [sp, #4]
	str	r2, [sp]
	str	ip, [sp, #8]
	ldr	r2, .L1492
	ldr	r1, .L1492+4
	bl	dprint_vfmw
	mov	r3, #0
	strb	r3, [r5, #458]
.L1447:
	sub	sp, fp, #28
	ldmfd	sp, {r4, r5, r6, r7, fp, sp, pc}
.L1489:
	cmp	r1, #0
	beq	.L1487
	ldrb	r0, [r4, #59]	@ zero_extendqisi2
	cmp	r0, #0
	bne	.L1452
	ldrb	r0, [r4, #128]	@ zero_extendqisi2
	cmp	r0, #0
	beq	.L1490
.L1452:
	mov	r3, #1
	strb	r3, [r5, #458]
	ldr	r0, [r6, #24]
	ldrb	r1, [r4, #57]	@ zero_extendqisi2
	ldrb	r2, [r4, #58]	@ zero_extendqisi2
	cmp	r0, #9
	strb	r1, [fp, #-320]
	strb	r2, [fp, #-319]
	bne	.L1454
	ldr	r2, [r6, #32]
	cmp	r2, #9
	streqb	r3, [fp, #-312]
.L1454:
	ldrb	r3, [r4, #60]	@ zero_extendqisi2
	cmp	r3, #1
	beq	.L1455
	ldrb	r2, [r4, #129]	@ zero_extendqisi2
	cmp	r2, #1
	beq	.L1455
	cmp	r2, #9
	cmpne	r3, #9
	ldrneb	r3, [fp, #-312]	@ zero_extendqisi2
	moveq	r3, #1
	strb	r3, [fp, #-318]
.L1455:
	mov	r1, r4
	sub	r0, fp, #320
	bl	HEVC_GetSLHDR1MasteringDisplayInfo
	ldrb	r3, [fp, #-318]	@ zero_extendqisi2
	ldrb	r2, [fp, #-312]	@ zero_extendqisi2
	cmp	r2, r3
	ldreqb	r3, [fp, #-317]	@ zero_extendqisi2
	movne	r3, #0
	strb	r3, [fp, #-311]
	ldrb	r3, [fp, #-319]	@ zero_extendqisi2
	cmp	r3, #0
	bne	.L1459
	ldrb	r2, [r4, #61]	@ zero_extendqisi2
	ldrb	r7, [r4, #66]	@ zero_extendqisi2
	ldrb	ip, [r4, #62]	@ zero_extendqisi2
	ldrb	r0, [r4, #63]	@ zero_extendqisi2
	cmp	r7, #0
	ldrb	r1, [r4, #64]	@ zero_extendqisi2
	strb	r2, [fp, #-310]
	ldrb	r2, [r4, #65]	@ zero_extendqisi2
	strb	r7, [fp, #-305]
	strb	ip, [fp, #-309]
	strb	r0, [fp, #-308]
	strb	r1, [fp, #-307]
	strb	r2, [fp, #-306]
	beq	.L1464
	sub	r2, fp, #320
	add	ip, r4, #66
	add	r0, r2, #15
	add	r1, r4, #81
	add	r2, r2, #26
.L1463:
	add	r3, r3, #1
	ldrb	r6, [ip, #1]!	@ zero_extendqisi2
	ldrb	lr, [r1, #1]!	@ zero_extendqisi2
	cmp	r3, r7
	strb	r6, [r0, #1]!
	strb	lr, [r2, #1]!
	bne	.L1463
.L1464:
	ldrb	r6, [r4, #97]	@ zero_extendqisi2
	cmp	r6, #0
	strb	r6, [fp, #-282]
	beq	.L1462
	sub	r1, fp, #280
	sub	r2, fp, #272
	add	r0, r4, #97
	sub	r1, r1, #2
	add	r4, r4, #112
	sub	r2, r2, #3
	mov	r3, #0
.L1467:
	add	r3, r3, #1
	ldrb	lr, [r0, #1]!	@ zero_extendqisi2
	ldrb	ip, [r4, #1]!	@ zero_extendqisi2
	cmp	r3, r6
	strb	lr, [r1, #1]!
	strb	ip, [r2, #1]!
	bne	.L1467
.L1462:
	ldr	r3, [r5, #464]
	cmp	r3, #0
	bne	.L1491
	ldr	r2, .L1492
	mov	r0, #1
	ldr	r1, .L1492+8
	bl	dprint_vfmw
	b	.L1447
.L1459:
	ldrb	r7, [r4, #168]	@ zero_extendqisi2
	ldr	r2, [r4, #136]
	add	r7, r7, #1
	ldr	r3, [r4, #140]
	uxtb	r7, r7
	strh	r2, [fp, #-34]	@ movhi
	cmp	r7, #0
	strb	r7, [fp, #-310]
	strh	r3, [fp, #-32]	@ movhi
	beq	.L1471
	sub	r3, fp, #320
	add	ip, r4, #170
	add	r1, r4, #368
	sub	r2, fp, #242
	add	r0, r3, #10
	mov	r3, #0
.L1470:
	add	r3, r3, #1
	ldrh	r6, [ip, #2]!
	ldrh	lr, [r1, #2]!
	cmp	r3, r7
	strh	r6, [r0, #2]!	@ movhi
	strh	lr, [r2, #2]!	@ movhi
	bcc	.L1470
.L1471:
	ldrb	r6, [r4, #169]	@ zero_extendqisi2
	add	r6, r6, #1
	uxtb	r6, r6
	strb	r6, [fp, #-172]
	cmp	r6, #0
	beq	.L1462
	add	r2, r4, #432
	sub	r0, fp, #172
	add	r4, r4, #236
	add	r2, r2, #2
	sub	r1, fp, #104
	mov	r3, #0
.L1472:
	add	r3, r3, #1
	ldrh	lr, [r4, #2]!
	ldrh	ip, [r2, #2]!
	cmp	r3, r6
	strh	lr, [r0, #2]!	@ movhi
	strh	ip, [r1, #2]!	@ movhi
	bcc	.L1472
	b	.L1462
.L1491:
	ldr	r3, .L1492+12
	sub	r1, fp, #320
	movw	r2, #290
	ldr	r0, [r5, #472]
	ldr	r3, [r3, #52]
	blx	r3
	movw	r3, #290
	str	r3, [r5, #460]
	b	.L1447
.L1490:
	mov	ip, r0
	b	.L1449
.L1493:
	.align	2
.L1492:
	.word	.LANCHOR0+464
	.word	.LC136
	.word	.LC137
	.word	vfmw_Osal_Func_Ptr_S
	UNWIND(.fnend)
	.size	HEVC_GetSLHDR1Info, .-HEVC_GetSLHDR1Info
	.align	2
	.global	HEVC_ConvertHDRInfo
	.type	HEVC_ConvertHDRInfo, %function
HEVC_ConvertHDRInfo:
	UNWIND(.fnstart)
	@ args = 0, pretend = 0, frame = 0
	@ frame_needed = 1, uses_anonymous_args = 0
	UNWIND(.movsp ip)
	mov	ip, sp
	stmfd	sp!, {r4, r5, r6, fp, ip, lr, pc}
	UNWIND(.pad #4)
	UNWIND(.save {r4, r5, r6, fp, ip, lr})
	UNWIND(.setfp fp, ip, #-4)
	sub	fp, ip, #4
	ldrb	r4, [r1]	@ zero_extendqisi2
	mov	r3, r0
	mov	r0, r2
	add	lr, r3, #484
	add	lr, lr, #2
	mov	ip, r2
	strb	r4, [r3, #480]
	add	r4, r3, #492
	ldr	r6, [r1, #24]
	add	r5, r2, #580
	mov	r2, #0
	strb	r6, [r3, #481]
	ldr	r6, [r1, #32]
	strb	r6, [r3, #482]
	ldr	r6, [r1, #28]
	str	r6, [r3, #484]
	ldrb	r6, [r0, #568]!	@ zero_extendqisi2
	strb	r6, [r3, #456]
.L1495:
	ldr	r6, [r0, #4]!
	add	r2, r2, #1
	cmp	r2, #3
	strh	r6, [lr, #2]!	@ movhi
	ldr	r6, [r5, #4]!
	strh	r6, [r4, #2]!	@ movhi
	bne	.L1495
	ldr	r0, [ip, #596]
	add	lr, r3, #456
	movw	r5, #614
	add	r4, ip, #616
	mov	r2, ip
	strh	r0, [lr, #44]	@ movhi
	mov	r0, r3
	ldr	r6, [ip, #600]
	strh	r6, [lr, #46]	@ movhi
	ldr	lr, [ip, #604]
	str	lr, [r3, #504]
	ldr	lr, [ip, #608]
	str	lr, [r3, #508]
	ldrb	lr, [ip, #612]	@ zero_extendqisi2
	strb	lr, [r3, #457]
	ldrh	lr, [ip, r5]
	str	lr, [r3, #512]
	ldrh	lr, [r4]
	str	lr, [r3, #516]
	ldrb	ip, [ip, #618]	@ zero_extendqisi2
	strb	ip, [r3, #520]
	sub	sp, fp, #24
	ldmfd	sp, {r4, r5, r6, fp, sp, lr}
	b	HEVC_GetSLHDR1Info
	UNWIND(.fnend)
	.size	HEVC_ConvertHDRInfo, .-HEVC_ConvertHDRInfo
	.align	2
	.global	HEVC_AllocFrameStore
	.type	HEVC_AllocFrameStore, %function
HEVC_AllocFrameStore:
	UNWIND(.fnstart)
	@ args = 0, pretend = 0, frame = 0
	@ frame_needed = 1, uses_anonymous_args = 0
	UNWIND(.movsp ip)
	mov	ip, sp
	stmfd	sp!, {r4, r5, r6, r7, r8, r9, fp, ip, lr, pc}
	UNWIND(.pad #4)
	UNWIND(.save {r4, r5, r6, r7, r8, r9, fp, ip, lr})
	UNWIND(.setfp fp, ip, #-4)
	sub	fp, ip, #4
	add	r4, r0, #4096
	ldr	r3, [r0, #2820]
	movw	ip, #5036
	ldr	r1, [r0, #2816]
	ldr	r2, [r4, #748]
	movw	r5, #12668
	mov	r6, r0
	add	r0, r0, #13696
	add	r0, r0, #32
	mla	r3, ip, r2, r3
	mov	r2, #0
	mov	lr, r2
	ldr	r3, [r3, #32]
	strb	r2, [r4, #9]
	mla	r5, r5, r3, r1
.L1502:
	ldr	r3, [r0, #48]
	cmp	r3, #0
	bne	.L1498
	cmp	r0, #0
	beq	.L1509
	ldr	ip, [r6, #3040]
	cmp	ip, #0
	beq	.L1509
	ldr	r2, [r6, #3208]
	cmp	r2, r0
	beq	.L1498
	add	r2, r6, #3200
	add	r2, r2, #8
	b	.L1500
.L1501:
	ldr	r1, [r2, #4]!
	cmp	r1, r0
	beq	.L1498
.L1500:
	add	r3, r3, #1
	cmp	r3, ip
	bne	.L1501
.L1509:
	mov	r8, #720
	mov	r7, r0
	mla	r8, r8, lr, r6
	mov	r3, #101
	mov	r2, #640
	str	r3, [r4, #48]
	add	r0, r4, #72
	mov	r3, #1
	add	r1, r8, #13760
	strb	r3, [r4, #9]
	add	r1, r1, #48
	mov	r9, #0
	bl	memcpy
	add	r3, r8, #13696
	movw	r2, #13744
	str	r7, [r4, #68]
	str	r9, [r4, #224]
	str	r9, [r8, r2]
	strb	r9, [r3, #34]
	strb	r9, [r7]
	ldr	r3, [r4, #68]
	str	r9, [r3, #60]
	ldr	r3, [r4, #68]
	str	r9, [r3, #64]
	ldr	r3, [r4, #68]
	str	r9, [r3, #52]
	ldrb	r1, [r4, #9]	@ zero_extendqisi2
	cmp	r1, #1
	bne	.L1506
	ldr	r0, [r6, #276]
	bl	FSP_NewLogicFs
	mov	r8, r0
	mov	r1, r0
	ldr	r0, [r6, #276]
	bl	FSP_GetLogicFs
	mvn	r3, r8
	mov	r3, r3, lsr #31
	cmp	r0, #0
	mov	r7, r0
	moveq	r3, #0
	cmp	r3, #0
	beq	.L1504
	add	r2, r6, #3472
	add	r1, r5, #2064
	add	r2, r2, #8
	bl	HEVC_ConvertHDRInfo
	ldr	r3, [r6, #2856]
	ldr	r3, [r3, #28]
	cmp	r3, #25
	beq	.L1513
.L1505:
	ldr	r5, .L1514
	add	r1, r7, #40
	ldr	r0, [r4, #68]
	mov	r2, #640
	ldr	r3, [r5, #52]
	add	r0, r0, #80
	blx	r3
	ldr	r1, [r4, #68]
	add	r0, r6, #4160
	ldr	r3, [r5, #52]
	add	r1, r1, #80
	mov	r2, #640
	add	r0, r0, #8
	blx	r3
	ldr	r3, [r4, #68]
	mov	r0, #0
	str	r8, [r3, #28]
	ldrsb	r3, [r7, #4]
	str	r3, [r4, #44]
	ldmfd	sp, {r4, r5, r6, r7, r8, r9, fp, sp, pc}
.L1498:
	add	lr, lr, #1
	add	r0, r0, #720
	cmp	lr, #20
	bne	.L1502
.L1506:
	ldr	r1, .L1514+4
	mov	r0, #0
	bl	dprint_vfmw
	mvn	r0, #0
	ldmfd	sp, {r4, r5, r6, r7, r8, r9, fp, sp, pc}
.L1513:
	ldr	r1, [r6, #2840]
	ldr	r5, [r7, #152]
	ldr	r3, [r7, #76]
	ldr	r2, [r1, #68]
	ldr	r1, [r1, #64]
	str	r9, [r7, #280]
	mul	r5, r5, r2
	str	r2, [r7, #112]
	str	r1, [r7, #108]
	str	r9, [r7, #284]
	add	r3, r5, r3
	str	r9, [r7, #288]
	str	r3, [r7, #80]
	mov	r0, r3
	str	r9, [r7, #292]
	str	r9, [r7, #296]
	bl	MEM_Phy2Vir
	ldr	r2, [r7, #60]
	ldr	r3, [r7, #156]
	add	r5, r5, r2
	str	r9, [r7, #556]
	str	r5, [r7, #64]
	add	r5, r5, r3
	str	r5, [r7, #72]
	str	r0, [r7, #552]
	b	.L1505
.L1504:
	strb	r3, [r4, #9]
	mov	r0, r3
	ldr	r1, .L1514+8
	bl	dprint_vfmw
	mvn	r0, #0
	ldmfd	sp, {r4, r5, r6, r7, r8, r9, fp, sp, pc}
.L1515:
	.align	2
.L1514:
	.word	vfmw_Osal_Func_Ptr_S
	.word	.LC138
	.word	.LC139
	UNWIND(.fnend)
	.size	HEVC_AllocFrameStore, .-HEVC_AllocFrameStore
	.align	2
	.global	HEVC_IsVoFinish
	.type	HEVC_IsVoFinish, %function
HEVC_IsVoFinish:
	UNWIND(.fnstart)
	@ args = 0, pretend = 0, frame = 0
	@ frame_needed = 1, uses_anonymous_args = 0
	UNWIND(.movsp ip)
	mov	ip, sp
	stmfd	sp!, {r4, r5, fp, ip, lr, pc}
	UNWIND(.pad #4)
	UNWIND(.save {r4, r5, fp, ip, lr})
	UNWIND(.setfp fp, ip, #-4)
	sub	fp, ip, #4
	mov	r5, r0
	ldr	r0, [r0, #276]
	bl	FSP_GetFspType
	cmn	r0, #1
	mov	r4, r0
	movne	r4, #0
	bne	.L1520
	b	.L1523
.L1519:
	ldrsb	r3, [r0, #1]
	cmp	r3, #3
	beq	.L1521
	cmp	r4, #32
	beq	.L1524
.L1520:
	mov	r1, r4
	ldr	r0, [r5, #276]
	bl	FSP_GetLogicFs
	add	r4, r4, #1
	cmp	r0, #0
	bne	.L1519
	ldr	r1, .L1525
	mov	r0, #1
	bl	dprint_vfmw
	mvn	r0, #0
	ldmfd	sp, {r4, r5, fp, sp, pc}
.L1523:
	ldr	r1, .L1525+4
	mov	r0, #1
	bl	dprint_vfmw
	mov	r0, r4
	ldmfd	sp, {r4, r5, fp, sp, pc}
.L1521:
	mov	r0, #0
	ldmfd	sp, {r4, r5, fp, sp, pc}
.L1524:
	mov	r0, #1
	ldmfd	sp, {r4, r5, fp, sp, pc}
.L1526:
	.align	2
.L1525:
	.word	.LC141
	.word	.LC140
	UNWIND(.fnend)
	.size	HEVC_IsVoFinish, .-HEVC_IsVoFinish
	.align	2
	.global	HEVC_GetBackPicFromVOQueue
	.type	HEVC_GetBackPicFromVOQueue, %function
HEVC_GetBackPicFromVOQueue:
	UNWIND(.fnstart)
	@ args = 0, pretend = 0, frame = 0
	@ frame_needed = 1, uses_anonymous_args = 0
	UNWIND(.movsp ip)
	mov	ip, sp
	stmfd	sp!, {r4, r5, r6, r7, r8, r9, fp, ip, lr, pc}
	UNWIND(.pad #4)
	UNWIND(.save {r4, r5, r6, r7, r8, r9, fp, ip, lr})
	UNWIND(.setfp fp, ip, #-4)
	sub	fp, ip, #4
	mov	r8, r0
	add	r0, r0, #6144
	add	r0, r0, #40
	add	r5, r8, #14336
	bl	ResetVoQueue
	add	r9, r8, #28672
	add	r5, r5, #40
	add	r9, r9, #104
	mov	r6, #0
	mov	r7, #0
.L1530:
	sub	r4, r5, #32
	mov	r3, #0
	strb	r3, [r5, #-647]
	str	r3, [r5, #-600]
.L1529:
	ldr	r1, [r4, #8]!
	cmp	r1, #0
	beq	.L1528
	ldr	r0, [r8, #276]
	bl	FreeUsdByDec
	strd	r6, [r4]
.L1528:
	cmp	r4, r5
	bne	.L1529
	add	r5, r4, #720
	cmp	r5, r9
	bne	.L1530
	ldr	r2, [r8, #184]
	cmp	r2, #0
	ldmeqfd	sp, {r4, r5, r6, r7, r8, r9, fp, sp, pc}
	add	r8, r8, #2160
	mov	r3, #0
	add	r8, r8, #4
	mov	r1, r3
.L1532:
	add	r3, r3, #1
	str	r1, [r8, #4]!
	cmp	r3, r2
	bne	.L1532
	ldmfd	sp, {r4, r5, r6, r7, r8, r9, fp, sp, pc}
	UNWIND(.fnend)
	.size	HEVC_GetBackPicFromVOQueue, .-HEVC_GetBackPicFromVOQueue
	.align	2
	.global	HEVC_RemoveFrameStoreOutDPB
	.type	HEVC_RemoveFrameStoreOutDPB, %function
HEVC_RemoveFrameStoreOutDPB:
	UNWIND(.fnstart)
	@ args = 0, pretend = 0, frame = 0
	@ frame_needed = 1, uses_anonymous_args = 0
	UNWIND(.movsp ip)
	mov	ip, sp
	stmfd	sp!, {r4, r5, r6, r7, fp, ip, lr, pc}
	UNWIND(.pad #4)
	UNWIND(.save {r4, r5, r6, r7, fp, ip, lr})
	UNWIND(.setfp fp, ip, #-4)
	sub	fp, ip, #4
	add	r6, r0, r1, lsl #2
	mov	r7, #0
	mov	r4, r1
	mov	r5, r0
	ldr	r3, [r6, #3208]
	str	r7, [r3, #48]
	ldr	r3, [r6, #3208]
	ldr	r0, [r0, #276]
	ldr	r1, [r3, #28]
	bl	FSP_GetLogicFs
	cmp	r0, #0
	beq	.L1541
	ldrsb	r3, [r0, #1]
	cmp	r3, #3
	beq	.L1542
	ldr	r3, [r6, #3208]
	mov	r2, r7
	ldr	r0, [r5, #276]
	ldr	r1, [r3, #28]
	bl	FSP_SetDisplay
.L1542:
	ldr	r3, [r6, #3208]
	mov	r2, #0
	ldr	r0, [r5, #276]
	ldr	r1, [r3, #28]
	bl	FSP_SetRef
.L1541:
	ldr	r1, [r5, #3040]
	sub	r1, r1, #1
	cmp	r4, r1
	addls	r3, r4, #800
	addls	r3, r3, #2
	addls	r3, r5, r3, lsl #2
	bhi	.L1545
.L1544:
	add	r4, r4, #1
	ldr	r2, [r3, #4]!
	cmp	r4, r1
	str	r2, [r3, #-4]
	bls	.L1544
.L1545:
	add	r3, r1, #800
	mov	r2, #0
	add	r3, r5, r3, lsl #2
	str	r2, [r3, #8]
	str	r1, [r5, #3040]
	ldmfd	sp, {r4, r5, r6, r7, fp, sp, pc}
	UNWIND(.fnend)
	.size	HEVC_RemoveFrameStoreOutDPB, .-HEVC_RemoveFrameStoreOutDPB
	.align	2
	.global	HEVC_RemoveDummyFrame
	.type	HEVC_RemoveDummyFrame, %function
HEVC_RemoveDummyFrame:
	UNWIND(.fnstart)
	@ args = 0, pretend = 0, frame = 0
	@ frame_needed = 1, uses_anonymous_args = 0
	UNWIND(.movsp ip)
	mov	ip, sp
	stmfd	sp!, {r4, r5, r6, r7, fp, ip, lr, pc}
	UNWIND(.pad #4)
	UNWIND(.save {r4, r5, r6, r7, fp, ip, lr})
	UNWIND(.setfp fp, ip, #-4)
	sub	fp, ip, #4
	ldr	r1, [r0, #3040]
	mov	r5, r0
	cmp	r1, #0
	ldmeqfd	sp, {r4, r5, r6, r7, fp, sp, pc}
	mov	r6, #0
	mov	r4, r6
	mov	r7, r6
	b	.L1557
.L1556:
	add	r4, r4, #1
	cmp	r4, r1
	mov	r6, r4
	bcs	.L1563
.L1557:
	add	r3, r5, r4, lsl #2
	ldr	r3, [r3, #3208]
	ldrb	r2, [r3]	@ zero_extendqisi2
	cmp	r2, #0
	beq	.L1556
	mov	r1, r6
	strb	r7, [r3]
	mov	r0, r5
	sub	r4, r4, #1
	bl	HEVC_RemoveApcStore
	mov	r1, r6
	mov	r0, r5
	add	r4, r4, #1
	bl	HEVC_RemoveFrameStoreOutDPB
	ldr	r1, [r5, #3040]
	mov	r6, r4
	cmp	r4, r1
	bcc	.L1557
.L1563:
	ldmfd	sp, {r4, r5, r6, r7, fp, sp, pc}
	UNWIND(.fnend)
	.size	HEVC_RemoveDummyFrame, .-HEVC_RemoveDummyFrame
	.align	2
	.global	HEVC_RemoveUnUsedFrameStore
	.type	HEVC_RemoveUnUsedFrameStore, %function
HEVC_RemoveUnUsedFrameStore:
	UNWIND(.fnstart)
	@ args = 0, pretend = 0, frame = 0
	@ frame_needed = 1, uses_anonymous_args = 0
	UNWIND(.movsp ip)
	mov	ip, sp
	stmfd	sp!, {r3, r4, r5, r6, r7, r8, r9, r10, fp, ip, lr, pc}
	UNWIND(.pad #4)
	UNWIND(.save {r3, r4, r5, r6, r7, r8, r9, r10, fp, ip, lr})
	UNWIND(.setfp fp, ip, #-4)
	sub	fp, ip, #4
	ldr	r5, [r0, #3040]
	mov	r10, r0
	cmp	r5, #0
	beq	.L1573
	mov	r6, #0
	mvn	r8, #0
	mov	r9, r6
	mov	r4, r6
	b	.L1572
.L1583:
	ldrsb	r2, [r0, #1]
	cmp	r2, #0
	cmpne	r2, #3
	ldr	r2, [r7, #3208]
	bne	.L1568
	ldr	r0, [r2, #52]
	cmp	r0, #1
	beq	.L1568
	str	r8, [r2, #28]
	mov	r3, #1
	ldr	r2, [r7, #3208]
	strb	r1, [r2, #1]
	ldr	r2, [r7, #3208]
	strb	r3, [r2, #2]
	ldr	r2, [r7, #3208]
.L1568:
	ldr	r3, [r2]
	bic	r3, r3, #-16777216
	bic	r3, r3, #255
	cmp	r3, #65536
	addne	r9, r9, #1
	beq	.L1582
	add	r4, r4, #1
	cmp	r4, r5
	beq	.L1565
.L1572:
	add	r7, r10, r9, lsl #2
	ldr	r0, [r10, #276]
	ldr	r2, [r7, #3208]
	ldr	r1, [r2, #28]
	bl	FSP_GetLogicFs
	cmp	r0, #0
	beq	.L1566
	ldrsb	r1, [r0]
	cmp	r1, #0
	beq	.L1583
	ldr	r2, [r7, #3208]
	b	.L1568
.L1566:
	ldr	r2, [r7, #3208]
	ldr	r1, [r2, #52]
	cmp	r1, #1
	beq	.L1568
	str	r8, [r2, #28]
	mov	r3, #1
	ldr	r2, [r7, #3208]
	strb	r0, [r2, #1]
	ldr	r2, [r7, #3208]
	strb	r3, [r2, #2]
	ldr	r2, [r7, #3208]
	b	.L1568
.L1582:
	mov	r1, r9
	mov	r0, r10
	add	r4, r4, #1
	bl	HEVC_RemoveFrameStoreOutDPB
	cmp	r4, r5
	mov	r6, #1
	bne	.L1572
.L1565:
	mov	r0, r6
	ldmfd	sp, {r3, r4, r5, r6, r7, r8, r9, r10, fp, sp, pc}
.L1573:
	mov	r6, r5
	b	.L1565
	UNWIND(.fnend)
	.size	HEVC_RemoveUnUsedFrameStore, .-HEVC_RemoveUnUsedFrameStore
	.align	2
	.global	HEVC_SimpleSlideDPB
	.type	HEVC_SimpleSlideDPB, %function
HEVC_SimpleSlideDPB:
	UNWIND(.fnstart)
	@ args = 0, pretend = 0, frame = 0
	@ frame_needed = 1, uses_anonymous_args = 0
	UNWIND(.movsp ip)
	mov	ip, sp
	stmfd	sp!, {r4, r5, fp, ip, lr, pc}
	UNWIND(.pad #4)
	UNWIND(.save {r4, r5, fp, ip, lr})
	UNWIND(.setfp fp, ip, #-4)
	sub	fp, ip, #4
	add	r3, r0, #12288
	mov	r4, r0
	ldr	r1, [r3, #880]
	ldr	r2, [r3, #876]
	cmp	r1, r2
	bcs	.L1586
	ldr	r2, [r3, #1160]
	ldr	r3, [r3, #1156]
	cmp	r2, r3
	bcs	.L1586
	ldr	r3, [r0, #3036]
	ldr	r2, [r0, #3040]
	cmp	r2, r3
	ldmccfd	sp, {r4, r5, fp, sp, pc}
	cmp	r3, #15
	bls	.L1590
.L1586:
	ldr	r3, [r4, #3208]
	mov	r5, #0
	mov	r2, r5
	strb	r5, [r3, #1]
	ldr	r1, [r3, #28]
	ldr	r0, [r4, #276]
	bl	FSP_SetRef
	mov	r1, r5
	mov	r0, r4
	bl	HEVC_RemoveApcStore
	mov	r1, r5
	mov	r0, r4
	sub	sp, fp, #20
	ldmfd	sp, {r4, r5, fp, sp, lr}
	b	HEVC_RemoveFrameStoreOutDPB
.L1590:
	bl	HEVC_IncreaseDPBSize
	cmp	r0, #0
	bne	.L1586
	ldmfd	sp, {r4, r5, fp, sp, pc}
	UNWIND(.fnend)
	.size	HEVC_SimpleSlideDPB, .-HEVC_SimpleSlideDPB
	.align	2
	.global	HEVC_GetMinPOC
	.type	HEVC_GetMinPOC, %function
HEVC_GetMinPOC:
	UNWIND(.fnstart)
	@ args = 0, pretend = 0, frame = 0
	@ frame_needed = 1, uses_anonymous_args = 0
	UNWIND(.movsp ip)
	mov	ip, sp
	stmfd	sp!, {r4, r5, r6, r7, fp, ip, lr, pc}
	UNWIND(.pad #4)
	UNWIND(.save {r4, r5, r6, r7, fp, ip, lr})
	UNWIND(.setfp fp, ip, #-4)
	sub	fp, ip, #4
	mov	r6, r2
	mvn	r3, #-2147483648
	mov	r2, #0
	str	r2, [r6]
	str	r3, [r1]
	mov	r4, r1
	ldr	r2, [r0, #3040]
	mov	r5, r0
	ldr	r3, [r0, #3036]
	cmp	r2, r3
	bhi	.L1598
	cmp	r2, #0
	ldmeqfd	sp, {r4, r5, r6, r7, fp, sp, pc}
.L1599:
	add	r1, r5, #3200
	mov	r3, #0
	add	r1, r1, #4
.L1595:
	ldr	r2, [r1, #4]!
	ldr	r0, [r4]
	ldr	r2, [r2, #8]
	cmp	r0, r2
	strgt	r2, [r4]
	strgt	r3, [r6]
	add	r3, r3, #1
	ldr	r2, [r5, #3040]
	cmp	r2, r3
	bhi	.L1595
	ldmfd	sp, {r4, r5, r6, r7, fp, sp, pc}
.L1598:
	ldr	r1, .L1600
	mov	r0, #1
	bl	dprint_vfmw
	ldr	r2, [r5, #3036]
	cmp	r2, #0
	str	r2, [r5, #3040]
	bne	.L1599
	ldmfd	sp, {r4, r5, r6, r7, fp, sp, pc}
.L1601:
	.align	2
.L1600:
	.word	.LC142
	UNWIND(.fnend)
	.size	HEVC_GetMinPOC, .-HEVC_GetMinPOC
	.align	2
	.global	HEVC_GetReRangeFlag
	.type	HEVC_GetReRangeFlag, %function
HEVC_GetReRangeFlag:
	UNWIND(.fnstart)
	@ args = 4, pretend = 0, frame = 0
	@ frame_needed = 1, uses_anonymous_args = 0
	UNWIND(.movsp ip)
	mov	ip, sp
	stmfd	sp!, {r4, r5, fp, ip, lr, pc}
	UNWIND(.pad #4)
	UNWIND(.save {r4, r5, fp, ip, lr})
	UNWIND(.setfp fp, ip, #-4)
	sub	fp, ip, #4
	add	r3, r0, #4096
	ldr	lr, [r0, #2820]
	movw	r5, #5036
	movw	r4, #12668
	ldr	ip, [r3, #748]
	ldr	r3, [r0, #2816]
	mla	ip, r5, ip, lr
	ldr	lr, [fp, #4]
	ldr	ip, [ip, #32]
	mla	r3, r4, ip, r3
	ldr	ip, [r3, #64]
	ldr	r3, [r3, #68]
	cmp	r1, ip
	cmpeq	lr, #0
	bne	.L1603
	cmp	r2, r3
	beq	.L1614
.L1603:
	ldrb	r3, [r0, #1]	@ zero_extendqisi2
	cmp	r3, #1
	beq	.L1615
.L1608:
	mov	r0, #1
	ldmfd	sp, {r4, r5, fp, sp, pc}
.L1615:
	ldr	r2, [r0, #2856]
	ldr	r2, [r2, #24]
	bics	r2, r2, #4
	beq	.L1608
	ldr	r2, [r0, #2396]
	cmp	r2, #0
	bne	.L1613
	str	r3, [r0, #2396]
	mov	r0, r3
	ldmfd	sp, {r4, r5, fp, sp, pc}
.L1614:
	ldr	r3, [r0, #172]
	cmp	r3, #0
	beq	.L1603
	ldr	r3, [r0, #2856]
	ldr	r3, [r3, #936]
	cmp	r3, #0
	bne	.L1603
.L1613:
	mov	r0, #0
	ldmfd	sp, {r4, r5, fp, sp, pc}
	UNWIND(.fnend)
	.size	HEVC_GetReRangeFlag, .-HEVC_GetReRangeFlag
	.align	2
	.global	HEVC_CalcStreamBits
	.type	HEVC_CalcStreamBits, %function
HEVC_CalcStreamBits:
	UNWIND(.fnstart)
	@ args = 0, pretend = 0, frame = 0
	@ frame_needed = 1, uses_anonymous_args = 0
	UNWIND(.movsp ip)
	mov	ip, sp
	stmfd	sp!, {r4, fp, ip, lr, pc}
	UNWIND(.pad #4)
	UNWIND(.save {r4, fp, ip, lr})
	UNWIND(.setfp fp, ip, #-4)
	sub	fp, ip, #4
	ldr	r4, [r0, #2828]
	ldrb	ip, [r4]	@ zero_extendqisi2
	cmp	ip, #0
	beq	.L1627
	mov	r3, #0
	mov	r2, r4
	mov	lr, r3
.L1618:
	add	r3, r3, #1
	ldr	r1, [r2, #44]
	cmp	r3, ip
	add	r2, r2, #28
	add	lr, lr, r1
	bne	.L1618
.L1617:
	ldr	r2, [r0, #2808]
	mov	r3, ip, asl #5
	sub	ip, r3, ip, asl #2
	add	r4, r4, ip
	ldr	r3, [r2, #24]
	and	r3, r3, #7
	str	r3, [r4, #56]
	ldr	r2, [r0, #2828]
	ldr	r3, [r0, #2808]
	ldrb	r1, [r2]	@ zero_extendqisi2
	ldr	ip, [r3, #24]
	mov	r3, r1, asl #5
	sub	r3, r3, r1, asl #2
	add	r3, r2, r3
	ldr	r2, [r3, #48]
	add	r2, r2, ip, lsr #3
	rsb	r2, lr, r2
	str	r2, [r3, #60]
	ldr	r1, [r0, #2828]
	ldr	r3, [r0, #2808]
	ldrb	r2, [r1]	@ zero_extendqisi2
	ldr	ip, [r3, #24]
	mov	r3, r2, asl #5
	sub	r2, r3, r2, asl #2
	add	r2, r1, r2
	ldr	r3, [r2, #44]
	add	r3, lr, r3
	rsb	r3, ip, r3, lsl #3
	str	r3, [r2, #52]
	ldr	r2, [r0, #2828]
	ldrb	r1, [r2]	@ zero_extendqisi2
	mov	r3, r1, asl #5
	sub	r3, r3, r1, asl #2
	add	r3, r2, r3
	ldr	r2, [r3, #60]
	ldr	r1, [r3, #56]
	and	r2, r2, #3
	add	r2, r1, r2, lsl #3
	str	r2, [r3, #56]
	ldr	r2, [r0, #2828]
	ldrb	r1, [r2]	@ zero_extendqisi2
	mov	r3, r1, asl #5
	sub	r3, r3, r1, asl #2
	add	r3, r2, r3
	ldr	r2, [r3, #60]
	bic	r2, r2, #3
	str	r2, [r3, #60]
	ldr	r1, [r0, #2828]
	ldr	r2, [r1, #8]
	sub	r3, r2, #1
	cmp	r3, #1
	bhi	.L1634
	ldrb	ip, [r1]	@ zero_extendqisi2
	add	lr, ip, #1
	cmp	r2, lr
	movhi	r2, #1
	movls	r2, #0
	cmp	lr, #1
	movhi	r2, #0
	cmp	r2, #0
	beq	.L1620
	add	ip, ip, #2
	mov	lr, #0
.L1621:
	sub	r3, ip, #1
	mov	r2, r3, asl #5
	sub	r3, r2, r3, asl #2
	add	r1, r1, r3
	str	lr, [r1, #56]
	ldr	r2, [r0, #2828]
	add	r2, r2, r3
	ldr	r1, [r2, #48]
	str	r1, [r2, #60]
	ldr	r2, [r0, #2828]
	add	r2, r2, r3
	ldr	r1, [r2, #44]
	mov	r1, r1, asl #3
	str	r1, [r2, #52]
	ldr	r2, [r0, #2828]
	add	r2, r2, r3
	ldr	r1, [r2, #60]
	ldr	r4, [r2, #56]
	and	r1, r1, #15
	add	r1, r4, r1, lsl #3
	str	r1, [r2, #56]
	ldr	r2, [r0, #2828]
	add	r3, r2, r3
	ldr	r2, [r3, #60]
	bic	r2, r2, #15
	str	r2, [r3, #60]
	ldr	r1, [r0, #2828]
	ldr	r3, [r1, #8]
	cmp	ip, #1
	cmpls	ip, r3
	add	ip, ip, #1
	movcc	r2, #1
	movcs	r2, #0
	cmp	r2, #0
	bne	.L1621
	sub	r3, r3, #1
.L1620:
	mov	r2, r3, asl #5
	ldr	ip, [r1, #12]
	sub	r3, r2, r3, asl #2
	add	r1, r1, r3
	ldr	r3, [r1, #52]
	rsb	r3, ip, r3
	str	r3, [r1, #52]
	ldr	r4, [r0, #2828]
	ldrb	r1, [r4]	@ zero_extendqisi2
	ldr	lr, [r4, #8]
	cmp	r1, lr
	ldmcsfd	sp, {r4, fp, sp, pc}
	sxth	r3, r1
	add	r0, r0, #4096
	mov	r2, r3, asl #5
	sub	r3, r2, r3, asl #2
	add	r3, r4, r3
.L1625:
	ldr	r2, [r3, #60]
	add	r1, r1, #1
	ldr	ip, [r0, #40]
	add	r3, r3, #28
	cmp	r2, ip
	strcc	r2, [r0, #40]
	ldrcc	lr, [r4, #8]
	cmp	lr, r1
	bhi	.L1625
	ldmfd	sp, {r4, fp, sp, pc}
.L1634:
	ldr	r1, .L1635
	mov	r0, #0
	sub	sp, fp, #16
	ldmia	sp, {r4, fp, sp, lr}
	b	dprint_vfmw
.L1627:
	mov	lr, ip
	b	.L1617
.L1636:
	.align	2
.L1635:
	.word	.LC143
	UNWIND(.fnend)
	.size	HEVC_CalcStreamBits, .-HEVC_CalcStreamBits
	.align	2
	.global	HEVC_VpsSpsPpsCheck
	.type	HEVC_VpsSpsPpsCheck, %function
HEVC_VpsSpsPpsCheck:
	UNWIND(.fnstart)
	@ args = 0, pretend = 0, frame = 0
	@ frame_needed = 1, uses_anonymous_args = 0
	UNWIND(.movsp ip)
	mov	ip, sp
	stmfd	sp!, {fp, ip, lr, pc}
	UNWIND(.pad #4)
	UNWIND(.save {fp, ip, lr})
	UNWIND(.setfp fp, ip, #-4)
	sub	fp, ip, #4
	add	r2, r0, #4096
	ldr	r3, [r0, #164]
	ldr	r2, [r2, #748]
	cmp	r2, r3
	bge	.L1645
	movw	r3, #5036
	ldr	r1, [r0, #2820]
	mul	r3, r3, r2
	add	ip, r1, r3
	ldrb	r3, [r1, r3]	@ zero_extendqisi2
	cmp	r3, #0
	beq	.L1646
	ldr	r2, [ip, #32]
	ldr	r3, [r0, #160]
	cmp	r2, r3
	bge	.L1647
	ldr	r1, [r0, #2816]
	movw	r3, #12668
	mla	r3, r3, r2, r1
	ldrb	r1, [r3, #1]	@ zero_extendqisi2
	cmp	r1, #0
	beq	.L1648
	ldr	r2, [r3, #48]
	ldr	r3, [r0, #156]
	cmp	r2, r3
	bcs	.L1649
	movw	r3, #24912
	ldr	r1, [r0, #2812]
	mul	r3, r3, r2
	ldrb	r3, [r1, r3]	@ zero_extendqisi2
	cmp	r3, #0
	beq	.L1650
	mov	r0, #0
	ldmfd	sp, {fp, sp, pc}
.L1645:
	ldr	r1, .L1651
	mov	r0, #1
	bl	dprint_vfmw
	mvn	r0, #0
	ldmfd	sp, {fp, sp, pc}
.L1646:
	ldr	r1, .L1651+4
	mov	r0, #1
	bl	dprint_vfmw
	mvn	r0, #0
	ldmfd	sp, {fp, sp, pc}
.L1647:
	ldr	r1, .L1651+8
	mov	r0, #1
	bl	dprint_vfmw
	mvn	r0, #0
	ldmfd	sp, {fp, sp, pc}
.L1648:
	ldr	r1, .L1651+12
	mov	r0, #1
	bl	dprint_vfmw
	mvn	r0, #0
	ldmfd	sp, {fp, sp, pc}
.L1649:
	ldr	r1, .L1651+16
	mov	r0, #1
	bl	dprint_vfmw
	mvn	r0, #0
	ldmfd	sp, {fp, sp, pc}
.L1650:
	ldr	r1, .L1651+20
	mov	r0, #1
	bl	dprint_vfmw
	mvn	r0, #0
	ldmfd	sp, {fp, sp, pc}
.L1652:
	.align	2
.L1651:
	.word	.LC144
	.word	.LC145
	.word	.LC146
	.word	.LC147
	.word	.LC148
	.word	.LC149
	UNWIND(.fnend)
	.size	HEVC_VpsSpsPpsCheck, .-HEVC_VpsSpsPpsCheck
	.align	2
	.global	HEVC_IsNewPic
	.type	HEVC_IsNewPic, %function
HEVC_IsNewPic:
	UNWIND(.fnstart)
	@ args = 0, pretend = 0, frame = 0
	@ frame_needed = 1, uses_anonymous_args = 0
	UNWIND(.movsp ip)
	mov	ip, sp
	stmfd	sp!, {r4, r5, r6, r7, fp, ip, lr, pc}
	UNWIND(.pad #4)
	UNWIND(.save {r4, r5, r6, r7, fp, ip, lr})
	UNWIND(.setfp fp, ip, #-4)
	sub	fp, ip, #4
	UNWIND(.pad #16)
	sub	sp, sp, #16
	add	r1, r0, #4096
	ldr	lr, [r0, #2828]
	ldr	r3, [r1, #744]
	ldr	r2, [lr, #16]
	add	r4, r0, r3, lsl #2
	ldr	ip, [r4, #244]
	cmn	ip, #-2147483647
	beq	.L1694
	sub	r5, r2, #16
	cmp	r2, #21
	cmpne	r5, #2
	bls	.L1691
.L1670:
	cmp	r2, #1
	bls	.L1695
.L1658:
	sub	r2, r2, #19
	cmp	r2, #1
	movls	ip, #-2147483647
	strls	ip, [r4, #244]
.L1691:
	ldr	r2, [r1, #724]
.L1660:
	cmp	ip, r2
	ble	.L1661
	ldr	r5, [lr, #16]
	sub	r6, r5, #8
	cmp	r6, #1
	addhi	r3, r0, r3
	bls	.L1696
.L1663:
	ldrb	ip, [r3, #12]	@ zero_extendqisi2
	cmp	ip, #0
	beq	.L1664
	ldr	r5, [r4, #252]
	cmp	r5, r2
	ble	.L1664
	ldr	r6, [lr, #16]
	sub	r7, r6, #8
	cmp	r7, #1
	bls	.L1697
.L1664:
	ldrb	ip, [r1, #713]	@ zero_extendqisi2
	cmp	ip, #0
	bne	.L1665
	ldr	lr, [lr, #16]
	sub	r5, lr, #19
	cmp	r5, #1
	bls	.L1692
	cmp	lr, #21
	beq	.L1692
	sub	lr, lr, #16
	cmp	lr, #2
	strls	r2, [r4, #252]
	movls	ip, #1
	strlsb	ip, [r3, #12]
.L1665:
	ldr	ip, [r0, #260]
	ldrb	r3, [r1, #712]	@ zero_extendqisi2
	cmp	ip, #0
	ldr	r1, [r1, #748]
	beq	.L1669
	ldr	ip, [r0, #208]
	cmp	r1, ip
	movne	r3, #1
.L1669:
	ldr	ip, [r0, #328]
	cmp	ip, r1
	movne	r0, #1
	beq	.L1698
.L1690:
	sub	sp, fp, #28
	ldmfd	sp, {r4, r5, r6, r7, fp, sp, pc}
.L1695:
	ldr	r5, [r1, #732]
	cmp	r5, #2
	bne	.L1658
	cmn	ip, #-2147483647
	bne	.L1691
.L1659:
	ldr	r2, [r1, #724]
	str	r2, [r4, #244]
	ldr	ip, [lr, #16]
	cmp	ip, #1
	bls	.L1699
.L1661:
	add	r3, r0, r3
	ldrb	ip, [r3, #6]	@ zero_extendqisi2
	cmp	ip, #0
	beq	.L1663
	ldr	r5, [lr, #16]
	sub	r6, r5, #8
	cmp	r6, #1
	bhi	.L1663
	str	r2, [sp]
	movw	r3, #12994
	str	r5, [sp, #8]
	mov	r0, #1
	str	ip, [sp, #4]
	ldr	r2, .L1700
	ldr	r1, .L1700+4
	bl	dprint_vfmw
	mov	r0, #2
	b	.L1690
.L1694:
	sub	r6, r2, #16
	cmp	r6, #5
	movhi	r7, #0
	movls	r7, #1
	cmp	r2, #1
	ldrls	r5, [r1, #732]
	movhi	r5, #0
	subls	r5, r5, #2
	clzls	r5, r5
	movls	r5, r5, lsr #5
	orrs	r5, r5, r7
	moveq	r0, #2
	beq	.L1690
	cmp	r2, #21
	cmpne	r6, #2
	bhi	.L1670
	b	.L1659
.L1698:
	ldr	r0, [r0, #284]
	cmp	r0, r2
	moveq	r0, r3
	movne	r0, #1
	sub	sp, fp, #28
	ldmfd	sp, {r4, r5, r6, r7, fp, sp, pc}
.L1696:
	str	r2, [sp]
	movw	r3, #12987
	str	r5, [sp, #8]
	mov	r0, #1
	str	ip, [sp, #4]
	ldr	r2, .L1700
	ldr	r1, .L1700+8
	bl	dprint_vfmw
	mov	r0, #2
	b	.L1690
.L1692:
	str	r2, [r4, #252]
	strb	ip, [r3, #12]
	b	.L1665
.L1699:
	mov	ip, #1
	str	ip, [r0, #356]
	ldr	ip, [r4, #244]
	b	.L1660
.L1697:
	str	r2, [sp, #4]
	movw	r3, #13003
	str	r6, [sp, #12]
	mov	r0, #1
	str	r5, [sp, #8]
	str	ip, [sp]
	ldr	r2, .L1700
	ldr	r1, .L1700+12
	bl	dprint_vfmw
	mov	r0, #2
	b	.L1690
.L1701:
	.align	2
.L1700:
	.word	.LANCHOR0+484
	.word	.LC151
	.word	.LC150
	.word	.LC152
	UNWIND(.fnend)
	.size	HEVC_IsNewPic, .-HEVC_IsNewPic
	.align	2
	.global	HEVC_ReadByteAlignment
	.type	HEVC_ReadByteAlignment, %function
HEVC_ReadByteAlignment:
	UNWIND(.fnstart)
	@ args = 0, pretend = 0, frame = 0
	@ frame_needed = 1, uses_anonymous_args = 0
	UNWIND(.movsp ip)
	mov	ip, sp
	stmfd	sp!, {r4, r5, fp, ip, lr, pc}
	UNWIND(.pad #4)
	UNWIND(.save {r4, r5, fp, ip, lr})
	UNWIND(.setfp fp, ip, #-4)
	sub	fp, ip, #4
	mov	r1, #1
	mov	r4, r0
	ldr	r0, [r0, #2808]
	bl	BsGet
	cmp	r0, #0
	beq	.L1707
	ldr	r0, [r4, #2808]
	bl	BsBitsToNextByte
	subs	r1, r0, #0
	beq	.L1706
	ldr	r0, [r4, #2808]
	bl	BsGet
	ldr	r1, .L1708
	mov	r2, r0
	mov	r0, #19
	bl	dprint_vfmw
.L1706:
	mov	r0, #0
	ldmfd	sp, {r4, r5, fp, sp, pc}
.L1707:
	ldr	r1, .L1708+4
	mov	r0, #1
	bl	dprint_vfmw
	mvn	r0, #0
	ldmfd	sp, {r4, r5, fp, sp, pc}
.L1709:
	.align	2
.L1708:
	.word	.LC154
	.word	.LC153
	UNWIND(.fnend)
	.size	HEVC_ReadByteAlignment, .-HEVC_ReadByteAlignment
	.align	2
	.global	HEVC_GetRapPicFlag
	.type	HEVC_GetRapPicFlag, %function
HEVC_GetRapPicFlag:
	UNWIND(.fnstart)
	@ args = 0, pretend = 0, frame = 0
	@ frame_needed = 1, uses_anonymous_args = 0
	UNWIND(.movsp ip)
	mov	ip, sp
	stmfd	sp!, {fp, ip, lr, pc}
	UNWIND(.pad #4)
	UNWIND(.save {fp, ip, lr})
	UNWIND(.setfp fp, ip, #-4)
	sub	fp, ip, #4
	add	r0, r0, #4096
	ldr	r0, [r0, #740]
	sub	r0, r0, #16
	cmp	r0, #5
	movhi	r0, #0
	movls	r0, #1
	ldmfd	sp, {fp, sp, pc}
	UNWIND(.fnend)
	.size	HEVC_GetRapPicFlag, .-HEVC_GetRapPicFlag
	.align	2
	.global	HEVC_GetIdrPicFlag
	.type	HEVC_GetIdrPicFlag, %function
HEVC_GetIdrPicFlag:
	UNWIND(.fnstart)
	@ args = 0, pretend = 0, frame = 0
	@ frame_needed = 1, uses_anonymous_args = 0
	UNWIND(.movsp ip)
	mov	ip, sp
	stmfd	sp!, {fp, ip, lr, pc}
	UNWIND(.pad #4)
	UNWIND(.save {fp, ip, lr})
	UNWIND(.setfp fp, ip, #-4)
	sub	fp, ip, #4
	add	r0, r0, #4096
	ldr	r0, [r0, #740]
	sub	r0, r0, #19
	cmp	r0, #1
	movhi	r0, #0
	movls	r0, #1
	ldmfd	sp, {fp, sp, pc}
	UNWIND(.fnend)
	.size	HEVC_GetIdrPicFlag, .-HEVC_GetIdrPicFlag
	.align	2
	.global	HEVC_DecPTL
	.type	HEVC_DecPTL, %function
HEVC_DecPTL:
	UNWIND(.fnstart)
	@ args = 0, pretend = 0, frame = 48
	@ frame_needed = 1, uses_anonymous_args = 0
	UNWIND(.movsp ip)
	mov	ip, sp
	stmfd	sp!, {r4, r5, r6, r7, r8, r9, r10, fp, ip, lr, pc}
	UNWIND(.pad #4)
	UNWIND(.save {r4, r5, r6, r7, r8, r9, r10, fp, ip, lr})
	UNWIND(.setfp fp, ip, #-4)
	sub	fp, ip, #4
	UNWIND(.pad #52)
	sub	sp, sp, #52
	subs	r8, r2, #0
	mov	r9, r1
	mov	r5, r0
	mov	r6, r3
	moveq	r1, #8
	bne	.L1749
.L1747:
	ldr	r0, [r5, #2808]
	bl	BsGet
	cmp	r6, #0
	str	r0, [r9, #4]
	ble	.L1718
	sub	r3, fp, #84
	sub	r7, fp, #92
	add	r10, r3, r6
	mov	r4, r3
	mov	r9, r7
.L1719:
	mov	r1, #1
	ldr	r0, [r5, #2808]
	bl	BsGet
	mov	r1, #1
	strb	r0, [r4], #1
	ldr	r0, [r5, #2808]
	bl	BsGet
	cmp	r4, r10
	strb	r0, [r9], #1
	bne	.L1719
	cmp	r6, #7
	movle	r4, r6
	ble	.L1723
	b	.L1729
.L1722:
	cmp	r4, #8
	beq	.L1729
.L1723:
	mov	r1, #2
	ldr	r0, [r5, #2808]
	bl	BsGet
	add	r4, r4, #1
	cmp	r0, #0
	beq	.L1722
	ldr	r1, .L1751
	mov	r0, #1
	bl	dprint_vfmw
	mvn	r0, #0
	sub	sp, fp, #40
	ldmfd	sp, {r4, r5, r6, r7, r8, r9, r10, fp, sp, pc}
.L1718:
	mov	r0, #0
	sub	sp, fp, #40
	ldmfd	sp, {r4, r5, r6, r7, r8, r9, r10, fp, sp, pc}
.L1729:
	mov	r10, #0
	b	.L1727
.L1726:
	add	r10, r10, #1
	cmp	r6, r10
	ble	.L1718
.L1727:
	cmp	r8, #0
	beq	.L1724
	sub	r3, fp, #84
	ldrb	r3, [r3, r10]	@ zero_extendqisi2
	cmp	r3, #0
	bne	.L1750
.L1724:
	ldrb	r3, [r7, r10]	@ zero_extendqisi2
	cmp	r3, #0
	beq	.L1726
	mov	r1, #8
	ldr	r0, [r5, #2808]
	bl	BsGet
	b	.L1726
.L1750:
	mov	r1, #2
	ldr	r0, [r5, #2808]
	bl	BsGet
	mov	r1, #1
	ldr	r0, [r5, #2808]
	mov	r4, #32
	bl	BsGet
	mov	r1, #5
	ldr	r0, [r5, #2808]
	bl	BsGet
.L1725:
	mov	r1, #1
	ldr	r0, [r5, #2808]
	bl	BsGet
	subs	r4, r4, #1
	bne	.L1725
	mov	r1, #1
	ldr	r0, [r5, #2808]
	bl	BsGet
	mov	r1, #1
	ldr	r0, [r5, #2808]
	bl	BsGet
	mov	r1, #1
	ldr	r0, [r5, #2808]
	bl	BsGet
	mov	r1, #1
	ldr	r0, [r5, #2808]
	bl	BsGet
	mov	r1, #16
	ldr	r0, [r5, #2808]
	bl	BsGet
	mov	r1, #16
	ldr	r0, [r5, #2808]
	bl	BsGet
	mov	r1, #12
	ldr	r0, [r5, #2808]
	bl	BsGet
	b	.L1724
.L1749:
	mov	r1, #2
	ldr	r0, [r0, #2808]
	bl	BsGet
	mov	r1, #1
	ldr	r0, [r5, #2808]
	sub	r4, fp, #77
	bl	BsGet
	mov	r1, #5
	ldr	r0, [r5, #2808]
	sub	r7, fp, #45
	bl	BsGet
	mov	r10, r0
.L1714:
	mov	r1, #1
	ldr	r0, [r5, #2808]
	bl	BsGet
	strb	r0, [r4, #1]!
	cmp	r4, r7
	bne	.L1714
	mov	r1, #1
	ldr	r0, [r5, #2808]
	bl	BsGet
	mov	r1, #1
	strb	r0, [r9]
	ldr	r0, [r5, #2808]
	bl	BsGet
	mov	r1, #1
	strb	r0, [r9, #1]
	ldr	r0, [r5, #2808]
	bl	BsGet
	mov	r1, #1
	ldr	r0, [r5, #2808]
	bl	BsGet
	sub	r3, r10, #4
	cmp	r3, #3
	bls	.L1715
	ldrb	r3, [fp, #-72]	@ zero_extendqisi2
	cmp	r3, #0
	bne	.L1715
	ldrb	r3, [fp, #-71]	@ zero_extendqisi2
	cmp	r3, #0
	bne	.L1715
	ldrb	r3, [fp, #-70]	@ zero_extendqisi2
	cmp	r3, #0
	bne	.L1715
	ldrb	r3, [fp, #-69]	@ zero_extendqisi2
	cmp	r3, #0
	bne	.L1715
	mov	r1, #16
	ldr	r0, [r5, #2808]
	bl	BsGet
	mov	r1, #16
	ldr	r0, [r5, #2808]
	bl	BsGet
	mov	r1, #11
	ldr	r0, [r5, #2808]
	bl	BsGet
	b	.L1717
.L1715:
	mov	r1, #1
	ldr	r0, [r5, #2808]
	bl	BsGet
	mov	r1, #1
	ldr	r0, [r5, #2808]
	bl	BsGet
	mov	r1, #1
	ldr	r0, [r5, #2808]
	bl	BsGet
	mov	r1, #1
	ldr	r0, [r5, #2808]
	bl	BsGet
	mov	r1, #1
	ldr	r0, [r5, #2808]
	bl	BsGet
	mov	r1, #1
	ldr	r0, [r5, #2808]
	bl	BsGet
	mov	r1, #1
	ldr	r0, [r5, #2808]
	bl	BsGet
	mov	r1, #1
	ldr	r0, [r5, #2808]
	bl	BsGet
	mov	r1, #1
	ldr	r0, [r5, #2808]
	bl	BsGet
	mov	r1, #16
	ldr	r0, [r5, #2808]
	bl	BsGet
	mov	r1, #16
	ldr	r0, [r5, #2808]
	bl	BsGet
	mov	r1, #2
	ldr	r0, [r5, #2808]
	bl	BsGet
.L1717:
	mov	r1, #1
	ldr	r0, [r5, #2808]
	bl	BsGet
	ldrb	r2, [fp, #-75]	@ zero_extendqisi2
	ldrb	r3, [fp, #-74]	@ zero_extendqisi2
	mov	r1, #8
	str	r10, [r5, #332]
	str	r2, [r5, #336]
	str	r3, [r5, #340]
	b	.L1747
.L1752:
	.align	2
.L1751:
	.word	.LC155
	UNWIND(.fnend)
	.size	HEVC_DecPTL, .-HEVC_DecPTL
	.align	2
	.global	HEVC_SetDefaultScalingList
	.type	HEVC_SetDefaultScalingList, %function
HEVC_SetDefaultScalingList:
	UNWIND(.fnstart)
	@ args = 0, pretend = 0, frame = 8
	@ frame_needed = 1, uses_anonymous_args = 0
	UNWIND(.movsp ip)
	mov	ip, sp
	stmfd	sp!, {r4, r5, r6, r7, r8, r9, r10, fp, ip, lr, pc}
	UNWIND(.pad #4)
	UNWIND(.save {r4, r5, r6, r7, r8, r9, r10, fp, ip, lr})
	UNWIND(.setfp fp, ip, #-4)
	sub	fp, ip, #4
	UNWIND(.pad #12)
	sub	sp, sp, #12
	ldr	r9, .L1771
	add	r10, r0, #2240
	add	r3, r0, #2256
	add	r10, r10, #4
	mov	r6, #0
	add	r3, r3, #4
	str	r0, [fp, #-52]
	str	r3, [fp, #-48]
.L1754:
	ldr	r3, [r10, #4]!
	cmp	r3, #0
	beq	.L1762
	ldr	r3, [fp, #-52]
	mov	r8, r6, asl #9
	ldr	r7, [fp, #-48]
	sub	r8, r8, r6, asl #7
	add	r5, r3, #632
	mov	r4, #0
.L1760:
	cmp	r6, #0
	add	r0, r5, r8
	mov	r2, #64
	ldr	r3, [r9, #52]
	beq	.L1769
	cmp	r6, #3
	beq	.L1770
	ldr	ip, .L1771+4
	cmp	r4, #2
	ldr	r1, .L1771+8
	movhi	r1, ip
	blx	r3
.L1756:
	mov	r3, #16
	str	r3, [r7, #4]!
	ldr	r3, [r10]
	add	r4, r4, #1
	add	r5, r5, #64
	cmp	r3, r4
	bhi	.L1760
.L1762:
	add	r6, r6, #1
	ldr	r3, [fp, #-48]
	cmp	r6, #4
	add	r3, r3, #24
	str	r3, [fp, #-48]
	bne	.L1754
	sub	sp, fp, #40
	ldmfd	sp, {r4, r5, r6, r7, r8, r9, r10, fp, sp, pc}
.L1769:
	mov	r2, #16
	ldr	r1, .L1771+12
	mov	r0, r5
	blx	r3
	b	.L1756
.L1770:
	ldr	r0, .L1771+4
	cmp	r4, #0
	ldr	r1, .L1771+8
	mov	r2, #64
	movne	r1, r0
	add	r0, r5, #1152
	blx	r3
	b	.L1756
.L1772:
	.align	2
.L1771:
	.word	vfmw_Osal_Func_Ptr_S
	.word	.LANCHOR0+500
	.word	.LANCHOR2
	.word	.LANCHOR0+564
	UNWIND(.fnend)
	.size	HEVC_SetDefaultScalingList, .-HEVC_SetDefaultScalingList
	.align	2
	.global	HEVC_CalScalingList
	.type	HEVC_CalScalingList, %function
HEVC_CalScalingList:
	UNWIND(.fnstart)
	@ args = 0, pretend = 0, frame = 0
	@ frame_needed = 1, uses_anonymous_args = 0
	UNWIND(.movsp ip)
	mov	ip, sp
	stmfd	sp!, {r4, r5, r6, r7, r8, r9, fp, ip, lr, pc}
	UNWIND(.pad #4)
	UNWIND(.save {r4, r5, r6, r7, r8, r9, fp, ip, lr})
	UNWIND(.setfp fp, ip, #-4)
	sub	fp, ip, #4
	add	lr, r2, #90
	mov	ip, r2, asl #3
	sub	r2, ip, r2, asl #1
	mov	r5, #0
	ldr	r7, [r0, lr, asl #2]
	add	r3, r3, r2
	cmp	r7, #64
	mov	r6, r3, asl #4
	movcs	r7, #64
	mov	r8, r7, lsr #2
.L1774:
	cmp	r5, r8
	ldmcsfd	sp, {r4, r5, r6, r7, r8, r9, fp, sp, pc}
	cmp	r7, #0
	beq	.L1774
	add	r3, r5, r6
	ldrb	ip, [r1]	@ zero_extendqisi2
	mov	r4, r1
	mov	r2, #0
	add	r3, r0, r3, lsl #2
	ldr	lr, [r3, #632]
	orr	ip, lr, ip
	str	ip, [r3, #632]
.L1780:
	add	r2, r2, #1
	add	r3, r5, r6
	and	lr, r2, #3
	cmp	r2, r7
	add	r3, r0, r3, lsl #2
	mov	ip, lr, asl #3
	beq	.L1774
	ldrb	r9, [r4, #1]!	@ zero_extendqisi2
	cmp	lr, #3
	ldr	lr, [r3, #632]
	addeq	r5, r5, #1
	orr	ip, lr, r9, asl ip
	str	ip, [r3, #632]
	b	.L1780
	UNWIND(.fnend)
	.size	HEVC_CalScalingList, .-HEVC_CalScalingList
	.align	2
	.global	HEVC_SetScalingList
	.type	HEVC_SetScalingList, %function
HEVC_SetScalingList:
	UNWIND(.fnstart)
	@ args = 0, pretend = 0, frame = 8
	@ frame_needed = 1, uses_anonymous_args = 0
	UNWIND(.movsp ip)
	mov	ip, sp
	stmfd	sp!, {r4, r5, r6, r7, r8, r9, r10, fp, ip, lr, pc}
	UNWIND(.pad #4)
	UNWIND(.save {r4, r5, r6, r7, r8, r9, r10, fp, ip, lr})
	UNWIND(.setfp fp, ip, #-4)
	sub	fp, ip, #4
	UNWIND(.pad #12)
	sub	sp, sp, #12
	ldr	r1, [r0, #2840]
	mov	r7, r0
	ldrb	r3, [r1, #3]	@ zero_extendqisi2
	cmp	r3, #0
	beq	.L1808
	ldrb	r3, [r0, #1]	@ zero_extendqisi2
	cmp	r3, #1
	beq	.L1819
	ldr	r3, [r0, #2844]
	ldrb	r2, [r3, #21]	@ zero_extendqisi2
	cmp	r2, #0
	beq	.L1792
	cmn	r3, #256
	add	r2, r3, #256
	str	r2, [fp, #-48]
	movne	r1, #0
	moveq	r1, #1
.L1791:
	cmp	r1, #0
	bne	.L1809
.L1794:
	ldr	r10, .L1822
	mov	r2, #1536
	add	r0, r7, #632
	add	r8, r7, #2240
	mov	r6, r1
	add	r8, r8, #4
	ldr	r3, [r10, #48]
	blx	r3
	ldr	r9, [fp, #-48]
.L1795:
	ldr	r3, [r8, #4]!
	cmp	r3, #0
	movne	r5, r9
	movne	r4, #0
	beq	.L1798
.L1796:
	mov	r3, r4
	mov	r1, r5
	mov	r2, r6
	mov	r0, r7
	bl	HEVC_CalScalingList
	ldr	r3, [r8]
	add	r4, r4, #1
	add	r5, r5, #64
	cmp	r3, r4
	bhi	.L1796
.L1798:
	add	r6, r6, #1
	add	r9, r9, #384
	cmp	r6, #4
	bne	.L1795
	ldr	r2, [fp, #-48]
	add	r0, r7, #2256
	ldr	r3, [r10, #52]
	add	r0, r0, #8
	add	r1, r2, #1536
	mov	r2, #96
	blx	r3
.L1808:
	mov	r0, #0
	sub	sp, fp, #40
	ldmfd	sp, {r4, r5, r6, r7, r8, r9, r10, fp, sp, pc}
.L1819:
	ldr	r2, [r0, #2844]
	ldrb	r3, [r2, #1889]	@ zero_extendqisi2
	cmp	r3, #1
	beq	.L1820
	add	r0, r1, #12288
	ldrb	ip, [r0, #372]	@ zero_extendqisi2
	cmp	ip, #1
	beq	.L1821
	ldrb	r3, [r2, #21]	@ zero_extendqisi2
	cmp	r3, #0
	bne	.L1799
.L1792:
	ldrb	r3, [r1, #4]	@ zero_extendqisi2
	cmp	r3, #0
	beq	.L1809
.L1814:
	cmn	r1, #432
	add	r3, r1, #432
	str	r3, [fp, #-48]
	movne	r1, #0
	moveq	r1, #1
	cmp	r1, #0
	beq	.L1794
.L1809:
	mov	r0, r7
	bl	HEVC_SetDefaultScalingList
	mov	r0, #0
	sub	sp, fp, #40
	ldmfd	sp, {r4, r5, r6, r7, r8, r9, r10, fp, sp, pc}
.L1788:
	ldrb	r3, [r2, #21]	@ zero_extendqisi2
	cmp	r3, #0
	beq	.L1814
.L1799:
	cmn	r2, #256
	add	r3, r2, #256
	str	r3, [fp, #-48]
	movne	r1, #0
	moveq	r1, #1
	b	.L1791
.L1821:
	ldrb	ip, [r1, #4]	@ zero_extendqisi2
	cmp	ip, #0
	bne	.L1788
	ldrb	r1, [r2, #21]	@ zero_extendqisi2
	orrs	r3, r1, r3
	bne	.L1789
	ldr	r2, [r0, #376]
	movw	r1, #12668
	ldr	r3, [r7, #2816]
	add	r2, r7, r2, lsl #2
	ldr	r2, [r2, #228]
	mla	r3, r1, r2, r3
.L1817:
	ldrb	r2, [r3, #4]	@ zero_extendqisi2
	cmp	r2, #1
	bne	.L1809
	cmn	r3, #432
	add	r2, r3, #432
	str	r2, [fp, #-48]
	movne	r1, #0
	moveq	r1, #1
	b	.L1791
.L1820:
	ldr	r2, [r2, #1956]
	movw	r0, #5036
	ldr	r1, [r7, #2820]
	movw	lr, #12668
	ldr	r3, [r7, #2816]
	add	r2, r7, r2, lsl #2
	ldr	ip, [r2, #236]
	ldr	r2, [r2, #228]
	mla	r0, r0, ip, r1
	mla	r3, lr, r2, r3
	ldrb	r2, [r0, #21]	@ zero_extendqisi2
	cmp	r2, #1
	bne	.L1817
	cmn	r0, #256
	add	r3, r0, #256
	str	r3, [fp, #-48]
	movne	r1, #0
	moveq	r1, #1
	b	.L1791
.L1789:
	cmp	r1, #0
	beq	.L1809
	b	.L1799
.L1823:
	.align	2
.L1822:
	.word	vfmw_Osal_Func_Ptr_S
	UNWIND(.fnend)
	.size	HEVC_SetScalingList, .-HEVC_SetScalingList
	.align	2
	.global	HEVC_GetScalingListDefaultAddress
	.type	HEVC_GetScalingListDefaultAddress, %function
HEVC_GetScalingListDefaultAddress:
	UNWIND(.fnstart)
	@ args = 0, pretend = 0, frame = 0
	@ frame_needed = 1, uses_anonymous_args = 0
	UNWIND(.movsp ip)
	mov	ip, sp
	stmfd	sp!, {fp, ip, lr, pc}
	UNWIND(.pad #4)
	UNWIND(.save {fp, ip, lr})
	UNWIND(.setfp fp, ip, #-4)
	sub	fp, ip, #4
	cmp	r0, #3
	ldrls	pc, [pc, r0, asl #2]
	b	.L1825
.L1827:
	.word	.L1831
	.word	.L1829
	.word	.L1829
	.word	.L1830
.L1829:
	ldr	r3, .L1835
	cmp	r1, #2
	add	r0, r3, #64
	movhi	r0, r3
	ldmfd	sp, {fp, sp, pc}
.L1831:
	ldr	r0, .L1835+4
	ldmfd	sp, {fp, sp, pc}
.L1830:
	ldr	r3, .L1835
	cmp	r1, #0
	add	r0, r3, #64
	movne	r0, r3
	ldmfd	sp, {fp, sp, pc}
.L1825:
	ldr	r1, .L1835+8
	mov	r0, #1
	bl	dprint_vfmw
	mov	r0, #0
	ldmfd	sp, {fp, sp, pc}
.L1836:
	.align	2
.L1835:
	.word	.LANCHOR2+80
	.word	.LANCHOR2+64
	.word	.LC156
	UNWIND(.fnend)
	.size	HEVC_GetScalingListDefaultAddress, .-HEVC_GetScalingListDefaultAddress
	.align	2
	.global	HEVC_DecRefPicListsModification
	.type	HEVC_DecRefPicListsModification, %function
HEVC_DecRefPicListsModification:
	UNWIND(.fnstart)
	@ args = 0, pretend = 0, frame = 0
	@ frame_needed = 1, uses_anonymous_args = 0
	UNWIND(.movsp ip)
	mov	ip, sp
	stmfd	sp!, {r3, r4, r5, r6, r7, r8, r9, r10, fp, ip, lr, pc}
	UNWIND(.pad #4)
	UNWIND(.save {r3, r4, r5, r6, r7, r8, r9, r10, fp, ip, lr})
	UNWIND(.setfp fp, ip, #-4)
	sub	fp, ip, #4
	cmp	r2, #0
	cmpne	r1, #0
	mov	r5, r3
	mov	r7, r1
	mov	r8, r2
	moveq	ip, #1
	movne	ip, #0
	cmp	r0, #0
	orreq	ip, ip, #1
	mov	r6, r0
	cmp	ip, #0
	bne	.L1847
	sub	r2, r3, #1
	mov	r4, #1
	movs	r2, r2, asr #1
	beq	.L1839
.L1840:
	movs	r2, r2, asr #1
	add	r4, r4, #1
	bne	.L1840
.L1839:
	mov	r1, #1
	ldr	r0, [r6, #2808]
	bl	BsGet
	cmp	r5, #1
	movls	r10, #0
	movhi	r10, #1
	uxtb	r0, r0
	strb	r0, [r8]
	cmp	r0, #0
	cmpne	r5, #1
	bls	.L1844
	ldr	r3, [r7, #76]
	cmp	r3, #0
	beq	.L1844
	mov	r9, r8
	mov	r5, #0
.L1845:
	mov	r1, r4
	ldr	r0, [r6, #2808]
	bl	BsGet
	add	r5, r5, #1
	str	r0, [r9, #4]!
	ldr	r3, [r7, #76]
	cmp	r3, r5
	bhi	.L1845
.L1844:
	ldr	r5, [r7, #20]
	cmp	r5, #0
	beq	.L1862
.L1843:
	mov	r0, #0
	ldmfd	sp, {r3, r4, r5, r6, r7, r8, r9, r10, fp, sp, pc}
.L1862:
	mov	r1, #1
	ldr	r0, [r6, #2808]
	bl	BsGet
	uxtb	r0, r0
	strb	r0, [r8, #1]
	cmp	r0, #0
	moveq	r10, #0
	andne	r10, r10, #1
	cmp	r10, #0
	beq	.L1843
	ldr	r3, [r7, #80]
	cmp	r3, #0
	beq	.L1843
	add	r8, r8, #128
.L1846:
	mov	r1, r4
	ldr	r0, [r6, #2808]
	bl	BsGet
	add	r5, r5, #1
	str	r0, [r8, #4]!
	ldr	r3, [r7, #80]
	cmp	r3, r5
	bhi	.L1846
	mov	r0, #0
	ldmfd	sp, {r3, r4, r5, r6, r7, r8, r9, r10, fp, sp, pc}
.L1847:
	mvn	r0, #0
	ldmfd	sp, {r3, r4, r5, r6, r7, r8, r9, r10, fp, sp, pc}
	UNWIND(.fnend)
	.size	HEVC_DecRefPicListsModification, .-HEVC_DecRefPicListsModification
	.align	2
	.global	HEVC_MoreRbspData
	.type	HEVC_MoreRbspData, %function
HEVC_MoreRbspData:
	UNWIND(.fnstart)
	@ args = 0, pretend = 0, frame = 0
	@ frame_needed = 1, uses_anonymous_args = 0
	UNWIND(.movsp ip)
	mov	ip, sp
	stmfd	sp!, {r4, r5, fp, ip, lr, pc}
	UNWIND(.pad #4)
	UNWIND(.save {r4, r5, fp, ip, lr})
	UNWIND(.setfp fp, ip, #-4)
	sub	fp, ip, #4
	mov	r4, r0
	ldr	r0, [r0, #2808]
	bl	BsResidBits
	cmp	r0, #0
	ble	.L1865
	ldr	r3, [r4, #2828]
	ldr	r3, [r3, #12]
	add	r3, r3, #3
	cmp	r0, r3
	movls	r0, #0
	movhi	r0, #1
	ldmfd	sp, {r4, r5, fp, sp, pc}
.L1865:
	mov	r0, #0
	ldmfd	sp, {r4, r5, fp, sp, pc}
	UNWIND(.fnend)
	.size	HEVC_MoreRbspData, .-HEVC_MoreRbspData
	.align	2
	.global	HEVC_More_Rbsp_Data
	.type	HEVC_More_Rbsp_Data, %function
HEVC_More_Rbsp_Data:
	UNWIND(.fnstart)
	@ args = 0, pretend = 0, frame = 0
	@ frame_needed = 1, uses_anonymous_args = 0
	UNWIND(.movsp ip)
	mov	ip, sp
	stmfd	sp!, {fp, ip, lr, pc}
	UNWIND(.pad #4)
	UNWIND(.save {fp, ip, lr})
	UNWIND(.setfp fp, ip, #-4)
	sub	fp, ip, #4
	ldr	r0, [r0, #2808]
	ldr	r2, [r0, #16]
	ldr	r3, [r0, #24]
	mov	r2, r2, asl #3
	cmp	r2, r3
	bls	.L1869
	mov	r1, #8
	bl	BsShow
	subs	r0, r0, #128
	movne	r0, #1
	ldmfd	sp, {fp, sp, pc}
.L1869:
	ldr	r1, .L1870
	mov	r0, #1
	bl	dprint_vfmw
	mov	r0, #0
	ldmfd	sp, {fp, sp, pc}
.L1871:
	.align	2
.L1870:
	.word	.LC157
	UNWIND(.fnend)
	.size	HEVC_More_Rbsp_Data, .-HEVC_More_Rbsp_Data
	.align	2
	.global	HEVC_FindTrailZeros
	.type	HEVC_FindTrailZeros, %function
HEVC_FindTrailZeros:
	UNWIND(.fnstart)
	@ args = 0, pretend = 0, frame = 0
	@ frame_needed = 1, uses_anonymous_args = 0
	UNWIND(.movsp ip)
	mov	ip, sp
	stmfd	sp!, {r4, r5, r6, r7, fp, ip, lr, pc}
	UNWIND(.pad #4)
	UNWIND(.save {r4, r5, r6, r7, fp, ip, lr})
	UNWIND(.setfp fp, ip, #-4)
	sub	fp, ip, #4
	mov	ip, #0
	mov	r6, r0
.L1884:
	ldr	r1, [r6, #2828]
	ldr	r0, [r1, #8]
	sub	r0, r0, #1
	mov	r7, r0, asl #2
	mov	r0, r0, asl #5
	rsb	r2, r7, r0
	add	r2, r1, r2
	ldr	r3, [r2, #44]
	ldr	r2, [r2, #40]
	sub	r3, r3, #1
	add	r3, r2, r3
.L1873:
	ldrb	r4, [r3]	@ zero_extendqisi2
	rsb	r5, r7, r0
	add	r2, r1, r5
	cmp	r4, #0
	bne	.L1885
	ldr	lr, [r1, #40]
	add	ip, ip, #1
	cmp	lr, r3
	beq	.L1886
	ldr	lr, [r2, #40]
	cmp	lr, r3
	sub	r3, r3, #1
	bne	.L1873
	ldr	r1, [r2, #64]
	ldr	r0, [r6, #276]
	bl	SM_ReleaseStreamSeg
	ldr	r3, [r6, #2828]
	mov	ip, r4
	add	r5, r3, r5
	str	r4, [r5, #40]
	ldr	r2, [r6, #2828]
	ldr	r3, [r2, #8]
	sub	r3, r3, #1
	str	r3, [r2, #8]
	b	.L1884
.L1885:
	tst	r4, #1
	mov	r3, #1
	moveq	r2, r3
	bne	.L1880
.L1881:
	ands	r0, r4, r2, asl r3
	add	r3, r3, #1
	bne	.L1880
	cmp	r3, #8
	bne	.L1881
	ldr	r1, .L1887
	mov	r0, #1
	bl	dprint_vfmw
	mvn	r0, #0
	ldmfd	sp, {r4, r5, r6, r7, fp, sp, pc}
.L1886:
	ldr	r1, .L1887+4
	mov	r0, #1
	bl	dprint_vfmw
	mvn	r0, #0
	ldmfd	sp, {r4, r5, r6, r7, fp, sp, pc}
.L1880:
	mov	r0, #0
	str	r0, [r1, #4]
	ldr	r2, [r6, #2828]
	add	ip, r3, ip, lsl #3
	str	ip, [r2, #12]
	ldmfd	sp, {r4, r5, r6, r7, fp, sp, pc}
.L1888:
	.align	2
.L1887:
	.word	.LC159
	.word	.LC158
	UNWIND(.fnend)
	.size	HEVC_FindTrailZeros, .-HEVC_FindTrailZeros
	.align	2
	.global	HEVC_FindNaluArraySlot
	.type	HEVC_FindNaluArraySlot, %function
HEVC_FindNaluArraySlot:
	UNWIND(.fnstart)
	@ args = 0, pretend = 0, frame = 0
	@ frame_needed = 1, uses_anonymous_args = 0
	UNWIND(.movsp ip)
	mov	ip, sp
	stmfd	sp!, {r4, r5, r6, r7, r8, r9, fp, ip, lr, pc}
	UNWIND(.pad #4)
	UNWIND(.save {r4, r5, r6, r7, r8, r9, fp, ip, lr})
	UNWIND(.setfp fp, ip, #-4)
	sub	fp, ip, #4
	ldr	r5, [r0, #168]
	mov	r8, r0
	ldr	r3, [r0, #148]
	cmp	r5, #0
	blt	.L1890
	add	r6, r5, #1
	mov	r0, r3
	mov	r1, r6
	bl	__aeabi_uidivmod
	ldr	r7, [r8, #2852]
	mov	r3, r1
	mov	r1, r1, asl #5
	mov	ip, r3, asl #7
	rsb	r2, r1, ip
	add	r2, r7, r2
	ldr	r2, [r2, #32]
	cmp	r2, #0
	beq	.L1891
	mov	r4, #0
	b	.L1893
.L1894:
	bl	__aeabi_uidivmod
	mov	r3, r1
	mov	r1, r1, asl #5
	mov	ip, r3, asl #7
	rsb	r2, r1, ip
	add	r2, r7, r2
	ldr	r2, [r2, #32]
	cmp	r2, #0
	beq	.L1891
.L1893:
	add	r4, r4, #1
	mov	r1, r6
	cmp	r4, r5
	add	r0, r3, r4
	ble	.L1894
.L1890:
	mvn	r0, #0
	str	r3, [r8, #148]
	ldmfd	sp, {r4, r5, r6, r7, r8, r9, fp, sp, pc}
.L1891:
	cmp	r3, r6
	mov	r0, r3
	str	r3, [r8, #148]
	bcs	.L1904
	rsb	r1, r1, ip
	mov	r3, #1
	add	r7, r7, r1
	str	r3, [r7, #32]
	ldmfd	sp, {r4, r5, r6, r7, r8, r9, fp, sp, pc}
.L1904:
	mvn	r0, #0
	ldmfd	sp, {r4, r5, r6, r7, r8, r9, fp, sp, pc}
	UNWIND(.fnend)
	.size	HEVC_FindNaluArraySlot, .-HEVC_FindNaluArraySlot
	.align	2
	.global	HEVC_ReleaseNAL
	.type	HEVC_ReleaseNAL, %function
HEVC_ReleaseNAL:
	UNWIND(.fnstart)
	@ args = 0, pretend = 0, frame = 0
	@ frame_needed = 1, uses_anonymous_args = 0
	UNWIND(.movsp ip)
	mov	ip, sp
	stmfd	sp!, {r4, r5, r6, r7, fp, ip, lr, pc}
	UNWIND(.pad #4)
	UNWIND(.save {r4, r5, r6, r7, fp, ip, lr})
	UNWIND(.setfp fp, ip, #-4)
	sub	fp, ip, #4
	UNWIND(.pad #8)
	sub	sp, sp, #8
	subs	r5, r1, #0
	mov	r6, r0
	beq	.L1913
	add	r7, r5, #56
	mov	r4, r5
	mov	r3, #0
	str	r3, [r5, #32]
	str	r3, [r5, #36]
.L1908:
	ldr	r3, [r4, #40]
	mov	r0, r6
	cmp	r3, #0
	beq	.L1907
	ldr	r1, [r4, #64]
	bl	SM_ReleaseStreamSeg
	ldr	ip, [r4, #44]
	ldr	r3, [r4, #40]
	mov	r0, #7
	ldr	r2, .L1914
	ldr	r1, .L1914+4
	str	ip, [sp]
	bl	dprint_vfmw
	mov	r3, #0
	str	r3, [r4, #40]
	str	r3, [r4, #56]
	str	r3, [r4, #44]
.L1907:
	add	r4, r4, #28
	cmp	r4, r7
	bne	.L1908
	ldr	r3, .L1914+8
	mov	r0, r5
	mov	r2, #96
	mov	r1, #0
	ldr	r3, [r3, #48]
	sub	sp, fp, #28
	ldmfd	sp, {r4, r5, r6, r7, fp, sp, lr}
	bx	r3
.L1913:
	mov	r0, r5
	movw	r3, #14320
	ldr	r2, .L1914+12
	ldr	r1, .L1914+16
	sub	sp, fp, #28
	ldmfd	sp, {r4, r5, r6, r7, fp, sp, lr}
	b	dprint_vfmw
.L1915:
	.align	2
.L1914:
	.word	.LANCHOR0+580
	.word	.LC160
	.word	vfmw_Osal_Func_Ptr_S
	.word	.LC2
	.word	.LC3
	UNWIND(.fnend)
	.size	HEVC_ReleaseNAL, .-HEVC_ReleaseNAL
	.align	2
	.global	HEVC_InitDecBuffers
	.type	HEVC_InitDecBuffers, %function
HEVC_InitDecBuffers:
	UNWIND(.fnstart)
	@ args = 0, pretend = 0, frame = 0
	@ frame_needed = 1, uses_anonymous_args = 0
	UNWIND(.movsp ip)
	mov	ip, sp
	stmfd	sp!, {r4, r5, r6, r7, r8, r9, r10, fp, ip, lr, pc}
	UNWIND(.pad #4)
	UNWIND(.save {r4, r5, r6, r7, r8, r9, r10, fp, ip, lr})
	UNWIND(.setfp fp, ip, #-4)
	sub	fp, ip, #4
	UNWIND(.pad #12)
	sub	sp, sp, #12
	ldrb	r3, [r0, #1]	@ zero_extendqisi2
	mov	r6, r0
	cmp	r3, #1
	beq	.L1952
.L1917:
	ldr	r3, [r6, #2840]
	ldr	r3, [r3, #184]
	add	r3, r3, #1
	str	r3, [r6, #3036]
.L1919:
	cmp	r3, #17
	bhi	.L1953
.L1920:
	add	lr, r6, #3264
	add	ip, r6, #3328
	add	r0, r6, #3200
	add	r1, r6, #3056
	mov	r7, #0
	add	lr, lr, #8
	add	ip, ip, #12
	add	r0, r0, #4
	add	r1, r1, #12
	add	r5, r6, #3408
	add	r4, r6, #3136
	mov	r2, r7
	mov	r3, r7
	str	r7, [r6, #3040]
	str	r7, [r6, #3052]
	str	r7, [r6, #3056]
	str	r7, [r6, #3048]
	str	r7, [r6, #3044]
	str	r7, [r6, #3064]
	str	r7, [r6, #3068]
.L1921:
	add	r2, r2, #1
	str	r3, [r5, #4]!
	cmp	r2, #17
	str	r3, [lr, #4]!
	str	r3, [ip, #4]!
	str	r3, [r0, #4]!
	str	r3, [r1, #4]!
	str	r3, [r4, #4]!
	bne	.L1921
	add	r4, r6, #13760
	ldr	r9, .L1954
	add	r4, r4, #48
	mov	r7, #0
.L1922:
	ldr	r3, [r9, #48]
	mov	r2, #640
	mov	r0, r4
	mov	r1, #0
	blx	r3
	str	r7, [r4, #148]
	add	r7, r7, #1
	mov	r5, #0
	cmp	r7, #20
	sub	r3, r4, #80
	strb	r5, [r4, #-80]
	mov	r2, #20
	str	r5, [r4, #-32]
	mov	r8, #16
	strb	r5, [r4, #-79]
	add	r4, r4, #720
	str	r5, [r4, #-792]
	strb	r5, [r4, #-798]
	str	r5, [r4, #-744]
	str	r2, [r4, #-780]
	str	r8, [r4, #-776]
	str	r3, [r4, #-724]
	ldr	r10, .L1954
	bne	.L1922
	add	r0, r6, #13120
	add	r4, r6, #12288
	ldr	r3, [r10, #48]
	mov	r2, #280
	mov	r1, r5
	add	r0, r0, #44
	blx	r3
	add	r0, r6, #13440
	ldr	r3, [r10, #48]
	mov	r2, #280
	mov	r1, r5
	add	r0, r0, #4
	str	r8, [r4, #876]
	str	r5, [r4, #880]
	blx	r3
	add	r3, r6, #2928
	add	r3, r3, #4
	add	r2, r6, #2864
	mov	r1, r5
	str	r8, [r4, #1156]
	str	r5, [r4, #1160]
.L1923:
	str	r1, [r2, #4]!
	cmp	r2, r3
	mov	r0, #0
	bne	.L1923
	add	r1, r6, #2992
	add	lr, r6, #4096
	add	r1, r1, #8
	mov	ip, r0
	str	r0, [lr, #780]
.L1924:
	str	ip, [r3, #4]!
	cmp	r3, r1
	mov	r2, #0
	bne	.L1924
	str	r2, [lr, #784]
	ldr	r0, [r6, #184]
	cmp	r0, r2
	addne	r1, r6, #2160
	movne	r3, r2
	addne	r1, r1, #4
	movne	r2, r3
	beq	.L1929
.L1928:
	add	r3, r3, #1
	str	r2, [r1, #4]!
	cmp	r3, r0
	bne	.L1928
.L1929:
	ldr	r2, [r6, #168]
	cmp	r2, #0
	movne	r4, #0
	movne	r5, r4
	beq	.L1916
.L1934:
	ldr	r3, [r6, #2848]
	mov	r7, r4, asl #2
	ldr	r1, [r3, r4, asl #2]
	cmp	r1, #0
	beq	.L1930
	ldr	r3, [r6, #2828]
	cmp	r1, r3
	beq	.L1930
	ldr	r0, [r6, #276]
	bl	HEVC_ReleaseNAL
	ldr	r3, [r6, #2848]
	str	r5, [r3, r7]
	ldr	r3, [r6, #204]
	ldr	r2, [r6, #260]
	cmp	r3, #0
	subne	r3, r3, #1
	cmp	r2, #0
	str	r3, [r6, #204]
	subne	r2, r2, #1
	ldr	r3, [r6, #176]
	str	r2, [r6, #260]
	ldr	r2, [r6, #168]
	cmp	r3, #2
	subhi	r3, r3, #1
	movls	r3, #2
	str	r3, [r6, #176]
.L1930:
	add	r4, r4, #1
	cmp	r2, r4
	bhi	.L1934
.L1916:
	sub	sp, fp, #40
	ldmfd	sp, {r4, r5, r6, r7, r8, r9, r10, fp, sp, pc}
.L1953:
	mov	r4, #17
	ldr	r2, .L1954+4
	str	r4, [sp]
	mov	r3, r4
	ldr	r1, .L1954+8
	mov	r0, #1
	bl	dprint_vfmw
	str	r4, [r6, #3036]
	b	.L1920
.L1952:
	ldr	r3, [r0, #2856]
	ldr	r3, [r3, #24]
	bics	r3, r3, #4
	beq	.L1917
	ldr	r2, [r0, #2392]
	cmp	r2, #0
	beq	.L1917
	ldr	r3, [r6, #2840]
	ldr	r3, [r3, #184]
	mul	r3, r3, r2
	add	r3, r3, #1
	str	r3, [r6, #3036]
	b	.L1919
.L1955:
	.align	2
.L1954:
	.word	vfmw_Osal_Func_Ptr_S
	.word	.LANCHOR0+596
	.word	.LC161
	UNWIND(.fnend)
	.size	HEVC_InitDecBuffers, .-HEVC_InitDecBuffers
	.align	2
	.global	HEVC_EmptyFrmFromDPB
	.type	HEVC_EmptyFrmFromDPB, %function
HEVC_EmptyFrmFromDPB:
	UNWIND(.fnstart)
	@ args = 0, pretend = 0, frame = 0
	@ frame_needed = 1, uses_anonymous_args = 0
	UNWIND(.movsp ip)
	mov	ip, sp
	stmfd	sp!, {r4, r5, r6, r7, r8, r9, fp, ip, lr, pc}
	UNWIND(.pad #4)
	UNWIND(.save {r4, r5, r6, r7, r8, r9, fp, ip, lr})
	UNWIND(.setfp fp, ip, #-4)
	sub	fp, ip, #4
	subs	r6, r0, #0
	beq	.L1967
	ldr	ip, [r6, #3040]
	add	r8, r6, #3200
	cmp	ip, #0
	addne	r8, r8, #4
	movne	r3, #0
	movne	lr, #1
	movne	r1, r8
	beq	.L1982
.L1961:
	ldr	r2, [r1, #4]!
	add	r3, r3, #1
	ldrb	r0, [r2, #2]	@ zero_extendqisi2
	cmp	r0, #0
	streqb	lr, [r2, #2]
	ldreq	ip, [r6, #3040]
	cmp	ip, r3
	bhi	.L1961
.L1962:
	mov	r4, r6
	mov	r7, #17
	mov	r5, #0
	mov	r3, #-2147483647
	str	r3, [r6, #212]
	str	r3, [r6, #216]
.L1959:
	ldr	r3, [r8, #4]!
	mov	r2, #1
	cmp	r3, #0
	beq	.L1963
	ldr	r1, [r3, #28]
	ldr	r0, [r6, #276]
	bl	FSP_ClearLogicFs
.L1963:
	ldr	r3, [r4, #3276]
	mov	r2, #1
	cmp	r3, #0
	beq	.L1964
	ldr	r1, [r3, #28]
	ldr	r0, [r6, #276]
	bl	FSP_ClearLogicFs
.L1964:
	ldr	r3, [r4, #3344]
	mov	r2, #1
	cmp	r3, #0
	beq	.L1965
	ldr	r1, [r3, #28]
	ldr	r0, [r6, #276]
	bl	FSP_ClearLogicFs
.L1965:
	ldr	r3, [r4, #3412]
	mov	r2, #1
	cmp	r3, #0
	beq	.L1966
	ldr	r1, [r3, #28]
	ldr	r0, [r6, #276]
	bl	FSP_ClearLogicFs
.L1966:
	subs	r7, r7, #1
	str	r5, [r4, #3412]
	str	r5, [r4, #3344]
	add	r4, r4, #4
	str	r5, [r4, #3272]
	str	r5, [r4, #3204]
	bne	.L1959
	mov	r0, r6
	bl	HEVC_InitDecBuffers
	mov	r0, r7
	ldmfd	sp, {r4, r5, r6, r7, r8, r9, fp, sp, pc}
.L1982:
	add	r8, r8, #4
	b	.L1962
.L1967:
	mvn	r0, #0
	ldmfd	sp, {r4, r5, r6, r7, r8, r9, fp, sp, pc}
	UNWIND(.fnend)
	.size	HEVC_EmptyFrmFromDPB, .-HEVC_EmptyFrmFromDPB
	.align	2
	.global	HEVC_CombinePacket
	.type	HEVC_CombinePacket, %function
HEVC_CombinePacket:
	UNWIND(.fnstart)
	@ args = 0, pretend = 0, frame = 0
	@ frame_needed = 1, uses_anonymous_args = 0
	UNWIND(.movsp ip)
	mov	ip, sp
	stmfd	sp!, {r4, r5, fp, ip, lr, pc}
	UNWIND(.pad #4)
	UNWIND(.save {r4, r5, fp, ip, lr})
	UNWIND(.setfp fp, ip, #-4)
	sub	fp, ip, #4
	mov	r4, r0
	ldr	r0, [r0, #2828]
	cmp	r0, #0
	beq	.L1986
	ldr	r3, [r0, #44]
	cmp	r3, #4096
	ldmcsfd	sp, {r4, r5, fp, sp, pc}
	ldr	r1, .L1987
	mov	r0, #7
	bl	dprint_vfmw
	ldr	r3, [r4, #2828]
	ldr	ip, .L1987+4
	mov	r5, #0
	ldr	r2, [r3, #44]
	ldr	r0, [r3, #68]
	ldr	r1, [r3, #40]
	rsb	r0, r2, r0
	ldr	r3, [ip, #52]
	blx	r3
	ldr	r3, [r4, #2828]
	mov	r0, #1
	ldr	r2, [r3, #92]
	ldr	r1, [r3, #64]
	str	r2, [r3, #64]
	ldr	r3, [r4, #2828]
	str	r5, [r3, #56]
	ldr	r3, [r4, #2828]
	ldr	ip, [r3, #44]
	ldr	r2, [r3, #68]
	rsb	r2, ip, r2
	str	r2, [r3, #40]
	ldr	r3, [r4, #2828]
	ldr	ip, [r3, #44]
	ldr	r2, [r3, #76]
	rsb	r2, ip, r2
	str	r2, [r3, #48]
	ldr	r3, [r4, #2828]
	ldr	r2, [r3, #44]
	ldr	ip, [r3, #72]
	add	r2, r2, ip
	str	r2, [r3, #44]
	ldr	r3, [r4, #2828]
	str	r0, [r3, #8]
	ldr	r0, [r4, #276]
	bl	SM_ReleaseStreamSeg
	ldr	r3, [r4, #2828]
	str	r5, [r3, #68]
	ldr	r3, [r4, #2828]
	str	r5, [r3, #84]
	ldr	r3, [r4, #2828]
	str	r5, [r3, #72]
	ldmfd	sp, {r4, r5, fp, sp, pc}
.L1986:
	ldr	r1, .L1987+8
	sub	sp, fp, #20
	ldmfd	sp, {r4, r5, fp, sp, lr}
	b	dprint_vfmw
.L1988:
	.align	2
.L1987:
	.word	.LC163
	.word	vfmw_Osal_Func_Ptr_S
	.word	.LC162
	UNWIND(.fnend)
	.size	HEVC_CombinePacket, .-HEVC_CombinePacket
	.align	2
	.global	HEVC_IsOutDPB
	.type	HEVC_IsOutDPB, %function
HEVC_IsOutDPB:
	UNWIND(.fnstart)
	@ args = 0, pretend = 0, frame = 0
	@ frame_needed = 1, uses_anonymous_args = 0
	UNWIND(.movsp ip)
	mov	ip, sp
	stmfd	sp!, {fp, ip, lr, pc}
	UNWIND(.pad #4)
	UNWIND(.save {fp, ip, lr})
	UNWIND(.setfp fp, ip, #-4)
	sub	fp, ip, #4
	cmp	r1, #0
	beq	.L1994
	ldr	ip, [r0, #3040]
	cmp	ip, #0
	beq	.L1994
	ldr	r3, [r0, #3208]
	cmp	r3, r1
	beq	.L1996
	add	r0, r0, #3200
	mov	r3, #0
	add	r0, r0, #8
	b	.L1991
.L1992:
	ldr	r2, [r0, #4]!
	cmp	r2, r1
	beq	.L1996
.L1991:
	add	r3, r3, #1
	cmp	r3, ip
	bne	.L1992
.L1994:
	mov	r0, #1
	ldmfd	sp, {fp, sp, pc}
.L1996:
	mov	r0, #0
	ldmfd	sp, {fp, sp, pc}
	UNWIND(.fnend)
	.size	HEVC_IsOutDPB, .-HEVC_IsOutDPB
	.align	2
	.global	HEVC_IsNewPicNal
	.type	HEVC_IsNewPicNal, %function
HEVC_IsNewPicNal:
	UNWIND(.fnstart)
	@ args = 0, pretend = 0, frame = 0
	@ frame_needed = 1, uses_anonymous_args = 0
	UNWIND(.movsp ip)
	mov	ip, sp
	stmfd	sp!, {fp, ip, lr, pc}
	UNWIND(.pad #4)
	UNWIND(.save {fp, ip, lr})
	UNWIND(.setfp fp, ip, #-4)
	sub	fp, ip, #4
	mov	r0, #0
	ldmfd	sp, {fp, sp, pc}
	UNWIND(.fnend)
	.size	HEVC_IsNewPicNal, .-HEVC_IsNewPicNal
	.align	2
	.global	HEVC_u_v
	.type	HEVC_u_v, %function
HEVC_u_v:
	UNWIND(.fnstart)
	@ args = 0, pretend = 0, frame = 0
	@ frame_needed = 1, uses_anonymous_args = 0
	UNWIND(.movsp ip)
	mov	ip, sp
	stmfd	sp!, {fp, ip, lr, pc}
	UNWIND(.pad #4)
	UNWIND(.save {fp, ip, lr})
	UNWIND(.setfp fp, ip, #-4)
	sub	fp, ip, #4
	sub	sp, fp, #12
	ldmia	sp, {fp, sp, lr}
	b	BsGet
	UNWIND(.fnend)
	.size	HEVC_u_v, .-HEVC_u_v
	.align	2
	.global	HEVC_f_v
	.type	HEVC_f_v, %function
HEVC_f_v:
	UNWIND(.fnstart)
	@ args = 0, pretend = 0, frame = 0
	@ frame_needed = 1, uses_anonymous_args = 0
	UNWIND(.movsp ip)
	mov	ip, sp
	stmfd	sp!, {fp, ip, lr, pc}
	UNWIND(.pad #4)
	UNWIND(.save {fp, ip, lr})
	UNWIND(.setfp fp, ip, #-4)
	sub	fp, ip, #4
	sub	sp, fp, #12
	ldmia	sp, {fp, sp, lr}
	b	BsGet
	UNWIND(.fnend)
	.size	HEVC_f_v, .-HEVC_f_v
	.align	2
	.global	HEVC_ue_v
	.type	HEVC_ue_v, %function
HEVC_ue_v:
	UNWIND(.fnstart)
	@ args = 0, pretend = 0, frame = 0
	@ frame_needed = 1, uses_anonymous_args = 0
	UNWIND(.movsp ip)
	mov	ip, sp
	stmfd	sp!, {r4, r5, fp, ip, lr, pc}
	UNWIND(.pad #4)
	UNWIND(.save {r4, r5, fp, ip, lr})
	UNWIND(.setfp fp, ip, #-4)
	sub	fp, ip, #4
	mov	r1, #32
	mov	r5, r0
	bl	BsShow
	bl	ZerosMS_32
	cmp	r0, #31
	bls	.L2003
	movw	r0, #61166
	movt	r0, 65535
	ldmfd	sp, {r4, r5, fp, sp, pc}
.L2003:
	add	r4, r0, #1
	mov	r1, r0
	mov	r0, r5
	bl	BsSkip
	mov	r1, r4
	mov	r0, r5
	bl	BsShow
	mov	r1, r4
	sub	r4, r0, #1
	mov	r0, r5
	bl	BsSkip
	mov	r0, r4
	ldmfd	sp, {r4, r5, fp, sp, pc}
	UNWIND(.fnend)
	.size	HEVC_ue_v, .-HEVC_ue_v
	.align	2
	.global	HEVC_Sei_Tone_Mapping_Info
	.type	HEVC_Sei_Tone_Mapping_Info, %function
HEVC_Sei_Tone_Mapping_Info:
	UNWIND(.fnstart)
	@ args = 0, pretend = 0, frame = 0
	@ frame_needed = 1, uses_anonymous_args = 0
	UNWIND(.movsp ip)
	mov	ip, sp
	stmfd	sp!, {r4, r5, r6, r7, r8, r9, fp, ip, lr, pc}
	UNWIND(.pad #4)
	UNWIND(.save {r4, r5, r6, r7, r8, r9, fp, ip, lr})
	UNWIND(.setfp fp, ip, #-4)
	sub	fp, ip, #4
	ldr	r1, .L2026
	mov	r4, r0
	ldr	r0, [r0, #2808]
	bl	HEVC_ue_v
	ldr	r0, [r4, #2808]
	mov	r1, #1
	bl	BsGet
	tst	r0, #255
	beq	.L2023
.L2009:
	mov	r1, #32
	ldr	r0, [r4, #2808]
	bl	BsGet
	ldr	r0, [r4, #2808]
	mov	r1, #32
	bl	BsGet
	mov	r0, #0
	ldmfd	sp, {r4, r5, r6, r7, r8, r9, fp, sp, pc}
.L2023:
	mov	r1, #1
	ldr	r0, [r4, #2808]
	bl	BsGet
	mov	r1, #8
	ldr	r0, [r4, #2808]
	bl	BsGet
	mov	r1, #8
	mov	r6, r0
	ldr	r0, [r4, #2808]
	bl	BsGet
	cmp	r0, #8
	mov	r7, r0
	bhi	.L2024
	mov	r1, #8
	ldr	r0, [r4, #2808]
	bl	BsGet
	cmp	r0, #4
	ldrls	pc, [pc, r0, asl #2]
	b	.L2020
.L2008:
	.word	.L2009
	.word	.L2009
	.word	.L2010
	.word	.L2011
	.word	.L2012
.L2011:
	mov	r1, #16
	ldr	r0, [r4, #2808]
	bl	BsGet
	cmp	r0, #256
	mov	r8, r0
	bhi	.L2016
	cmp	r0, #0
	beq	.L2020
	add	r6, r6, #7
	add	r7, r7, #7
	bic	r6, r6, #7
	bic	r7, r7, #7
	mov	r5, #0
.L2018:
	mov	r1, r6
	ldr	r0, [r4, #2808]
	bl	BsGet
	add	r5, r5, #1
	mov	r1, r7
	ldr	r0, [r4, #2808]
	bl	BsGet
	cmp	r5, r8
	bne	.L2018
.L2020:
	mov	r0, #0
	ldmfd	sp, {r4, r5, r6, r7, r8, r9, fp, sp, pc}
.L2010:
	mov	r2, #1
	movs	r7, r2, asl r7
	addne	r6, r6, #7
	movne	r5, #0
	bicne	r6, r6, #7
	beq	.L2020
.L2014:
	add	r5, r5, #1
	mov	r1, r6
	ldr	r0, [r4, #2808]
	bl	BsGet
	cmp	r7, r5
	bne	.L2014
	mov	r0, #0
	ldmfd	sp, {r4, r5, r6, r7, r8, r9, fp, sp, pc}
.L2012:
	mov	r1, #8
	ldr	r0, [r4, #2808]
	bl	BsGet
	cmp	r0, #255
	beq	.L2025
.L2019:
	mov	r1, #1
	ldr	r0, [r4, #2808]
	bl	BsGet
	mov	r1, #16
	ldr	r0, [r4, #2808]
	bl	BsGet
	mov	r1, #16
	ldr	r0, [r4, #2808]
	bl	BsGet
	mov	r1, #32
	ldr	r0, [r4, #2808]
	bl	BsGet
	mov	r1, #32
	ldr	r0, [r4, #2808]
	bl	BsGet
	mov	r1, #16
	ldr	r0, [r4, #2808]
	bl	BsGet
	mov	r1, #16
	ldr	r0, [r4, #2808]
	bl	BsGet
	mov	r1, #16
	ldr	r0, [r4, #2808]
	bl	BsGet
	ldr	r0, [r4, #2808]
	mov	r1, #16
	bl	BsGet
	mov	r0, #0
	ldmfd	sp, {r4, r5, r6, r7, r8, r9, fp, sp, pc}
.L2025:
	mov	r1, #32
	ldr	r0, [r4, #2808]
	bl	BsGet
	b	.L2019
.L2024:
	mov	r2, r0
	ldr	r1, .L2026+4
	mov	r0, #1
	bl	dprint_vfmw
	mvn	r0, #0
	ldmfd	sp, {r4, r5, r6, r7, r8, r9, fp, sp, pc}
.L2016:
	ldr	r1, .L2026+8
	mov	r0, #1
	bl	dprint_vfmw
	mvn	r0, #0
	ldmfd	sp, {r4, r5, r6, r7, r8, r9, fp, sp, pc}
.L2027:
	.align	2
.L2026:
	.word	.LC164
	.word	.LC165
	.word	.LC166
	UNWIND(.fnend)
	.size	HEVC_Sei_Tone_Mapping_Info, .-HEVC_Sei_Tone_Mapping_Info
	.align	2
	.global	HEVC_Sei_Frame_Packing_Arrangement
	.type	HEVC_Sei_Frame_Packing_Arrangement, %function
HEVC_Sei_Frame_Packing_Arrangement:
	UNWIND(.fnstart)
	@ args = 0, pretend = 0, frame = 0
	@ frame_needed = 1, uses_anonymous_args = 0
	UNWIND(.movsp ip)
	mov	ip, sp
	stmfd	sp!, {r4, r5, r6, r7, fp, ip, lr, pc}
	UNWIND(.pad #4)
	UNWIND(.save {r4, r5, r6, r7, fp, ip, lr})
	UNWIND(.setfp fp, ip, #-4)
	sub	fp, ip, #4
	ldr	r1, .L2038
	mov	r4, r0
	ldr	r0, [r0, #2808]
	bl	HEVC_ue_v
	ldr	r0, [r4, #2808]
	mov	r1, #1
	bl	BsGet
	tst	r0, #255
	bne	.L2029
	mov	r1, #7
	ldr	r0, [r4, #2808]
	bl	BsGet
	sub	r3, r0, #3
	mov	r6, r0
	cmp	r3, #2
	bhi	.L2036
	mov	r1, #1
	ldr	r0, [r4, #2808]
	bl	BsGet
	mov	r1, #6
	mov	r5, r0
	ldr	r0, [r4, #2808]
	bl	BsGet
	mov	r1, #1
	ldr	r0, [r4, #2808]
	uxtb	r5, r5
	bl	BsGet
	mov	r1, #1
	ldr	r0, [r4, #2808]
	clz	r5, r5
	bl	BsGet
	mov	r1, #1
	ldr	r0, [r4, #2808]
	mov	r5, r5, lsr #5
	bl	BsGet
	mov	r1, #1
	ldr	r0, [r4, #2808]
	bl	BsGet
	mov	r1, #1
	ldr	r0, [r4, #2808]
	bl	BsGet
	mov	r1, #1
	ldr	r0, [r4, #2808]
	bl	BsGet
	cmp	r6, #5
	moveq	r5, #0
	cmp	r5, #0
	bne	.L2037
.L2032:
	mov	r1, #8
	ldr	r0, [r4, #2808]
	bl	BsGet
	mov	r1, #1
	ldr	r0, [r4, #2808]
	bl	BsGet
.L2029:
	mov	r1, #1
	ldr	r0, [r4, #2808]
	bl	BsGet
	ldr	r0, [r4, #2808]
	bl	BsToNextByte
	mov	r0, #0
	ldmfd	sp, {r4, r5, r6, r7, fp, sp, pc}
.L2037:
	mov	r1, #4
	ldr	r0, [r4, #2808]
	bl	BsGet
	mov	r1, #4
	ldr	r0, [r4, #2808]
	bl	BsGet
	mov	r1, #4
	ldr	r0, [r4, #2808]
	bl	BsGet
	mov	r1, #4
	ldr	r0, [r4, #2808]
	bl	BsGet
	b	.L2032
.L2036:
	mov	r2, r0
	ldr	r1, .L2038+4
	mov	r0, #1
	bl	dprint_vfmw
	mvn	r0, #0
	ldmfd	sp, {r4, r5, r6, r7, fp, sp, pc}
.L2039:
	.align	2
.L2038:
	.word	.LC167
	.word	.LC168
	UNWIND(.fnend)
	.size	HEVC_Sei_Frame_Packing_Arrangement, .-HEVC_Sei_Frame_Packing_Arrangement
	.align	2
	.global	HEVC_Sei_Dec_Unit_Info
	.type	HEVC_Sei_Dec_Unit_Info, %function
HEVC_Sei_Dec_Unit_Info:
	UNWIND(.fnstart)
	@ args = 0, pretend = 0, frame = 0
	@ frame_needed = 1, uses_anonymous_args = 0
	UNWIND(.movsp ip)
	mov	ip, sp
	stmfd	sp!, {r4, r5, fp, ip, lr, pc}
	UNWIND(.pad #4)
	UNWIND(.save {r4, r5, fp, ip, lr})
	UNWIND(.setfp fp, ip, #-4)
	sub	fp, ip, #4
	cmp	r2, #0
	cmpne	r1, #0
	mov	r5, r2
	mov	r4, r0
	moveq	r1, #1
	movne	r1, #0
	cmp	r0, #0
	orreq	r1, r1, #1
	cmp	r1, #0
	bne	.L2044
	ldr	r1, .L2053
	ldr	r0, [r0, #2808]
	bl	HEVC_ue_v
	ldrb	r3, [r5, #3]	@ zero_extendqisi2
	cmp	r3, #0
	bne	.L2051
.L2042:
	mov	r1, #1
	ldr	r0, [r4, #2808]
	bl	BsGet
	tst	r0, #255
	bne	.L2052
.L2043:
	ldr	r0, [r4, #2808]
	bl	BsToNextByte
	mov	r0, #0
	ldmfd	sp, {r4, r5, fp, sp, pc}
.L2051:
	ldr	r1, [r5, #4]
	ldr	r0, [r4, #2808]
	add	r1, r1, #1
	bl	BsGet
	b	.L2042
.L2052:
	ldr	r1, [r5, #8]
	ldr	r0, [r4, #2808]
	add	r1, r1, #1
	bl	BsGet
	b	.L2043
.L2044:
	mvn	r0, #0
	ldmfd	sp, {r4, r5, fp, sp, pc}
.L2054:
	.align	2
.L2053:
	.word	.LC169
	UNWIND(.fnend)
	.size	HEVC_Sei_Dec_Unit_Info, .-HEVC_Sei_Dec_Unit_Info
	.align	2
	.global	HEVC_Sei_Active_Param_sets
	.type	HEVC_Sei_Active_Param_sets, %function
HEVC_Sei_Active_Param_sets:
	UNWIND(.fnstart)
	@ args = 0, pretend = 0, frame = 0
	@ frame_needed = 1, uses_anonymous_args = 0
	UNWIND(.movsp ip)
	mov	ip, sp
	stmfd	sp!, {r4, r5, r6, r7, fp, ip, lr, pc}
	UNWIND(.pad #4)
	UNWIND(.save {r4, r5, r6, r7, fp, ip, lr})
	UNWIND(.setfp fp, ip, #-4)
	sub	fp, ip, #4
	mov	r1, #4
	mov	r5, r0
	ldr	r0, [r0, #2808]
	bl	BsGet
	mov	r1, #1
	ldr	r0, [r5, #2808]
	bl	BsGet
	mov	r1, #1
	ldr	r0, [r5, #2808]
	bl	BsGet
	ldr	r0, [r5, #2808]
	ldr	r1, .L2062
	bl	HEVC_ue_v
	cmp	r0, #15
	bgt	.L2056
	cmp	r0, #0
	addge	r6, r0, #1
	movge	r4, #0
	blt	.L2060
.L2059:
	add	r4, r4, #1
	ldr	r1, .L2062+4
	ldr	r0, [r5, #2808]
	bl	HEVC_ue_v
	cmp	r4, r6
	bne	.L2059
.L2060:
	ldr	r0, [r5, #2808]
	bl	BsToNextByte
	mov	r0, #0
	ldmfd	sp, {r4, r5, r6, r7, fp, sp, pc}
.L2056:
	ldr	r1, .L2062+8
	mov	r0, #1
	bl	dprint_vfmw
	mvn	r0, #0
	ldmfd	sp, {r4, r5, r6, r7, fp, sp, pc}
.L2063:
	.align	2
.L2062:
	.word	.LC170
	.word	.LC172
	.word	.LC171
	UNWIND(.fnend)
	.size	HEVC_Sei_Active_Param_sets, .-HEVC_Sei_Active_Param_sets
	.align	2
	.global	HEVC_Sei_Buf_Period
	.type	HEVC_Sei_Buf_Period, %function
HEVC_Sei_Buf_Period:
	UNWIND(.fnstart)
	@ args = 0, pretend = 0, frame = 0
	@ frame_needed = 1, uses_anonymous_args = 0
	UNWIND(.movsp ip)
	mov	ip, sp
	stmfd	sp!, {r4, r5, r6, r7, r8, r9, fp, ip, lr, pc}
	UNWIND(.pad #4)
	UNWIND(.save {r4, r5, r6, r7, r8, r9, fp, ip, lr})
	UNWIND(.setfp fp, ip, #-4)
	sub	fp, ip, #4
	add	r4, r0, #8192
	mov	r5, r0
	mov	r9, r1
	mov	r6, #0
	ldr	r1, .L2093
	mov	r7, r2
	str	r6, [r4, #3544]
	ldr	r0, [r0, #2808]
	bl	HEVC_ue_v
	cmp	r0, #15
	bhi	.L2089
	mov	r1, #1
	strb	r1, [r4, #3537]
	ldrb	r3, [r7, #2]	@ zero_extendqisi2
	cmp	r3, #0
	movne	r8, r6
	beq	.L2090
.L2067:
	mov	r1, #1
	ldr	r0, [r5, #2808]
	bl	BsGet
	mov	r4, #1
	strb	r0, [r9]
	ldr	r1, [r7, #16]
	ldr	r0, [r5, #2808]
	add	r1, r1, r4
	bl	BsGet
	subs	r3, r4, #1
	beq	.L2091
.L2069:
	cmp	r3, #1
	beq	.L2092
.L2073:
	cmp	r4, #1
	bhi	.L2072
.L2071:
	add	r4, r4, #1
	subs	r3, r4, #1
	bne	.L2069
.L2091:
	ldrb	r2, [r7]	@ zero_extendqisi2
	cmp	r2, #0
	beq	.L2073
	ldr	r2, [r7, #24]
	cmn	r2, #1
	beq	.L2071
.L2080:
	mov	r6, #0
	b	.L2076
.L2075:
	ldr	r3, [r7, #24]
	add	r3, r3, #1
	cmp	r3, r6
	bls	.L2073
.L2076:
	ldr	r1, [r7, #12]
	add	r6, r6, #1
	ldr	r0, [r5, #2808]
	add	r1, r1, #1
	bl	BsGet
	ldr	r1, [r7, #12]
	ldr	r0, [r5, #2808]
	add	r1, r1, #1
	bl	BsGet
	ldrb	r3, [r7, #2]	@ zero_extendqisi2
	orrs	r3, r8, r3
	beq	.L2075
	ldr	r1, [r7, #12]
	ldr	r0, [r5, #2808]
	add	r1, r1, #1
	bl	BsGet
	ldr	r1, [r7, #12]
	ldr	r0, [r5, #2808]
	add	r1, r1, #1
	bl	BsGet
	b	.L2075
.L2092:
	ldrb	r3, [r7, #1]	@ zero_extendqisi2
	cmp	r3, #0
	beq	.L2072
	ldr	r3, [r7, #24]
	cmn	r3, #1
	bne	.L2080
.L2072:
	ldr	r0, [r5, #2808]
	bl	BsToNextByte
	mov	r0, #0
	ldmfd	sp, {r4, r5, r6, r7, r8, r9, fp, sp, pc}
.L2090:
	ldr	r0, [r5, #2808]
	bl	BsGet
	uxtb	r8, r0
	cmp	r8, #0
	beq	.L2067
	ldr	r1, [r7, #16]
	ldr	r0, [r5, #2808]
	add	r1, r1, #1
	bl	BsGet
	ldr	r1, [r7, #20]
	ldr	r0, [r5, #2808]
	add	r1, r1, #1
	bl	BsGet
	b	.L2067
.L2089:
	mov	r2, r0
	ldr	r1, .L2093+4
	mov	r0, #1
	bl	dprint_vfmw
	mvn	r0, #0
	ldmfd	sp, {r4, r5, r6, r7, r8, r9, fp, sp, pc}
.L2094:
	.align	2
.L2093:
	.word	.LC173
	.word	.LC174
	UNWIND(.fnend)
	.size	HEVC_Sei_Buf_Period, .-HEVC_Sei_Buf_Period
	.align	2
	.global	HEVC_Sei_Pic_Timming
	.type	HEVC_Sei_Pic_Timming, %function
HEVC_Sei_Pic_Timming:
	UNWIND(.fnstart)
	@ args = 0, pretend = 0, frame = 0
	@ frame_needed = 1, uses_anonymous_args = 0
	UNWIND(.movsp ip)
	mov	ip, sp
	stmfd	sp!, {r4, r5, r6, r7, r8, r9, fp, ip, lr, pc}
	UNWIND(.pad #4)
	UNWIND(.save {r4, r5, r6, r7, r8, r9, fp, ip, lr})
	UNWIND(.setfp fp, ip, #-4)
	sub	fp, ip, #4
	add	r3, r0, #8192
	mov	r5, r2
	mov	r6, r1
	mov	r4, r0
	ldr	r1, [r3, #3540]
	ldr	r2, [r3, #3544]
	add	r1, r1, #1
	str	r1, [r3, #3540]
	add	r2, r2, #1
	str	r2, [r3, #3544]
	ldrb	r3, [r5, #2]	@ zero_extendqisi2
	cmp	r3, #0
	bne	.L2123
.L2096:
	ldrh	r3, [r5, #44]
	cmp	r3, #0
	beq	.L2098
	ldr	r1, [r5, #60]
	ldr	r0, [r4, #2808]
	add	r1, r1, #1
	bl	BsGet
	add	r0, r0, #1
	str	r0, [r6, #8]
	ldr	r1, [r5, #64]
	ldr	r0, [r4, #2808]
	add	r1, r1, #1
	bl	BsGet
	str	r0, [r6, #12]
	ldrb	r3, [r5, #46]	@ zero_extendqisi2
	cmp	r3, #0
	bne	.L2099
.L2102:
	ldr	r2, [r4, #276]
	ldr	r3, .L2126
	ldr	r3, [r3, r2, asl #2]
	ldrsb	r2, [r3, #44]
	cmp	r2, #1
	beq	.L2124
.L2098:
	ldr	r0, [r4, #2808]
	bl	BsToNextByte
	mov	r0, #0
	ldmfd	sp, {r4, r5, r6, r7, r8, r9, fp, sp, pc}
.L2123:
	mov	r1, #4
	ldr	r0, [r0, #2808]
	bl	BsGet
	mov	r1, #2
	str	r0, [r6]
	ldr	r0, [r4, #2808]
	bl	BsGet
	mov	r1, #1
	str	r0, [r6, #4]
	ldr	r0, [r4, #2808]
	bl	BsGet
	b	.L2096
.L2124:
	ldr	r2, [r3, #160]
	cmp	r2, #1
	bne	.L2098
	ldr	r3, [r3, #164]
	cmp	r3, #2
	bne	.L2098
	mov	r1, r5
	mov	r0, r4
	bl	HEVC_Sei_Get_Dpb_Output_Time
	b	.L2098
.L2099:
	ldr	r1, [r5, #52]
	ldr	r0, [r4, #2808]
	add	r1, r1, #1
	bl	BsGet
	ldrb	r3, [r5, #46]	@ zero_extendqisi2
	cmp	r3, #0
	beq	.L2102
	ldrb	r3, [r5, #47]	@ zero_extendqisi2
	cmp	r3, #0
	beq	.L2102
	ldr	r1, .L2126+4
	ldr	r0, [r4, #2808]
	bl	HEVC_ue_v
	mov	r1, #1
	mov	r7, r0
	ldr	r0, [r4, #2808]
	bl	BsGet
	uxtb	r8, r0
	cmp	r8, #0
	bne	.L2125
.L2103:
	cmp	r7, #255
	bhi	.L2107
	add	r7, r7, #1
	mov	r6, #0
	b	.L2106
.L2105:
	cmp	r6, r7
	beq	.L2102
.L2106:
	ldr	r1, .L2126+8
	add	r6, r6, #1
	ldr	r0, [r4, #2808]
	bl	HEVC_ue_v
	cmp	r8, #0
	bne	.L2105
	ldr	r1, [r5, #48]
	ldr	r0, [r4, #2808]
	add	r1, r1, #1
	bl	BsGet
	b	.L2105
.L2125:
	ldr	r1, [r5, #48]
	ldr	r0, [r4, #2808]
	add	r1, r1, #1
	bl	BsGet
	b	.L2103
.L2107:
	ldr	r1, .L2126+12
	mov	r0, #1
	bl	dprint_vfmw
	mvn	r0, #0
	ldmfd	sp, {r4, r5, r6, r7, r8, r9, fp, sp, pc}
.L2127:
	.align	2
.L2126:
	.word	s_pstVfmwChan
	.word	.LC175
	.word	.LC177
	.word	.LC176
	UNWIND(.fnend)
	.size	HEVC_Sei_Pic_Timming, .-HEVC_Sei_Pic_Timming
	.align	2
	.global	HEVC_Sei_Color_Volume_Reconstruction_Info
	.type	HEVC_Sei_Color_Volume_Reconstruction_Info, %function
HEVC_Sei_Color_Volume_Reconstruction_Info:
	UNWIND(.fnstart)
	@ args = 0, pretend = 0, frame = 0
	@ frame_needed = 1, uses_anonymous_args = 0
	UNWIND(.movsp ip)
	mov	ip, sp
	stmfd	sp!, {r4, r5, r6, r7, fp, ip, lr, pc}
	UNWIND(.pad #4)
	UNWIND(.save {r4, r5, r6, r7, fp, ip, lr})
	UNWIND(.setfp fp, ip, #-4)
	sub	fp, ip, #4
	cmp	r1, #0
	cmpne	r0, #0
	mov	r4, r0
	mov	r5, r1
	beq	.L2138
	ldr	r1, .L2142
	ldr	r0, [r0, #2808]
	bl	HEVC_ue_v
	mov	r1, #1
	ldr	r0, [r4, #2808]
	bl	BsGet
	tst	r0, #255
	beq	.L2130
.L2134:
	mov	r3, #1
	mov	r0, #0
	strb	r3, [r5]
	ldmfd	sp, {r4, r5, r6, r7, fp, sp, pc}
.L2130:
	mov	r1, #1
	ldr	r0, [r4, #2808]
	bl	BsGet
	mov	r1, #1
	ldr	r0, [r4, #2808]
	bl	BsGet
	uxtb	r0, r0
	cmp	r0, #1
	beq	.L2141
.L2131:
	mov	r1, #8
	ldr	r0, [r4, #2808]
	bl	BsGet
	mov	r1, #8
	strb	r0, [r5, #2]
	ldr	r0, [r4, #2808]
	bl	BsGet
	mov	r1, #8
	strb	r0, [r5, #3]
	ldr	r0, [r4, #2808]
	bl	BsGet
	mov	r1, #8
	strb	r0, [r5, #4]
	ldr	r0, [r4, #2808]
	bl	BsGet
	mov	r1, #8
	strb	r0, [r5, #5]
	ldr	r0, [r4, #2808]
	bl	BsGet
	mov	r1, #4
	strb	r0, [r5, #6]
	ldr	r0, [r4, #2808]
	bl	BsGet
	tst	r0, #255
	strb	r0, [r5, #7]
	addne	r7, r5, #7
	movne	r6, #0
	beq	.L2136
.L2135:
	mov	r1, #8
	ldr	r0, [r4, #2808]
	bl	BsGet
	mov	r1, #8
	add	r6, r6, #1
	strb	r0, [r7, #1]!
	ldr	r0, [r4, #2808]
	bl	BsGet
	strb	r0, [r7, #15]
	ldrb	r3, [r5, #7]	@ zero_extendqisi2
	cmp	r3, r6
	bhi	.L2135
.L2136:
	mov	r1, #4
	ldr	r0, [r4, #2808]
	bl	BsGet
	tst	r0, #255
	strb	r0, [r5, #38]
	addne	r7, r5, #38
	movne	r6, #0
	beq	.L2134
.L2137:
	mov	r1, #8
	ldr	r0, [r4, #2808]
	bl	BsGet
	mov	r1, #8
	add	r6, r6, #1
	strb	r0, [r7, #1]!
	ldr	r0, [r4, #2808]
	bl	BsGet
	strb	r0, [r7, #15]
	ldrb	r3, [r5, #38]	@ zero_extendqisi2
	cmp	r3, r6
	bhi	.L2137
	b	.L2134
.L2138:
	mvn	r0, #0
	ldmfd	sp, {r4, r5, r6, r7, fp, sp, pc}
.L2141:
	mov	r1, #8
	ldr	r0, [r4, #2808]
	bl	BsGet
	mov	r1, #8
	strb	r0, [r5, #1]
	ldr	r0, [r4, #2808]
	bl	BsGet
	b	.L2131
.L2143:
	.align	2
.L2142:
	.word	.LC178
	UNWIND(.fnend)
	.size	HEVC_Sei_Color_Volume_Reconstruction_Info, .-HEVC_Sei_Color_Volume_Reconstruction_Info
	.align	2
	.global	HEVC_Sei_User_Data_Registered_Itu_T_T35
	.type	HEVC_Sei_User_Data_Registered_Itu_T_T35, %function
HEVC_Sei_User_Data_Registered_Itu_T_T35:
	UNWIND(.fnstart)
	@ args = 0, pretend = 0, frame = 0
	@ frame_needed = 1, uses_anonymous_args = 0
	UNWIND(.movsp ip)
	mov	ip, sp
	stmfd	sp!, {r4, r5, r6, r7, fp, ip, lr, pc}
	UNWIND(.pad #4)
	UNWIND(.save {r4, r5, r6, r7, fp, ip, lr})
	UNWIND(.setfp fp, ip, #-4)
	sub	fp, ip, #4
	cmp	r1, #0
	cmpne	r0, #0
	mov	r6, r2
	mov	r5, r0
	moveq	r4, #1
	movne	r4, #0
	beq	.L2151
	cmp	r2, #3
	bls	.L2154
	mov	r1, #8
	ldr	r0, [r0, #2808]
	bl	BsGet
	mov	r1, #16
	ldr	r0, [r5, #2808]
	bl	BsGet
	mov	r1, #8
	ldr	r0, [r5, #2808]
	bl	BsGet
	uxtb	r0, r0
	cmp	r0, #2
	beq	.L2155
	cmp	r0, #4
	beq	.L2156
	subs	r6, r6, #4
	beq	.L2150
.L2149:
	add	r4, r4, #1
	mov	r1, #8
	ldr	r0, [r5, #2808]
	bl	BsGet
	cmp	r6, r4
	bne	.L2149
.L2150:
	mov	r0, #0
	ldmfd	sp, {r4, r5, r6, r7, fp, sp, pc}
.L2155:
	add	r1, r5, #3536
	mov	r0, r5
	bl	HEVC_Sei_TSI
	cmn	r0, #1
	movne	r0, #0
	moveq	r0, #1
	rsb	r0, r0, #0
	ldmfd	sp, {r4, r5, r6, r7, fp, sp, pc}
.L2156:
	add	r1, r5, #3536
	mov	r0, r5
	add	r1, r1, #3
	bl	HEVC_Sei_Color_Volume_Reconstruction_Info
	cmn	r0, #1
	movne	r0, #0
	moveq	r0, #1
	rsb	r0, r0, #0
	ldmfd	sp, {r4, r5, r6, r7, fp, sp, pc}
.L2151:
	mvn	r0, #0
	ldmfd	sp, {r4, r5, r6, r7, fp, sp, pc}
.L2154:
	ldr	r1, .L2157
	mov	r0, #1
	bl	dprint_vfmw
	mvn	r0, #0
	ldmfd	sp, {r4, r5, r6, r7, fp, sp, pc}
.L2158:
	.align	2
.L2157:
	.word	.LC179
	UNWIND(.fnend)
	.size	HEVC_Sei_User_Data_Registered_Itu_T_T35, .-HEVC_Sei_User_Data_Registered_Itu_T_T35
	.align	2
	.global	HEVC_DecShortTermRefPicSet
	.type	HEVC_DecShortTermRefPicSet, %function
HEVC_DecShortTermRefPicSet:
	UNWIND(.fnstart)
	@ args = 0, pretend = 0, frame = 16
	@ frame_needed = 1, uses_anonymous_args = 0
	UNWIND(.movsp ip)
	mov	ip, sp
	stmfd	sp!, {r4, r5, r6, r7, r8, r9, r10, fp, ip, lr, pc}
	UNWIND(.pad #4)
	UNWIND(.save {r4, r5, r6, r7, r8, r9, r10, fp, ip, lr})
	UNWIND(.setfp fp, ip, #-4)
	sub	fp, ip, #4
	UNWIND(.pad #20)
	sub	sp, sp, #20
	subs	r6, r3, #0
	mov	r5, r0
	mov	r9, r1
	mov	r4, r2
	bne	.L2204
.L2160:
	ldr	r1, .L2213
	ldr	r0, [r5, #2808]
	bl	HEVC_ue_v
	cmp	r0, #16
	str	r0, [r4]
	bhi	.L2205
	ldr	r1, .L2213+4
	ldr	r0, [r5, #2808]
	bl	HEVC_ue_v
	cmp	r0, #16
	str	r0, [r4, #4]
	bhi	.L2206
	ldr	r6, [r4]
	add	r2, r0, r6
	str	r2, [r4, #8]
	cmp	r2, #16
	bhi	.L2183
	cmp	r6, #0
	addne	r10, r4, #28
	addne	r9, r4, #11
	movne	r7, #0
	movne	r8, r7
	bne	.L2187
	b	.L2185
.L2186:
	str	r8, [r10, #4]!
	ldr	r0, [r5, #2808]
	bl	BsGet
	strb	r0, [r9, #1]!
	ldr	r6, [r4]
	cmp	r6, r7
	bls	.L2207
.L2187:
	ldr	r1, .L2213+8
	add	r7, r7, #1
	ldr	r0, [r5, #2808]
	bl	HEVC_ue_v
	mov	r1, #1
	cmp	r0, #32768
	mvn	r3, r0
	add	r8, r8, r3
	bcc	.L2186
	mov	r2, r0
	ldr	r1, .L2213+12
	mov	r0, #1
	bl	dprint_vfmw
	mvn	r0, #0
	sub	sp, fp, #40
	ldmfd	sp, {r4, r5, r6, r7, r8, r9, r10, fp, sp, pc}
.L2204:
	mov	r1, #1
	ldr	r0, [r0, #2808]
	bl	BsGet
	cmp	r0, #0
	beq	.L2160
	ldr	r7, [r9, #176]
	cmp	r7, r6
	movne	r0, #0
	beq	.L2208
.L2161:
	sub	r3, r6, #1
	rsb	r8, r0, r3
	cmp	r8, r3
	bhi	.L2209
	mov	r1, #1
	ldr	r0, [r5, #2808]
	bl	BsGet
	ldr	r1, .L2213+16
	mov	r6, r0
	ldr	r0, [r5, #2808]
	bl	HEVC_ue_v
	mov	r3, #164
	mul	r8, r3, r8
	mov	r3, r6, asl #1
	rsb	r3, r3, #1
	add	r2, r9, r8
	ldr	r2, [r2, #2172]
	cmp	r2, #16
	mla	r3, r0, r3, r3
	str	r3, [fp, #-56]
	bhi	.L2210
	add	r6, r8, #2192
	mov	r10, #0
	add	r6, r6, #4
	str	r10, [fp, #-48]
	add	r6, r9, r6
	str	r10, [fp, #-52]
	mov	r7, r10
	b	.L2170
.L2165:
	sub	r3, r0, #1
	cmp	r3, #1
	bls	.L2211
.L2166:
	add	r3, r9, r8
	add	r10, r10, #1
	add	r6, r6, #4
	ldr	r3, [r3, #2172]
	cmp	r3, r10
	bcc	.L2212
.L2170:
	mov	r1, #1
	ldr	r0, [r5, #2808]
	bl	BsGet
	cmp	r0, #0
	bne	.L2165
	mov	r1, #1
	ldr	r0, [r5, #2808]
	bl	BsGet
	mov	r0, r0, asl #1
	sub	r3, r0, #1
	cmp	r3, #1
	bhi	.L2166
.L2211:
	add	r3, r9, r8
	ldr	r2, [fp, #-56]
	add	r1, r4, r7
	add	ip, r7, #8
	ldr	r3, [r3, #2172]
	sub	r0, r0, #1
	clz	r0, r0
	add	r7, r7, #1
	cmp	r3, r10
	mov	r0, r0, lsr #5
	ldrhi	r3, [r6]
	movls	r3, #0
	add	r3, r3, r2
	str	r3, [r4, ip, asl #2]
	cmp	r3, #0
	mov	r3, r1
	strb	r0, [r1, #12]
	ldrlt	r3, [fp, #-52]
	ldrge	r3, [fp, #-48]
	addlt	r3, r3, #1
	addge	r3, r3, #1
	strlt	r3, [fp, #-52]
	strge	r3, [fp, #-48]
	b	.L2166
.L2212:
	ldr	r3, [fp, #-52]
	cmp	r7, #16
	ldr	r2, [fp, #-48]
	str	r7, [r4, #8]
	str	r3, [r4]
	str	r2, [r4, #4]
	bhi	.L2171
	cmp	r3, #16
	bhi	.L2171
	cmp	r2, #16
	bhi	.L2171
	cmp	r7, #1
	subhi	r7, r7, #1
	addhi	r8, r4, #32
	addhi	r6, r4, #12
	movhi	r5, #0
	bls	.L2177
.L2176:
	ldr	ip, [r8, #4]!
	cmp	r5, #0
	ldrb	lr, [r6, #1]!	@ zero_extendqisi2
	mov	r2, r5
	movge	r1, r8
	movge	r3, r6
	blt	.L2179
.L2175:
	ldr	r0, [r1, #-4]!
	sub	r3, r3, #1
	cmp	ip, r0
	strlt	r0, [r1, #4]
	ldrltb	r0, [r3]	@ zero_extendqisi2
	strltb	r0, [r3, #1]
	strlt	ip, [r1]
	strltb	lr, [r3]
	subs	r2, r2, #1
	bpl	.L2175
.L2179:
	add	r5, r5, #1
	cmp	r5, r7
	bne	.L2176
.L2177:
	ldr	r3, [fp, #-52]
	movs	r6, r3, lsr #1
	beq	.L2174
	ldr	r3, [fp, #-52]
	add	r0, r4, #28
	mov	r1, #0
	add	r2, r3, #7
	add	r3, r3, #11
	add	r3, r4, r3
	mov	ip, r0
	add	r2, r4, r2, lsl #2
	add	r4, r4, #12
.L2180:
	ldr	r7, [r2]
	add	r1, r1, #1
	ldr	r5, [ip, #4]!
	cmp	r1, r6
	ldrb	lr, [r4]	@ zero_extendqisi2
	str	r7, [r0, #4]!
	ldrb	r7, [r3]	@ zero_extendqisi2
	strb	r7, [r4], #1
	str	r5, [r2], #-4
	strb	lr, [r3], #-1
	bne	.L2180
.L2174:
	mov	r0, #0
.L2162:
	sub	sp, fp, #40
	ldmfd	sp, {r4, r5, r6, r7, r8, r9, r10, fp, sp, pc}
.L2207:
	ldr	r2, [r4, #8]
.L2185:
	cmp	r2, r6
	bls	.L2174
	add	r8, r6, #7
	add	r9, r6, #11
	add	r9, r4, r9
	mov	r7, #0
	add	r8, r4, r8, lsl #2
.L2188:
	ldr	r1, .L2213+20
	add	r6, r6, #1
	ldr	r0, [r5, #2808]
	bl	HEVC_ue_v
	mov	r1, #1
	add	r0, r0, r1
	add	r7, r7, r0
	str	r7, [r8, #4]!
	ldr	r0, [r5, #2808]
	bl	BsGet
	strb	r0, [r9, #1]!
	ldr	r3, [r4, #8]
	cmp	r3, r6
	bhi	.L2188
	b	.L2174
.L2208:
	ldr	r1, .L2213+24
	ldr	r0, [r5, #2808]
	bl	HEVC_ue_v
	add	r2, r0, #1
	cmp	r7, r2
	bcs	.L2161
	mov	r3, r7
	ldr	r1, .L2213+28
	mov	r0, #1
	bl	dprint_vfmw
	mvn	r0, #0
	b	.L2162
.L2171:
	ldr	r1, .L2213+32
	mov	r0, #1
	bl	dprint_vfmw
	mvn	r0, #0
	b	.L2162
.L2206:
	ldr	r2, [r4]
	mov	r0, #1
	ldr	r1, .L2213+36
	bl	dprint_vfmw
	mvn	r0, #0
	b	.L2162
.L2209:
	mov	r2, r8
	ldr	r1, .L2213+40
	mov	r0, #1
	bl	dprint_vfmw
	mvn	r0, #0
	b	.L2162
.L2210:
	ldr	r1, .L2213+44
	mov	r0, #1
	bl	dprint_vfmw
	mvn	r0, #0
	b	.L2162
.L2205:
	mov	r2, r0
	ldr	r1, .L2213+48
	mov	r0, #1
	bl	dprint_vfmw
	mvn	r0, #0
	b	.L2162
.L2183:
	mov	r3, #16
	ldr	r1, .L2213+52
	mov	r0, #1
	bl	dprint_vfmw
	mvn	r0, #0
	b	.L2162
.L2214:
	.align	2
.L2213:
	.word	.LC186
	.word	.LC188
	.word	.LC191
	.word	.LC192
	.word	.LC183
	.word	.LC193
	.word	.LC180
	.word	.LC181
	.word	.LC185
	.word	.LC189
	.word	.LC182
	.word	.LC184
	.word	.LC187
	.word	.LC190
	UNWIND(.fnend)
	.size	HEVC_DecShortTermRefPicSet, .-HEVC_DecShortTermRefPicSet
	.align	2
	.global	HEVC_DecHrdParam
	.type	HEVC_DecHrdParam, %function
HEVC_DecHrdParam:
	UNWIND(.fnstart)
	@ args = 0, pretend = 0, frame = 0
	@ frame_needed = 1, uses_anonymous_args = 0
	UNWIND(.movsp ip)
	mov	ip, sp
	stmfd	sp!, {r3, r4, r5, r6, r7, r8, r9, r10, fp, ip, lr, pc}
	UNWIND(.pad #4)
	UNWIND(.save {r3, r4, r5, r6, r7, r8, r9, r10, fp, ip, lr})
	UNWIND(.setfp fp, ip, #-4)
	sub	fp, ip, #4
	cmp	r1, #0
	cmpne	r0, #0
	mov	r8, r3
	mov	r6, r0
	mov	r9, r1
	beq	.L2237
	cmp	r2, #0
	bne	.L2264
.L2220:
	add	r5, r9, #24
	mov	r7, #0
.L2232:
	mov	r1, #1
	ldr	r0, [r6, #2808]
	bl	BsGet
	uxtb	r4, r0
	cmp	r4, #0
	movne	r3, #0
	strne	r3, [r5]
	beq	.L2265
.L2235:
	ldr	r1, .L2270
	ldr	r0, [r6, #2808]
	bl	HEVC_ue_v
.L2223:
	ldr	r1, .L2270+4
	ldr	r0, [r6, #2808]
	bl	HEVC_ue_v
	mov	r2, r0
	str	r0, [r5]
.L2224:
	cmp	r2, #31
	bhi	.L2266
.L2225:
	mov	r4, #0
.L2236:
	cmp	r4, #0
	beq	.L2267
	cmp	r4, #1
	beq	.L2262
.L2231:
	add	r4, r4, #1
	cmp	r4, #2
	bne	.L2236
.L2230:
	add	r7, r7, #1
	add	r5, r5, #4
	cmp	r8, r7
	bcs	.L2232
	mov	r0, #0
	ldmfd	sp, {r3, r4, r5, r6, r7, r8, r9, r10, fp, sp, pc}
.L2266:
	ldr	r1, .L2270+8
	mov	r0, #1
	bl	dprint_vfmw
	mov	r3, #0
	str	r3, [r5]
	b	.L2225
.L2265:
	mov	r1, #1
	ldr	r0, [r6, #2808]
	bl	BsGet
	str	r4, [r5]
	tst	r0, #255
	bne	.L2235
	mov	r1, #1
	ldr	r0, [r6, #2808]
	bl	BsGet
	tst	r0, #255
	beq	.L2223
	ldr	r2, [r5]
	b	.L2224
.L2264:
	mov	r1, #1
	ldr	r0, [r0, #2808]
	bl	BsGet
	mov	r1, #1
	strb	r0, [r9]
	ldr	r0, [r6, #2808]
	bl	BsGet
	strb	r0, [r9, #1]
	ldrh	r3, [r9]
	cmp	r3, #0
	beq	.L2220
	mov	r1, #1
	ldr	r0, [r6, #2808]
	bl	BsGet
	uxtb	r0, r0
	strb	r0, [r9, #2]
	cmp	r0, #0
	bne	.L2268
.L2218:
	mov	r1, #4
	ldr	r0, [r6, #2808]
	bl	BsGet
	mov	r1, #4
	ldr	r0, [r6, #2808]
	bl	BsGet
	ldrb	r3, [r9, #2]	@ zero_extendqisi2
	cmp	r3, #0
	bne	.L2269
.L2219:
	mov	r1, #5
	ldr	r0, [r6, #2808]
	bl	BsGet
	mov	r1, #5
	str	r0, [r9, #12]
	ldr	r0, [r6, #2808]
	bl	BsGet
	mov	r1, #5
	str	r0, [r9, #16]
	ldr	r0, [r6, #2808]
	bl	BsGet
	str	r0, [r9, #20]
	b	.L2220
.L2237:
	mvn	r0, #0
	ldmfd	sp, {r3, r4, r5, r6, r7, r8, r9, r10, fp, sp, pc}
.L2269:
	mov	r1, #4
	ldr	r0, [r6, #2808]
	bl	BsGet
	b	.L2219
.L2268:
	mov	r1, #8
	ldr	r0, [r6, #2808]
	bl	BsGet
	mov	r1, #5
	ldr	r0, [r6, #2808]
	bl	BsGet
	mov	r1, #1
	str	r0, [r9, #4]
	ldr	r0, [r6, #2808]
	bl	BsGet
	mov	r1, #5
	strb	r0, [r9, #3]
	ldr	r0, [r6, #2808]
	bl	BsGet
	str	r0, [r9, #8]
	b	.L2218
.L2267:
	ldrb	r3, [r9]	@ zero_extendqisi2
	cmp	r3, #0
	bne	.L2239
	mov	r4, #1
.L2262:
	ldrb	r3, [r9, #1]	@ zero_extendqisi2
	cmp	r3, #0
	beq	.L2230
.L2239:
	mov	r10, #0
	b	.L2234
.L2233:
	mov	r1, #1
	ldr	r0, [r6, #2808]
	bl	BsGet
	ldr	r3, [r5]
	cmp	r3, r10
	bcc	.L2231
.L2234:
	ldr	r1, .L2270+12
	add	r10, r10, #1
	ldr	r0, [r6, #2808]
	bl	HEVC_ue_v
	ldr	r1, .L2270+16
	ldr	r0, [r6, #2808]
	bl	HEVC_ue_v
	ldrb	r3, [r9, #2]	@ zero_extendqisi2
	cmp	r3, #0
	beq	.L2233
	ldr	r1, .L2270+20
	ldr	r0, [r6, #2808]
	bl	HEVC_ue_v
	ldr	r1, .L2270+24
	ldr	r0, [r6, #2808]
	bl	HEVC_ue_v
	b	.L2233
.L2271:
	.align	2
.L2270:
	.word	.LC194
	.word	.LC195
	.word	.LC196
	.word	.LC197
	.word	.LC198
	.word	.LC199
	.word	.LC200
	UNWIND(.fnend)
	.size	HEVC_DecHrdParam, .-HEVC_DecHrdParam
	.align	2
	.type	HEVC_ParseVPSExtension, %function
HEVC_ParseVPSExtension:
	UNWIND(.fnstart)
	@ args = 0, pretend = 0, frame = 672
	@ frame_needed = 1, uses_anonymous_args = 0
	UNWIND(.movsp ip)
	mov	ip, sp
	stmfd	sp!, {r4, r5, r6, r7, r8, r9, r10, fp, ip, lr, pc}
	UNWIND(.pad #4)
	UNWIND(.save {r4, r5, r6, r7, r8, r9, r10, fp, ip, lr})
	UNWIND(.setfp fp, ip, #-4)
	sub	fp, ip, #4
	UNWIND(.pad #692)
	sub	sp, sp, #692
	mov	r4, #0
	mov	r5, r1
	str	r1, [fp, #-648]
	mov	r2, #64
	mov	r1, r4
	mov	r10, r0
	sub	r0, fp, #496
	str	r4, [fp, #-640]
	str	r4, [fp, #-636]
	bl	memset
	mov	r1, r4
	mov	r2, #128
	sub	r0, fp, #172
	bl	memset
	add	r3, r5, #16384
	mov	r1, r4
	mov	r2, #64
	sub	r0, fp, #432
	mov	r6, r3
	str	r3, [fp, #-656]
	str	r4, [fp, #-632]
	str	r4, [fp, #-628]
	str	r4, [fp, #-624]
	str	r4, [fp, #-620]
	str	r4, [fp, #-608]
	str	r4, [fp, #-604]
	str	r4, [fp, #-600]
	str	r4, [fp, #-596]
	bl	memset
	mov	r1, r4
	mov	r2, #64
	sub	r0, fp, #368
	bl	memset
	mov	r1, r4
	mov	r2, #64
	sub	r0, fp, #304
	bl	memset
	ldr	r3, .L2790
	add	r0, r5, #12416
	mov	r1, r4
	add	r0, r0, #4
	movw	r2, #12492
	ldr	r3, [r3, #48]
	blx	r3
	ldr	r3, [r5, #8]
	cmp	r3, #62
	movge	r3, #62
	cmp	r3, #1
	str	r3, [r6, #152]
	bgt	.L2760
	cmp	r3, #0
	ble	.L2275
	ldr	r3, [fp, #-648]
	ldrb	r3, [r3, #3]	@ zero_extendqisi2
	cmp	r3, #0
	bne	.L2761
.L2275:
	mov	r1, #1
	ldr	r0, [r10, #2808]
	bl	BsGet
	sub	r6, fp, #500
	sub	r4, fp, #436
	mov	r5, #0
	uxtb	r3, r0
	str	r3, [fp, #-664]
.L2276:
	mov	r1, #1
	ldr	r0, [r10, #2808]
	bl	BsGet
	str	r0, [r6, #4]!
	cmp	r0, #0
	addne	r5, r5, #1
	cmp	r6, r4
	bne	.L2276
	ldr	r3, [fp, #-664]
	adds	r6, r3, #0
	movne	r6, #1
	rsb	r9, r6, r5
